
4-Encoder Demo.elf:     file format elf32-littleriscv
4-Encoder Demo.elf
architecture: riscv:rv32, flags 0x00000112:
EXEC_P, HAS_SYMS, D_PAGED
start address 0x00000000

Program Header:
    LOAD off    0x00001000 vaddr 0x00000000 paddr 0x00000000 align 2**12
         filesz 0x00009bdc memsz 0x00009bdc flags r-x
    LOAD off    0x0000b000 vaddr 0x20000000 paddr 0x00009bdc align 2**12
         filesz 0x00000250 memsz 0x0000033c flags rw-
    LOAD off    0x0000b800 vaddr 0x2000f800 paddr 0x2000f800 align 2**12
         filesz 0x00000000 memsz 0x00000800 flags rw-

Sections:
Idx Name           Size      VMA       LMA       File off  Algn  Flags
  0 .init          00000038  00000000  00000000  00001000  2**1  CONTENTS, ALLOC, LOAD, READONLY, CODE
  1 .vector        000001c8  00000038  00000038  00001038  2**1  CONTENTS, ALLOC, LOAD, READONLY, CODE
  2 .text          000099dc  00000200  00000200  00001200  2**3  CONTENTS, ALLOC, LOAD, READONLY, CODE
  3 .fini          00000000  00009bdc  00009bdc  0000b250  2**0  CONTENTS, ALLOC, LOAD, CODE
  4 .dalign        00000000  20000000  20000000  0000b250  2**0  CONTENTS
  5 .dlalign       00000000  00009bdc  00009bdc  0000b250  2**0  CONTENTS
  6 .data          00000250  20000000  00009bdc  0000b000  2**2  CONTENTS, ALLOC, LOAD, DATA
  7 .bss           000000ec  20000250  00009e2c  0000b250  2**2  ALLOC
  8 .stack         00000800  2000f800  2000f800  0000b800  2**0  ALLOC
  9 .debug_info    00016c40  00000000  00000000  0000b250  2**0  CONTENTS, READONLY, DEBUGGING
 10 .debug_abbrev  00003a90  00000000  00000000  00021e90  2**0  CONTENTS, READONLY, DEBUGGING
 11 .debug_aranges 00000d30  00000000  00000000  00025920  2**3  CONTENTS, READONLY, DEBUGGING
 12 .debug_ranges  00000b78  00000000  00000000  00026650  2**3  CONTENTS, READONLY, DEBUGGING
 13 .debug_line    0000fd0d  00000000  00000000  000271c8  2**0  CONTENTS, READONLY, DEBUGGING
 14 .debug_str     000056a7  00000000  00000000  00036ed5  2**0  CONTENTS, READONLY, DEBUGGING
 15 .comment       00000033  00000000  00000000  0003c57c  2**0  CONTENTS, READONLY
 16 .debug_frame   000041ac  00000000  00000000  0003c5b0  2**2  CONTENTS, READONLY, DEBUGGING
 17 .stab          00000084  00000000  00000000  0004075c  2**2  CONTENTS, READONLY, DEBUGGING
 18 .stabstr       00000117  00000000  00000000  000407e0  2**0  CONTENTS, READONLY, DEBUGGING
SYMBOL TABLE:
00000000 l    d  .init	00000000 .init
00000038 l    d  .vector	00000000 .vector
00000200 l    d  .text	00000000 .text
00009bdc l    d  .fini	00000000 .fini
20000000 l    d  .dalign	00000000 .dalign
00009bdc l    d  .dlalign	00000000 .dlalign
20000000 l    d  .data	00000000 .data
20000250 l    d  .bss	00000000 .bss
2000f800 l    d  .stack	00000000 .stack
00000000 l    d  .debug_info	00000000 .debug_info
00000000 l    d  .debug_abbrev	00000000 .debug_abbrev
00000000 l    d  .debug_aranges	00000000 .debug_aranges
00000000 l    d  .debug_ranges	00000000 .debug_ranges
00000000 l    d  .debug_line	00000000 .debug_line
00000000 l    d  .debug_str	00000000 .debug_str
00000000 l    d  .comment	00000000 .comment
00000000 l    d  .debug_frame	00000000 .debug_frame
00000000 l    d  .stab	00000000 .stab
00000000 l    d  .stabstr	00000000 .stabstr
00000000 l    df *ABS*	00000000 ./sdk/Startup/startup_ch32v30x.o
00000038 l       .vector	00000000 _vector_base
00000000 l    df *ABS*	00000000 zf_driver_delay.c
00000000 l    df *ABS*	00000000 zf_driver_encoder.c
20000000 l     O .data	0000000a encoder_dir_pin
00000000 l    df *ABS*	00000000 zf_driver_gpio.c
00000000 l    df *ABS*	00000000 zf_driver_timer.c
200002ac l     O .bss	00000028 timer_function_state
00000000 l    df *ABS*	00000000 zf_driver_uart.c
00000000 l    df *ABS*	00000000 zf_device_bluetooth_ch9141.c
200002d4 l     O .bss	00000014 bluetooth_ch9141_fifo
20000250 l     O .bss	00000001 bluetooth_ch9141_data
00000000 l    df *ABS*	00000000 zf_device_bluetooth_ch9141_ch2.c
200002e8 l     O .bss	00000014 bluetooth_ch9141_fifo_ch2
20000251 l     O .bss	00000001 bluetooth_ch9141_data_ch2
00000000 l    df *ABS*	00000000 zf_device_camera.c
00000000 l    df *ABS*	00000000 zf_device_mt9v03x_dvp.c
20000254 l     O .bss	00000003 receive_dvp
20000257 l     O .bss	00000001 receive_num_dvp
20000258 l     O .bss	00000001 uart_receive_flag_dvp
00000000 l    df *ABS*	00000000 zf_device_scc8660_dvp.c
00000000 l    df *ABS*	00000000 zf_device_wireless_ch573.c
200002fc l     O .bss	00000014 wireless_ch573_fifo
2000026c l     O .bss	00000001 wireless_ch573_data
00000000 l    df *ABS*	00000000 zf_device_wireless_uart.c
20000310 l     O .bss	00000014 wireless_uart_fifo
2000026d l     O .bss	00000001 wireless_uart_data
00000000 l    df *ABS*	00000000 zf_common_clock.c
00001416 l     F .text	00000076 clock_reset
0000148c l     F .text	00000260 clock_set_freq
00000000 l    df *ABS*	00000000 zf_common_debug.c
000016ec l     F .text	00000010 __NOP
20000324 l     O .bss	00000014 debug_output_info
20000274 l     O .bss	00000001 zf_debug_init_flag
20000230 l     O .data	00000001 zf_debug_assert_enable
000016fc l     F .text	00000052 debug_delay
0000174e l     F .text	00000020 debug_uart_str_output
0000176e l     F .text	00000352 debug_output
20000275 l     O .bss	00000001 assert_nest_index.4237
00000000 l    df *ABS*	00000000 zf_common_fifo.c
00000000 l    df *ABS*	00000000 zf_common_interrupt.c
20000278 l     O .bss	00000004 interrupt_nest_count
00000000 l    df *ABS*	00000000 isr.c
00000000 l    df *ABS*	00000000 main.c
00000000 l    df *ABS*	00000000 ch32v30x_exti.c
00000000 l    df *ABS*	00000000 ch32v30x_gpio.c
00000000 l    df *ABS*	00000000 ch32v30x_rcc.c
2000000c l     O .data	00000010 APBAHBPrescTable
20000234 l     O .data	00000004 ADCPrescTable
00000000 l    df *ABS*	00000000 ch32v30x_tim.c
00000000 l    df *ABS*	00000000 ch32v30x_usart.c
00000000 l    df *ABS*	00000000 ch32v30x_usbotg_device.c
00000000 l    df *ABS*	00000000 adddf3.c
00000000 l    df *ABS*	00000000 divdf3.c
00000000 l    df *ABS*	00000000 eqdf2.c
00000000 l    df *ABS*	00000000 ledf2.c
00000000 l    df *ABS*	00000000 muldf3.c
00000000 l    df *ABS*	00000000 subdf3.c
00000000 l    df *ABS*	00000000 fixdfsi.c
00000000 l    df *ABS*	00000000 floatsidf.c
00000000 l    df *ABS*	00000000 libgcc2.c
00000000 l    df *ABS*	00000000 memcpy.c
00000000 l    df *ABS*	00000000 nano-vfprintf_float.c
00000000 l    df *ABS*	00000000 nano-vfprintf_i.c
00000000 l    df *ABS*	00000000 printf.c
00000000 l    df *ABS*	00000000 sprintf.c
00000000 l    df *ABS*	00000000 strlen.c
00000000 l    df *ABS*	00000000 wbuf.c
00000000 l    df *ABS*	00000000 wsetup.c
00000000 l    df *ABS*	00000000 dtoa.c
00006bce l     F .text	0000013a quorem
00000000 l    df *ABS*	00000000 fflush.c
00000000 l    df *ABS*	00000000 findfp.c
00007aca l     F .text	0000006a std
00000000 l    df *ABS*	00000000 fwalk.c
00000000 l    df *ABS*	00000000 localeconv.c
00000000 l    df *ABS*	00000000 makebuf.c
00000000 l    df *ABS*	00000000 malloc.c
00000000 l    df *ABS*	00000000 memchr.c
00000000 l    df *ABS*	00000000 mprec.c
00009aa8 l     O .text	0000000c p05.3319
00000000 l    df *ABS*	00000000 nano-mallocr.c
00000000 l    df *ABS*	00000000 nano-mallocr.c
00000000 l    df *ABS*	00000000 nano-mallocr.c
00000000 l    df *ABS*	00000000 nano-vfprintf.c
00000000 l    df *ABS*	00000000 nano-vfprintf.c
00008a3e l     F .text	0000002a __sfputc_r
00000000 l    df *ABS*	00000000 sbrkr.c
00000000 l    df *ABS*	00000000 stdio.c
00000000 l    df *ABS*	00000000 writer.c
00000000 l    df *ABS*	00000000 closer.c
00000000 l    df *ABS*	00000000 fstatr.c
00000000 l    df *ABS*	00000000 isattyr.c
00000000 l    df *ABS*	00000000 lseekr.c
00000000 l    df *ABS*	00000000 mbtowc_r.c
00000000 l    df *ABS*	00000000 memmove.c
00000000 l    df *ABS*	00000000 mlock.c
00000000 l    df *ABS*	00000000 nano-mallocr.c
00000000 l    df *ABS*	00000000 readr.c
00000000 l    df *ABS*	00000000 wctomb_r.c
00000000 l    df *ABS*	00000000 nano-mallocr.c
00000000 l    df *ABS*	00000000 gedf2.c
00000000 l    df *ABS*	00000000 unorddf2.c
00000000 l    df *ABS*	00000000 floatunsidf.c
00000000 l    df *ABS*	00000000 trunctfdf2.c
00000000 l    df *ABS*	00000000 close.c
00000000 l    df *ABS*	00000000 fstat.c
00000000 l    df *ABS*	00000000 isatty.c
00000000 l    df *ABS*	00000000 lseek.c
00000000 l    df *ABS*	00000000 read.c
00000000 l    df *ABS*	00000000 sbrk.c
200002a8 l     O .bss	00000004 heap_end.1518
00000000 l    df *ABS*	00000000 libgcc2.c
00000000 l    df *ABS*	00000000 locale.c
00000000 l    df *ABS*	00000000 ctype_.c
00000000 l    df *ABS*	00000000 impure.c
20000060 l     O .data	00000060 impure_data
00000000 l    df *ABS*	00000000 zf_device_type.c
00000000 l    df *ABS*	00000000 reent.c
00002ec4 g     F .text	0000003c TIM_TimeBaseStructInit
0000902e g     F .text	00000014 _malloc_usable_size_r
00005f6c g     F .text	000000ee __cvt
000020c6 g     F .text	00000020 EXTI2_IRQHandler
20000268 g     O .bss	00000004 wireless_type
000024e8  w      .text	00000000 TIM8_TRG_COM_IRQHandler
000024ea  w      .text	00000000 TIM8_CC_IRQHandler
00001b3c g     F .text	0000005c debug_assert_handler
00000ecc g     F .text	0000005e uart_query_byte
2000029a g     O .bss	00000001 USBHD_Dev_SleepStatus
00008eae g     F .text	00000028 _isatty_r
000035ba g     F .text	0000003e DevEP1_IN_Deal
00008ed6 g     F .text	0000002c _lseek_r
20000260 g     O .bss	00000001 scc8660_uart_receive_flag_dvp
0000201c g     F .text	0000002c UART8_IRQHandler
00005056 g     F .text	0000006a .hidden __eqdf2
0000695c g     F .text	00000042 printf
20000a30 g       .data	00000000 __global_pointer$
000024c4  w      .text	00000000 TIM1_CC_IRQHandler
00008df2 g     F .text	00000036 __sseek
00007b86 g     F .text	0000006c __sinit
000069f6 g     F .text	000000c6 __swbuf_r
00001d0a g     F .text	00000100 fifo_write_buffer
000023ee g     F .text	00000008 HardFault_Handler
00007b3e g     F .text	00000048 __sfmoreglue
00008f88 g     F .text	00000002 __malloc_unlock
0000124a g     F .text	00000036 camera_uart_handler
0000139c g     F .text	00000028 wireless_ch573_callback
000022fe g     F .text	00000028 TIM6_IRQHandler
0000248a  w      .text	00000000 SysTick_Handler
00002490  w      .text	00000000 PVD_IRQHandler
000024f0  w      .text	00000000 SDIO_IRQHandler
00008f3c g     F .text	0000004a memmove
00002522  w      .text	00000000 TIM9_BRK_IRQHandler
00001324 g     F .text	00000064 scc8660_uart_callback_dvp
00002536  w      .text	00000000 DMA2_Channel8_IRQHandler
000023de g     F .text	00000010 NMI_Handler
00007e38 g     F .text	00000088 _Balloc
00002510  w      .text	00000000 CAN2_RX1_IRQHandler
000020e6 g     F .text	00000020 EXTI3_IRQHandler
20000264 g     O .bss	00000004 camera_type
00009042 g     F .text	000000ae .hidden __gtdf2
00002518  w      .text	00000000 USBHS_IRQHandler
00003424 g     F .text	00000046 USART_GetFlagStatus
00002538  w      .text	00000000 DMA2_Channel9_IRQHandler
00008e84 g     F .text	0000002a _fstat_r
00009628 g     O .text	00000014 MyReportDescHD
00002530  w      .text	00000000 TIM10_CC_IRQHandler
20000338 g     O .bss	00000004 errno
2000001c g     O .data	00000043 TAB_USB_FS_OSC_DESC
20000250 g       .bss	00000000 _sbss
00000800 g       *ABS*	00000000 __stack_size
00000206 g       .text	00000000 en_interrupt
2000029b g     O .bss	00000001 DevConfig
000011fa g     F .text	00000028 bluetooth_ch9141_uart_callback_ch1
00005eb6 g     F .text	000000b6 memcpy
00007b34 g     F .text	0000000a _cleanup_r
000028b4 g     F .text	0000013c GPIO_PinRemapConfig
000087c0 g     F .text	0000027e _svfprintf_r
00005dd0 g     F .text	00000070 .hidden __floatsidf
20000261 g     O .bss	00000001 scc8660_finish_flag_dvp
000050c0 g     F .text	000000b6 .hidden __ltdf2
00002086 g     F .text	00000020 EXTI0_IRQHandler
000024d0  w      .text	00000000 I2C2_EV_IRQHandler
0000252e  w      .text	00000000 TIM10_TRG_COM_IRQHandler
2000029e g     O .bss	00000002 SetupReqLen
00002f00 g     F .text	00000058 TIM_Cmd
00009658 g     O .text	00000016 MySerNumInfoHD
00009588 g     O .text	00000028 tim_index
00007e12 g     F .text	0000000c malloc
000093be g     F .text	0000000c _fstat
000099e0 g     O .text	000000c8 __mprec_tens
00000038 g       .init	00000000 _einit
00003134 g     F .text	0000002e TIM_ClearITPendingBit
00009670 g     O .text	0000000a MyUSBQUADescHD
00001e0a g     F .text	0000000e interrupt_init
00002cba g     F .text	00000046 RCC_APB2PeriphClockCmd
00002512  w      .text	00000000 CAN2_SCE_IRQHandler
000024b2  w      .text	00000000 ADC1_2_IRQHandler
00002652 g     F .text	0000022a GPIO_Init
00000380 g     F .text	00000026 encoder_clear_count
00002488  w      .text	00000000 Break_Point_Handler
2000029c g     O .bss	00000001 SetupReqCode
00007cfe g     F .text	00000018 _localeconv_r
0000804c g     F .text	0000001c __i2b
00001cbc g     F .text	0000004e fifo_head_offset
000024d4  w      .text	00000000 SPI1_IRQHandler
00003396 g     F .text	00000060 USART_Cmd
00008d4c g     F .text	00000028 _sbrk_r
00002492  w      .text	00000000 TAMPER_IRQHandler
00008fe2 g     F .text	0000002c _read_r
0000356c g     F .text	0000004e USART_ClearITPendingBit
0000250e  w      .text	00000000 CAN2_RX0_IRQHandler
00002356 g     F .text	00000030 TIM8_UP_IRQHandler
000003a6 g     F .text	000001ec encoder_init_quad
00002d00 g     F .text	00000046 RCC_APB1PeriphClockCmd
00004372 g     F .text	00000730 .hidden __adddf3
00002484  w      .text	00000000 Ecall_M_Mode_Handler
00000990 g     F .text	000000e2 timer_clock_enable
00001388 g     F .text	00000014 scc8660_vsync_dvp
000093ca g     F .text	0000000c _isatty
2000024c g     O .data	00000004 _global_impure_ptr
00008f8a g     F .text	00000058 _realloc_r
00002500  w      .text	00000000 DMA2_Channel2_IRQHandler
000024aa  w      .text	00000000 DMA1_Channel4_IRQHandler
000099b8 g     O .text	00000028 __mprec_bigtens
00000318 g     F .text	00000036 encoder_gpio_init
0000912c g     F .text	00000068 .hidden __floatunsidf
000093ee g     F .text	00000020 _sbrk
00008338 g     F .text	00000032 __mcmp
000012ac g     F .text	00000064 mt9v03x_uart_callback_dvp
00002386 g     F .text	00000030 TIM9_UP_IRQHandler
00001f04 g     F .text	00000034 USART3_IRQHandler
00002632 g     F .text	00000020 EXTI_ClearITPendingBit
00002494  w      .text	00000000 RTC_IRQHandler
2000033c g       .bss	00000000 _ebss
0000346a g     F .text	00000102 USART_GetITStatus
000024b0  w      .text	00000000 DMA1_Channel7_IRQHandler
0000964c g     O .text	0000000c MyProdInfoHD
00007f9c g     F .text	00000046 __hi0bits
000024b8  w      .text	00000000 CAN1_RX1_IRQHandler
00005d68 g     F .text	00000068 .hidden __fixdfsi
00002048 g     F .text	0000003e DVP_IRQHandler
00001f6c g     F .text	00000030 UART5_IRQHandler
20000294 g     O .bss	00000004 pDescr
00001bf2 g     F .text	00000088 debug_output_init
20000248 g     O .data	00000004 MyLangDescrHD
20000270 g     O .bss	00000004 system_clock
0000229e g     F .text	00000030 TIM4_IRQHandler
000050c0 g     F .text	000000b6 .hidden __ledf2
0000287c g     F .text	00000038 GPIO_WriteBit
000013ec g     F .text	0000002a clock_init
000024fe  w      .text	00000000 DMA2_Channel1_IRQHandler
000081ac g     F .text	000000be __pow5mult
00009958 g     O .text	00000020 __sf_fake_stderr
2000033c g       .bss	00000000 end
2000023c g     O .data	00000007 LineCoding
000024cc  w      .text	00000000 I2C1_EV_IRQHandler
000086d2 g     F .text	000000ee __ssputs_r
000030c4 g     F .text	00000070 TIM_GetITStatus
000029f0 g     F .text	000002ca RCC_GetClocksFreq
000024ae  w      .text	00000000 DMA1_Channel6_IRQHandler
00005e40 g     F .text	00000076 .hidden __clzsi2
00008a68 g     F .text	00000044 __sfputs_r
00000f2a g     F .text	000002d0 uart_init
00001f38 g     F .text	00000034 UART4_IRQHandler
00002504  w      .text	00000000 DMA2_Channel4_IRQHandler
00007e1e g     F .text	0000001a memchr
000060e6  w    F .text	000004c4 _printf_float
00003162 g     F .text	00000234 USART_Init
00008556 g     F .text	000000a8 _free_r
0000226e g     F .text	00000030 TIM3_IRQHandler
00002498  w      .text	00000000 RCC_IRQHandler
00000a72 g     F .text	000003c2 uart_gpio_init
000024c2  w      .text	00000000 TIM1_TRG_COM_IRQHandler
000024a4  w      .text	00000000 DMA1_Channel1_IRQHandler
00000000 g       .init	00000000 _start
00002534  w      .text	00000000 DMA2_Channel7_IRQHandler
000093d6 g     F .text	0000000c _lseek
0000826a g     F .text	000000ce __lshift
00002f9e g     F .text	0000004e TIM_SelectInputTrigger
0000219a g     F .text	0000007c EXTI15_10_IRQHandler
00000200 g       .text	00000000 dis_interrupt
20000290 g     O .bss	00000004 pEP2_RAM_Addr
00008068 g     F .text	00000144 __multiply
0000845c g     F .text	000000d4 __d2b
00001222 g     F .text	00000028 bluetooth_ch9141_uart_callback_ch2
000002bc g     F .text	0000005c system_delay
00002326 g     F .text	00000030 TIM7_IRQHandler
00008e5c g     F .text	00000028 _close_r
0000250c  w      .text	00000000 CAN2_TX_IRQHandler
20000000 g       .dalign	00000000 _data_vma
000022ce g     F .text	00000030 TIM5_IRQHandler
0000369a g     F .text	00000064 DevEP2_OUT_Deal
00006abc g     F .text	00000112 __swsetup_r
00002126 g     F .text	00000074 EXTI9_5_IRQHandler
00004aa2 g     F .text	000005b4 .hidden __divdf3
00007bf2 g     F .text	000000a0 __sfp
00000938 g     F .text	00000058 timer_funciton_check
00005176 g     F .text	000004b8 .hidden __muldf3
00008d74 g     F .text	00000030 __sread
0000250a  w      .text	00000000 ETH_WKUP_IRQHandler
00003636 g     F .text	00000064 DevEP1_OUT_Deal
00008f86 g     F .text	00000002 __malloc_lock
00007a64 g     F .text	00000066 _fflush_r
00008530 g     F .text	00000026 _calloc_r
000025dc g     F .text	00000056 EXTI_GetITStatus
20000288 g     O .bss	00000004 pEP0_RAM_Addr
20000252 g     O .bss	00000001 mt9v03x_finish_flag_dvp
000024d6  w      .text	00000000 SPI2_IRQHandler
00009978 g     O .text	00000020 __sf_fake_stdin
000095d0 g     O .text	00000012 MyDevDescrHD
00000214 g     F .text	000000a8 memset
000023f6 g     F .text	0000008a main
0000252a  w      .text	00000000 TIM10_BRK_IRQHandler
00002f58 g     F .text	00000046 TIM_ITRxExternalClockConfig
00002528  w      .text	00000000 TIM9_CC_IRQHandler
00008e28 g     F .text	00000006 __sclose
00002506  w      .text	00000000 DMA2_Channel5_IRQHandler
20000238 g     O .data	00000001 USBHD_Dev_Speed
2000025f g     O .bss	00000001 scc8660_uart_receive_num_dvp
00006d08 g     F .text	00000c1e _dtoa_r
000085fe g     F .text	000000d4 _malloc_r
0000900e g     F .text	00000020 __ascii_wctomb
0000963c g     O .text	0000000e MyManuInfoHD
2000025c g     O .bss	00000003 scc8660_uart_receive_dvp
000024ac  w      .text	00000000 DMA1_Channel5_IRQHandler
000095b0 g     O .text	00000020 uart_index
00002106 g     F .text	00000020 EXTI4_IRQHandler
000024b6  w      .text	00000000 USB_LP_CAN1_RX0_IRQHandler
00001310 g     F .text	00000014 mt9v03x_handler_dvp
00001c7a g     F .text	00000042 debug_init
000024ec  w      .text	00000000 RNG_IRQHandler
00005056 g     F .text	0000006a .hidden __nedf2
0000695c g     F .text	00000042 iprintf
20000280 g     O .bss	00000008 EP0_DatabufHD
000024b4  w      .text	00000000 USB_HP_CAN1_TX_IRQHandler
0000699e g     F .text	00000046 sprintf
000097b8 g     O .text	00000100 .hidden __clz_tab
0000605a g     F .text	0000008c __exponent
00000000 g       .init	00000000 _sinit
000035f8 g     F .text	0000003e DevEP2_IN_Deal
00008e2e g     F .text	0000002e _write_r
000024a8  w      .text	00000000 DMA1_Channel3_IRQHandler
0000034e g     F .text	00000032 encoder_get_count
000024ee  w      .text	00000000 FSMC_IRQHandler
00002508  w      .text	00000000 ETH_IRQHandler
000065aa g     F .text	0000010c _printf_common
20000244 g     O .data	00000004 _impure_ptr
00002216 g     F .text	00000030 TIM1_UP_IRQHandler
00007926 g     F .text	0000013e __sflush_r
000087c0 g     F .text	0000027e _svfiprintf_r
0000248e  w      .text	00000000 WWDG_IRQHandler
00002516  w      .text	00000000 USBHSWakeup_IRQHandler
0000253c  w      .text	00000000 DMA2_Channel11_IRQHandler
00008f02 g     F .text	0000003a __ascii_mbtowc
00002486  w      .text	00000000 Ecall_U_Mode_Handler
00001b98 g     F .text	0000005a debug_output_struct_init
00000592 g     F .text	00000204 encoder_init_dir
00002532  w      .text	00000000 DMA2_Channel6_IRQHandler
00002246 g     F .text	00000028 TIM2_IRQHandler
20010000 g       .stack	00000000 _eusrstack
2000027c g     O .bss	00000002 encoder_data
0000248c  w      .text	00000000 SW_Handler
000095e4 g     O .text	00000043 MyCfgDescrHD
000024be  w      .text	00000000 TIM1_BRK_IRQHandler
00007d16 g     F .text	0000005a __swhatbuf_r
000033f6 g     F .text	0000002e USART_SendData
0000253a  w      .text	00000000 DMA2_Channel10_IRQHandler
000020a6 g     F .text	00000020 EXTI1_IRQHandler
00001ac0 g     F .text	0000007c _write
20000250 g       .data	00000000 _edata
000013c4 g     F .text	00000028 wireless_uart_callback
20000298 g     O .bss	00000002 USBHD_Dev_SetupReqLen
00002d46 g     F .text	0000017e TIM_TimeBaseInit
000024e0  w      .text	00000000 RTCAlarm_IRQHandler
00009bdc g       .dlalign	00000000 _data_lma
000023b6 g     F .text	00000028 TIM10_UP_IRQHandler
00002526  w      .text	00000000 TIM9_TRG_COM_IRQHandler
00001fd0 g     F .text	0000004c UART7_IRQHandler
00001ea2 g     F .text	00000062 USART2_IRQHandler
00001f9c g     F .text	00000034 UART6_IRQHandler
00008da4 g     F .text	0000004e __swrite
00008aac g     F .text	000002a0 _vfiprintf_r
00007c92 g     F .text	0000006c _fwalk_reent
0000836a g     F .text	000000f2 __mdiff
00001e18 g     F .text	0000002e interrupt_global_enable
000024d2  w      .text	00000000 I2C2_ER_IRQHandler
000024a6  w      .text	00000000 DMA1_Channel2_IRQHandler
00009998 g     O .text	00000020 __sf_fake_stdout
0000699e g     F .text	00000046 siprintf
000024e4  w      .text	00000000 TIM8_BRK_IRQHandler
00009ad8 g     O .text	00000101 _ctype_
000093e2 g     F .text	0000000c _read
000090f0 g     F .text	0000003c .hidden __unorddf2
0000253e  w      .text	00000000 handle_reset
000024ba  w      .text	00000000 CAN1_SCE_IRQHandler
00009574 g     O .text	00000014 gpio_group
00002496  w      .text	00000000 FLASH_IRQHandler
00001e6e g     F .text	00000034 USART1_IRQHandler
00007d70 g     F .text	000000a2 __smakebuf_r
00000e8a g     F .text	00000042 uart_write_string
000069e4 g     F .text	00000012 strlen
000036fe g     F .text	00000c74 OTG_FS_IRQHandler
000066b6 g     F .text	000002a6 _printf_i
000024f4  w      .text	00000000 SPI3_IRQHandler
00001280 g     F .text	0000002c camera_dvp_handler
00009042 g     F .text	000000ae .hidden __gedf2
200002a4 g     O .bss	00000004 __malloc_sbrk_start
000024ce  w      .text	00000000 I2C1_ER_IRQHandler
00000796 g     F .text	000001a2 gpio_init
200002a0 g     O .bss	00000004 __malloc_free_list
00002fec g     F .text	000000d8 TIM_EncoderInterfaceConfig
0000562e g     F .text	0000073a .hidden __subdf3
00008aac g     F .text	000002a0 _vfprintf_r
00007fe2 g     F .text	0000006a __lo0bits
2000028c g     O .bss	00000004 pEP1_RAM_Addr
200000c0 g     O .data	0000016c __global_locale
000024e2  w      .text	00000000 USBWakeUp_IRQHandler
00009194 g     F .text	0000021e .hidden __trunctfdf2
000093b2 g     F .text	0000000c _close
00002502  w      .text	00000000 DMA2_Channel3_IRQHandler
00007f04 g     F .text	00000098 __multadd
00001e46 g     F .text	00000028 interrupt_global_disable
00007ec0 g     F .text	00000044 _Bfree
00000e34 g     F .text	00000056 uart_write_byte



Disassembly of section .init:

00000000 <_sinit>:
_start():
C:/Users/86158/Desktop/IEECS-Design/Hardware/Reference/CHV307_Library-master/Example/libraries/sdk/Startup/startup_ch32v30x.S:13

	.section	.init,"ax",@progbits
	.global	_start
	.align	1
_start:
	j	handle_reset
   0:	53e0206f          	j	253e <handle_reset>
   4:	00000013          	nop
   8:	00000013          	nop
   c:	00000013          	nop
  10:	00000013          	nop
  14:	00000013          	nop
  18:	00000013          	nop
  1c:	00000013          	nop
  20:	00000013          	nop
  24:	00000013          	nop
  28:	00000013          	nop
  2c:	00000013          	nop
  30:	00000013          	nop
  34:	00100073          	ebreak

Disassembly of section .vector:

00000038 <_vector_base>:
	...
_vector_base():
  40:	23de                	fld	ft7,464(sp)
  42:	0000                	unimp
  44:	23ee                	fld	ft7,216(sp)
  46:	0000                	unimp
  48:	0000                	unimp
  4a:	0000                	unimp
  4c:	2484                	fld	fs1,8(s1)
	...
  56:	0000                	unimp
  58:	2486                	fld	fs1,64(sp)
  5a:	0000                	unimp
  5c:	2488                	fld	fa0,8(s1)
	...
  66:	0000                	unimp
  68:	248a                	fld	fs1,128(sp)
  6a:	0000                	unimp
  6c:	0000                	unimp
  6e:	0000                	unimp
  70:	248c                	fld	fa1,8(s1)
  72:	0000                	unimp
  74:	0000                	unimp
  76:	0000                	unimp
  78:	248e                	fld	fs1,192(sp)
  7a:	0000                	unimp
  7c:	2490                	fld	fa2,8(s1)
  7e:	0000                	unimp
  80:	2492                	fld	fs1,256(sp)
  82:	0000                	unimp
  84:	2494                	fld	fa3,8(s1)
  86:	0000                	unimp
  88:	2496                	fld	fs1,320(sp)
  8a:	0000                	unimp
  8c:	2498                	fld	fa4,8(s1)
  8e:	0000                	unimp
  90:	2086                	fld	ft1,64(sp)
  92:	0000                	unimp
  94:	20a6                	fld	ft1,72(sp)
  96:	0000                	unimp
  98:	20c6                	fld	ft1,80(sp)
  9a:	0000                	unimp
  9c:	20e6                	fld	ft1,88(sp)
  9e:	0000                	unimp
  a0:	2106                	fld	ft2,64(sp)
  a2:	0000                	unimp
  a4:	24a4                	fld	fs1,72(s1)
  a6:	0000                	unimp
  a8:	24a6                	fld	fs1,72(sp)
  aa:	0000                	unimp
  ac:	24a8                	fld	fa0,72(s1)
  ae:	0000                	unimp
  b0:	24aa                	fld	fs1,136(sp)
  b2:	0000                	unimp
  b4:	24ac                	fld	fa1,72(s1)
  b6:	0000                	unimp
  b8:	24ae                	fld	fs1,200(sp)
  ba:	0000                	unimp
  bc:	24b0                	fld	fa2,72(s1)
  be:	0000                	unimp
  c0:	24b2                	fld	fs1,264(sp)
  c2:	0000                	unimp
  c4:	24b4                	fld	fa3,72(s1)
  c6:	0000                	unimp
  c8:	24b6                	fld	fs1,328(sp)
  ca:	0000                	unimp
  cc:	24b8                	fld	fa4,72(s1)
  ce:	0000                	unimp
  d0:	24ba                	fld	fs1,392(sp)
  d2:	0000                	unimp
  d4:	2126                	fld	ft2,72(sp)
  d6:	0000                	unimp
  d8:	24be                	fld	fs1,456(sp)
  da:	0000                	unimp
  dc:	2216                	fld	ft4,320(sp)
  de:	0000                	unimp
  e0:	24c2                	fld	fs1,16(sp)
  e2:	0000                	unimp
  e4:	24c4                	fld	fs1,136(s1)
  e6:	0000                	unimp
  e8:	2246                	fld	ft4,80(sp)
  ea:	0000                	unimp
  ec:	226e                	fld	ft4,216(sp)
  ee:	0000                	unimp
  f0:	229e                	fld	ft5,448(sp)
  f2:	0000                	unimp
  f4:	24cc                	fld	fa1,136(s1)
  f6:	0000                	unimp
  f8:	24ce                	fld	fs1,208(sp)
  fa:	0000                	unimp
  fc:	24d0                	fld	fa2,136(s1)
  fe:	0000                	unimp
 100:	24d2                	fld	fs1,272(sp)
 102:	0000                	unimp
 104:	24d4                	fld	fa3,136(s1)
 106:	0000                	unimp
 108:	24d6                	fld	fs1,336(sp)
 10a:	0000                	unimp
 10c:	1e6e                	slli	t3,t3,0x3b
 10e:	0000                	unimp
 110:	1ea2                	slli	t4,t4,0x28
 112:	0000                	unimp
 114:	1f04                	addi	s1,sp,944
 116:	0000                	unimp
 118:	219a                	fld	ft3,384(sp)
 11a:	0000                	unimp
 11c:	24e0                	fld	fs0,200(s1)
 11e:	0000                	unimp
 120:	24e2                	fld	fs1,24(sp)
 122:	0000                	unimp
 124:	24e4                	fld	fs1,200(s1)
 126:	0000                	unimp
 128:	2356                	fld	ft6,336(sp)
 12a:	0000                	unimp
 12c:	24e8                	fld	fa0,200(s1)
 12e:	0000                	unimp
 130:	24ea                	fld	fs1,152(sp)
 132:	0000                	unimp
 134:	24ec                	fld	fa1,200(s1)
 136:	0000                	unimp
 138:	24ee                	fld	fs1,216(sp)
 13a:	0000                	unimp
 13c:	24f0                	fld	fa2,200(s1)
 13e:	0000                	unimp
 140:	22ce                	fld	ft5,208(sp)
 142:	0000                	unimp
 144:	24f4                	fld	fa3,200(s1)
 146:	0000                	unimp
 148:	1f38                	addi	a4,sp,952
 14a:	0000                	unimp
 14c:	1f6c                	addi	a1,sp,956
 14e:	0000                	unimp
 150:	22fe                	fld	ft5,472(sp)
 152:	0000                	unimp
 154:	2326                	fld	ft6,72(sp)
 156:	0000                	unimp
 158:	24fe                	fld	fs1,472(sp)
 15a:	0000                	unimp
 15c:	2500                	fld	fs0,8(a0)
 15e:	0000                	unimp
 160:	2502                	fld	fa0,0(sp)
 162:	0000                	unimp
 164:	2504                	fld	fs1,8(a0)
 166:	0000                	unimp
 168:	2506                	fld	fa0,64(sp)
 16a:	0000                	unimp
 16c:	2508                	fld	fa0,8(a0)
 16e:	0000                	unimp
 170:	250a                	fld	fa0,128(sp)
 172:	0000                	unimp
 174:	250c                	fld	fa1,8(a0)
 176:	0000                	unimp
 178:	250e                	fld	fa0,192(sp)
 17a:	0000                	unimp
 17c:	2510                	fld	fa2,8(a0)
 17e:	0000                	unimp
 180:	2512                	fld	fa0,256(sp)
 182:	0000                	unimp
 184:	36fe                	fld	fa3,504(sp)
 186:	0000                	unimp
 188:	2516                	fld	fa0,320(sp)
 18a:	0000                	unimp
 18c:	2518                	fld	fa4,8(a0)
 18e:	0000                	unimp
 190:	2048                	fld	fa0,128(s0)
 192:	0000                	unimp
 194:	1f9c                	addi	a5,sp,1008
 196:	0000                	unimp
 198:	1fd0                	addi	a2,sp,1012
 19a:	0000                	unimp
 19c:	201c                	fld	fa5,0(s0)
 19e:	0000                	unimp
 1a0:	2522                	fld	fa0,8(sp)
 1a2:	0000                	unimp
 1a4:	2386                	fld	ft7,64(sp)
 1a6:	0000                	unimp
 1a8:	2526                	fld	fa0,72(sp)
 1aa:	0000                	unimp
 1ac:	2528                	fld	fa0,72(a0)
 1ae:	0000                	unimp
 1b0:	252a                	fld	fa0,136(sp)
 1b2:	0000                	unimp
 1b4:	23b6                	fld	ft7,328(sp)
 1b6:	0000                	unimp
 1b8:	252e                	fld	fa0,200(sp)
 1ba:	0000                	unimp
 1bc:	2530                	fld	fa2,72(a0)
 1be:	0000                	unimp
 1c0:	2532                	fld	fa0,264(sp)
 1c2:	0000                	unimp
 1c4:	2534                	fld	fa3,72(a0)
 1c6:	0000                	unimp
 1c8:	2536                	fld	fa0,328(sp)
 1ca:	0000                	unimp
 1cc:	2538                	fld	fa4,72(a0)
 1ce:	0000                	unimp
 1d0:	253a                	fld	fa0,392(sp)
 1d2:	0000                	unimp
 1d4:	253c                	fld	fa5,72(a0)
	...

Disassembly of section .text:

00000200 <dis_interrupt>:
dis_interrupt():
C:/Users/86158/Desktop/IEECS-Design/Hardware/Reference/CHV307_Library-master/Example/libraries/zf_driver/zf_driver_irq.S:39
#a0 = 0x7888
#mstatus中的第11 12位MPP
#00 用户模式  (U)
#01 监管者模式(S)
#11 机器模式  (M) 只有该模式允许使用SCR指令
    csrrci a0, mstatus, 0x8
     200:	30047573          	csrrci	a0,mstatus,8
C:/Users/86158/Desktop/IEECS-Design/Hardware/Reference/CHV307_Library-master/Example/libraries/zf_driver/zf_driver_irq.S:40
    ret
     204:	8082                	ret

00000206 <en_interrupt>:
en_interrupt():
C:/Users/86158/Desktop/IEECS-Design/Hardware/Reference/CHV307_Library-master/Example/libraries/zf_driver/zf_driver_irq.S:57

#	li t0, 0x1f
#	csrw 0x804, t0

#mstatus寄存器中的MIE位置1，切换为用户模式
   	li t0, 0x6088
     206:	000062b7          	lui	t0,0x6
     20a:	08828293          	addi	t0,t0,136 # 6088 <__exponent+0x2e>
C:/Users/86158/Desktop/IEECS-Design/Hardware/Reference/CHV307_Library-master/Example/libraries/zf_driver/zf_driver_irq.S:58
   	csrs mstatus, t0
     20e:	3002a073          	csrs	mstatus,t0
C:/Users/86158/Desktop/IEECS-Design/Hardware/Reference/CHV307_Library-master/Example/libraries/zf_driver/zf_driver_irq.S:59
    ret
     212:	8082                	ret

00000214 <memset>:
memset():
     214:	433d                	li	t1,15
     216:	872a                	mv	a4,a0
     218:	02c37363          	bgeu	t1,a2,23e <memset+0x2a>
     21c:	00f77793          	andi	a5,a4,15
     220:	efbd                	bnez	a5,29e <memset+0x8a>
     222:	e5ad                	bnez	a1,28c <memset+0x78>
     224:	ff067693          	andi	a3,a2,-16
     228:	8a3d                	andi	a2,a2,15
     22a:	96ba                	add	a3,a3,a4
     22c:	c30c                	sw	a1,0(a4)
     22e:	c34c                	sw	a1,4(a4)
     230:	c70c                	sw	a1,8(a4)
     232:	c74c                	sw	a1,12(a4)
     234:	0741                	addi	a4,a4,16
     236:	fed76be3          	bltu	a4,a3,22c <memset+0x18>
     23a:	e211                	bnez	a2,23e <memset+0x2a>
     23c:	8082                	ret
     23e:	40c306b3          	sub	a3,t1,a2
     242:	068a                	slli	a3,a3,0x2
     244:	00000297          	auipc	t0,0x0
     248:	9696                	add	a3,a3,t0
     24a:	00a68067          	jr	10(a3)
     24e:	00b70723          	sb	a1,14(a4)
     252:	00b706a3          	sb	a1,13(a4)
     256:	00b70623          	sb	a1,12(a4)
     25a:	00b705a3          	sb	a1,11(a4)
     25e:	00b70523          	sb	a1,10(a4)
     262:	00b704a3          	sb	a1,9(a4)
     266:	00b70423          	sb	a1,8(a4)
     26a:	00b703a3          	sb	a1,7(a4)
     26e:	00b70323          	sb	a1,6(a4)
     272:	00b702a3          	sb	a1,5(a4)
     276:	00b70223          	sb	a1,4(a4)
     27a:	00b701a3          	sb	a1,3(a4)
     27e:	00b70123          	sb	a1,2(a4)
     282:	00b700a3          	sb	a1,1(a4)
     286:	00b70023          	sb	a1,0(a4)
     28a:	8082                	ret
     28c:	0ff5f593          	andi	a1,a1,255
     290:	00859693          	slli	a3,a1,0x8
     294:	8dd5                	or	a1,a1,a3
     296:	01059693          	slli	a3,a1,0x10
     29a:	8dd5                	or	a1,a1,a3
     29c:	b761                	j	224 <memset+0x10>
     29e:	00279693          	slli	a3,a5,0x2
     2a2:	00000297          	auipc	t0,0x0
     2a6:	9696                	add	a3,a3,t0
     2a8:	8286                	mv	t0,ra
     2aa:	fa8680e7          	jalr	-88(a3)
     2ae:	8096                	mv	ra,t0
     2b0:	17c1                	addi	a5,a5,-16
     2b2:	8f1d                	sub	a4,a4,a5
     2b4:	963e                	add	a2,a2,a5
     2b6:	f8c374e3          	bgeu	t1,a2,23e <memset+0x2a>
     2ba:	b7a5                	j	222 <memset+0xe>

000002bc <system_delay>:
system_delay():
C:/Users/86158/Desktop/IEECS-Design/Hardware/Reference/CHV307_Library-master/Example/libraries/zf_driver/zf_driver_delay.c:28
//  @param      time                us
//  @return     void
//  Sample usage:                   内部使用，用户无需关心
//-------------------------------------------------------------------------------------------------------------------
void system_delay(uint64_t time)
{
     2bc:	1101                	addi	sp,sp,-32
     2be:	ce22                	sw	s0,28(sp)
     2c0:	1000                	addi	s0,sp,32
     2c2:	fea42423          	sw	a0,-24(s0)
     2c6:	feb42623          	sw	a1,-20(s0)
C:/Users/86158/Desktop/IEECS-Design/Hardware/Reference/CHV307_Library-master/Example/libraries/zf_driver/zf_driver_delay.c:29
    SysTick->CTLR = 0;
     2ca:	e000f7b7          	lui	a5,0xe000f
     2ce:	0007a023          	sw	zero,0(a5) # e000f000 <_eusrstack+0xbffff000>
C:/Users/86158/Desktop/IEECS-Design/Hardware/Reference/CHV307_Library-master/Example/libraries/zf_driver/zf_driver_delay.c:30
    SysTick->CNT  = 0;
     2d2:	e000f7b7          	lui	a5,0xe000f
     2d6:	4681                	li	a3,0
     2d8:	4701                	li	a4,0
     2da:	c794                	sw	a3,8(a5)
     2dc:	c7d8                	sw	a4,12(a5)
C:/Users/86158/Desktop/IEECS-Design/Hardware/Reference/CHV307_Library-master/Example/libraries/zf_driver/zf_driver_delay.c:31
    SysTick->CTLR = 1;          //启动系统计数器 systick（HCLK/8 时基） us
     2de:	e000f7b7          	lui	a5,0xe000f
     2e2:	4705                	li	a4,1
     2e4:	c398                	sw	a4,0(a5)
C:/Users/86158/Desktop/IEECS-Design/Hardware/Reference/CHV307_Library-master/Example/libraries/zf_driver/zf_driver_delay.c:34

    //while((*(volatile uint32*)0xE000F004) <= time);
    while(SysTick->CNT <= time);
     2e6:	0001                	nop
C:/Users/86158/Desktop/IEECS-Design/Hardware/Reference/CHV307_Library-master/Example/libraries/zf_driver/zf_driver_delay.c:34 (discriminator 1)
     2e8:	e000f7b7          	lui	a5,0xe000f
     2ec:	00c7a803          	lw	a6,12(a5) # e000f00c <_eusrstack+0xbffff00c>
     2f0:	479c                	lw	a5,8(a5)
     2f2:	fec42703          	lw	a4,-20(s0)
     2f6:	86c2                	mv	a3,a6
     2f8:	00d76c63          	bltu	a4,a3,310 <system_delay+0x54>
     2fc:	fec42703          	lw	a4,-20(s0)
     300:	86c2                	mv	a3,a6
     302:	fed713e3          	bne	a4,a3,2e8 <system_delay+0x2c>
     306:	fe842703          	lw	a4,-24(s0)
     30a:	00f76363          	bltu	a4,a5,310 <system_delay+0x54>
     30e:	bfe9                	j	2e8 <system_delay+0x2c>
C:/Users/86158/Desktop/IEECS-Design/Hardware/Reference/CHV307_Library-master/Example/libraries/zf_driver/zf_driver_delay.c:36

}
     310:	0001                	nop
     312:	4472                	lw	s0,28(sp)
     314:	6105                	addi	sp,sp,32
     316:	8082                	ret

00000318 <encoder_gpio_init>:
encoder_gpio_init():
C:/Users/86158/Desktop/IEECS-Design/Hardware/Reference/CHV307_Library-master/Example/libraries/zf_driver/zf_driver_encoder.c:35
//  @param      phaseB      通道B以及引脚
//  @return     void
//  Sample usage:           内部使用，用户无需关心
//-------------------------------------------------------------------------------------------------------------------
void encoder_gpio_init(gpio_pin_enum pin_ch1, gpio_pin_enum pin_ch2)
{
     318:	1101                	addi	sp,sp,-32
     31a:	ce06                	sw	ra,28(sp)
     31c:	cc22                	sw	s0,24(sp)
     31e:	1000                	addi	s0,sp,32
     320:	fea42623          	sw	a0,-20(s0)
     324:	feb42423          	sw	a1,-24(s0)
C:/Users/86158/Desktop/IEECS-Design/Hardware/Reference/CHV307_Library-master/Example/libraries/zf_driver/zf_driver_encoder.c:36
    gpio_init(pin_ch1, GPI, 0, GPI_PULL_UP);
     328:	04800693          	li	a3,72
     32c:	4601                	li	a2,0
     32e:	4581                	li	a1,0
     330:	fec42503          	lw	a0,-20(s0)
     334:	218d                	jal	796 <gpio_init>
C:/Users/86158/Desktop/IEECS-Design/Hardware/Reference/CHV307_Library-master/Example/libraries/zf_driver/zf_driver_encoder.c:37
    gpio_init(pin_ch2, GPI, 0, GPI_PULL_UP);
     336:	04800693          	li	a3,72
     33a:	4601                	li	a2,0
     33c:	4581                	li	a1,0
     33e:	fe842503          	lw	a0,-24(s0)
     342:	2991                	jal	796 <gpio_init>
C:/Users/86158/Desktop/IEECS-Design/Hardware/Reference/CHV307_Library-master/Example/libraries/zf_driver/zf_driver_encoder.c:38
}
     344:	0001                	nop
     346:	40f2                	lw	ra,28(sp)
     348:	4462                	lw	s0,24(sp)
     34a:	6105                	addi	sp,sp,32
     34c:	8082                	ret

0000034e <encoder_get_count>:
encoder_get_count():
C:/Users/86158/Desktop/IEECS-Design/Hardware/Reference/CHV307_Library-master/Example/libraries/zf_driver/zf_driver_encoder.c:48
//  @return     void
//  Sample usage:
//                  encoder_get_count(TIM2_ENCOEDER)  // 获取定时器2的采集到的编码器数据
//-------------------------------------------------------------------------------------------------------------------
int16 encoder_get_count(encoder_index_enum encoder_n)
{
     34e:	7179                	addi	sp,sp,-48
     350:	d622                	sw	s0,44(sp)
     352:	1800                	addi	s0,sp,48
     354:	fca42e23          	sw	a0,-36(s0)
C:/Users/86158/Desktop/IEECS-Design/Hardware/Reference/CHV307_Library-master/Example/libraries/zf_driver/zf_driver_encoder.c:51
//    if(encoder_dir_pin[encoder_n] == 0xFF)
//    {
    int16 count = ((TIM_TypeDef*)tim_index[encoder_n])->CNT;
     358:	67a5                	lui	a5,0x9
     35a:	fdc42703          	lw	a4,-36(s0)
     35e:	070a                	slli	a4,a4,0x2
     360:	58878793          	addi	a5,a5,1416 # 9588 <tim_index>
     364:	97ba                	add	a5,a5,a4
     366:	439c                	lw	a5,0(a5)
     368:	0247d783          	lhu	a5,36(a5)
     36c:	07c2                	slli	a5,a5,0x10
     36e:	83c1                	srli	a5,a5,0x10
     370:	fef41723          	sh	a5,-18(s0)
C:/Users/86158/Desktop/IEECS-Design/Hardware/Reference/CHV307_Library-master/Example/libraries/zf_driver/zf_driver_encoder.c:52
    return count;
     374:	fee41783          	lh	a5,-18(s0)
C:/Users/86158/Desktop/IEECS-Design/Hardware/Reference/CHV307_Library-master/Example/libraries/zf_driver/zf_driver_encoder.c:61
//        if(gpio_get_level(encoder_dir_pin[encoder_n]))                  // 方向引脚高电平
//            return (uint16)((TIM_TypeDef*)tim_index[encoder_n])->CNT;                                 // 返回正数值
//        else                                                            // 方向引脚低电平
//            return -((uint16)((TIM_TypeDef*)tim_index[encoder_n])->CNT);                              // 返回负数值
//    }
}
     378:	853e                	mv	a0,a5
     37a:	5432                	lw	s0,44(sp)
     37c:	6145                	addi	sp,sp,48
     37e:	8082                	ret

00000380 <encoder_clear_count>:
encoder_clear_count():
C:/Users/86158/Desktop/IEECS-Design/Hardware/Reference/CHV307_Library-master/Example/libraries/zf_driver/zf_driver_encoder.c:71
//  @return     void
//  Sample usage:
//                  encoder_clear_count(TIM1_ENCOEDER)  //清除定时器1采集到的编码器数据
//-------------------------------------------------------------------------------------------------------------------
void encoder_clear_count(encoder_index_enum encoder_n)
{
     380:	1101                	addi	sp,sp,-32
     382:	ce22                	sw	s0,28(sp)
     384:	1000                	addi	s0,sp,32
     386:	fea42623          	sw	a0,-20(s0)
C:/Users/86158/Desktop/IEECS-Design/Hardware/Reference/CHV307_Library-master/Example/libraries/zf_driver/zf_driver_encoder.c:72
    ((TIM_TypeDef*)tim_index[encoder_n])->CNT = 0;
     38a:	67a5                	lui	a5,0x9
     38c:	fec42703          	lw	a4,-20(s0)
     390:	070a                	slli	a4,a4,0x2
     392:	58878793          	addi	a5,a5,1416 # 9588 <tim_index>
     396:	97ba                	add	a5,a5,a4
     398:	439c                	lw	a5,0(a5)
     39a:	02079223          	sh	zero,36(a5)
C:/Users/86158/Desktop/IEECS-Design/Hardware/Reference/CHV307_Library-master/Example/libraries/zf_driver/zf_driver_encoder.c:73
}
     39e:	0001                	nop
     3a0:	4472                	lw	s0,28(sp)
     3a2:	6105                	addi	sp,sp,32
     3a4:	8082                	ret

000003a6 <encoder_init_quad>:
encoder_init_quad():
C:/Users/86158/Desktop/IEECS-Design/Hardware/Reference/CHV307_Library-master/Example/libraries/zf_driver/zf_driver_encoder.c:86
//  Sample usage:           推荐使用正交解码编码器。
//                          encoder_init_quad(TIM1_ENCOEDER, TIM1_CH1_ENCOEDER_E9, TIM1_CH2_ENCOEDER_E11)
//                          // 使用定时器1 做正交编码器解码， 通道1引脚号E9，通道2引脚号E11
//-------------------------------------------------------------------------------------------------------------------
void encoder_init_quad(encoder_index_enum encoder_n, encoder_channel_enum ch1_pin, encoder_channel_enum ch2_pin)
{
     3a6:	7179                	addi	sp,sp,-48
     3a8:	d606                	sw	ra,44(sp)
     3aa:	d422                	sw	s0,40(sp)
     3ac:	1800                	addi	s0,sp,48
     3ae:	fca42e23          	sw	a0,-36(s0)
     3b2:	fcb42c23          	sw	a1,-40(s0)
     3b6:	fcc42a23          	sw	a2,-44(s0)
C:/Users/86158/Desktop/IEECS-Design/Hardware/Reference/CHV307_Library-master/Example/libraries/zf_driver/zf_driver_encoder.c:87
    zf_assert(timer_funciton_check((timer_index_enum)encoder_n, TIMER_FUNCTION_ENCODER));
     3ba:	4591                	li	a1,4
     3bc:	fdc42503          	lw	a0,-36(s0)
     3c0:	2ba5                	jal	938 <timer_funciton_check>
     3c2:	87aa                	mv	a5,a0
     3c4:	873e                	mv	a4,a5
     3c6:	05700613          	li	a2,87
     3ca:	67a5                	lui	a5,0x9
     3cc:	41078593          	addi	a1,a5,1040 # 9410 <_sbrk+0x22>
     3d0:	853a                	mv	a0,a4
     3d2:	76a010ef          	jal	ra,1b3c <debug_assert_handler>
C:/Users/86158/Desktop/IEECS-Design/Hardware/Reference/CHV307_Library-master/Example/libraries/zf_driver/zf_driver_encoder.c:91

    TIM_TimeBaseInitTypeDef TIM_TimeBaseStructure;

    timer_clock_enable(encoder_n);
     3d6:	fdc42503          	lw	a0,-36(s0)
     3da:	2b5d                	jal	990 <timer_clock_enable>
C:/Users/86158/Desktop/IEECS-Design/Hardware/Reference/CHV307_Library-master/Example/libraries/zf_driver/zf_driver_encoder.c:93

    encoder_gpio_init((gpio_pin_enum)(ch1_pin & 0xFF), (gpio_pin_enum)(ch2_pin & 0xFF));                                            //初始化引脚
     3dc:	fd842783          	lw	a5,-40(s0)
     3e0:	0ff7f713          	andi	a4,a5,255
     3e4:	fd442783          	lw	a5,-44(s0)
     3e8:	0ff7f793          	andi	a5,a5,255
     3ec:	85be                	mv	a1,a5
     3ee:	853a                	mv	a0,a4
     3f0:	3725                	jal	318 <encoder_gpio_init>
C:/Users/86158/Desktop/IEECS-Design/Hardware/Reference/CHV307_Library-master/Example/libraries/zf_driver/zf_driver_encoder.c:95

    if((ch1_pin >> 8) == 0x01)      GPIO_PinRemapConfig(GPIO_FullRemap_TIM1, ENABLE);
     3f2:	fd842783          	lw	a5,-40(s0)
     3f6:	0087d713          	srli	a4,a5,0x8
     3fa:	4785                	li	a5,1
     3fc:	00f71a63          	bne	a4,a5,410 <encoder_init_quad+0x6a>
C:/Users/86158/Desktop/IEECS-Design/Hardware/Reference/CHV307_Library-master/Example/libraries/zf_driver/zf_driver_encoder.c:95 (discriminator 1)
     400:	4585                	li	a1,1
     402:	001607b7          	lui	a5,0x160
     406:	0c078513          	addi	a0,a5,192 # 1600c0 <_data_lma+0x1564e4>
     40a:	4aa020ef          	jal	ra,28b4 <GPIO_PinRemapConfig>
     40e:	a201                	j	50e <encoder_init_quad+0x168>
C:/Users/86158/Desktop/IEECS-Design/Hardware/Reference/CHV307_Library-master/Example/libraries/zf_driver/zf_driver_encoder.c:96
    else if((ch1_pin >> 8) == 0x11) GPIO_PinRemapConfig(GPIO_FullRemap_TIM2, ENABLE);
     410:	fd842783          	lw	a5,-40(s0)
     414:	0087d713          	srli	a4,a5,0x8
     418:	47c5                	li	a5,17
     41a:	00f71a63          	bne	a4,a5,42e <encoder_init_quad+0x88>
C:/Users/86158/Desktop/IEECS-Design/Hardware/Reference/CHV307_Library-master/Example/libraries/zf_driver/zf_driver_encoder.c:96 (discriminator 1)
     41e:	4585                	li	a1,1
     420:	001807b7          	lui	a5,0x180
     424:	30078513          	addi	a0,a5,768 # 180300 <_data_lma+0x176724>
     428:	48c020ef          	jal	ra,28b4 <GPIO_PinRemapConfig>
     42c:	a0cd                	j	50e <encoder_init_quad+0x168>
C:/Users/86158/Desktop/IEECS-Design/Hardware/Reference/CHV307_Library-master/Example/libraries/zf_driver/zf_driver_encoder.c:97
    else if((ch1_pin >> 8) == 0x21) GPIO_PinRemapConfig(GPIO_FullRemap_TIM3, ENABLE);
     42e:	fd842783          	lw	a5,-40(s0)
     432:	0087d713          	srli	a4,a5,0x8
     436:	02100793          	li	a5,33
     43a:	00f71a63          	bne	a4,a5,44e <encoder_init_quad+0xa8>
C:/Users/86158/Desktop/IEECS-Design/Hardware/Reference/CHV307_Library-master/Example/libraries/zf_driver/zf_driver_encoder.c:97 (discriminator 1)
     43e:	4585                	li	a1,1
     440:	001a17b7          	lui	a5,0x1a1
     444:	c0078513          	addi	a0,a5,-1024 # 1a0c00 <_data_lma+0x197024>
     448:	46c020ef          	jal	ra,28b4 <GPIO_PinRemapConfig>
     44c:	a0c9                	j	50e <encoder_init_quad+0x168>
C:/Users/86158/Desktop/IEECS-Design/Hardware/Reference/CHV307_Library-master/Example/libraries/zf_driver/zf_driver_encoder.c:98
    else if((ch1_pin >> 8) == 0x22) GPIO_PinRemapConfig(GPIO_PartialRemap_TIM3, ENABLE);
     44e:	fd842783          	lw	a5,-40(s0)
     452:	0087d713          	srli	a4,a5,0x8
     456:	02200793          	li	a5,34
     45a:	00f71a63          	bne	a4,a5,46e <encoder_init_quad+0xc8>
C:/Users/86158/Desktop/IEECS-Design/Hardware/Reference/CHV307_Library-master/Example/libraries/zf_driver/zf_driver_encoder.c:98 (discriminator 1)
     45e:	4585                	li	a1,1
     460:	001a17b7          	lui	a5,0x1a1
     464:	80078513          	addi	a0,a5,-2048 # 1a0800 <_data_lma+0x196c24>
     468:	44c020ef          	jal	ra,28b4 <GPIO_PinRemapConfig>
     46c:	a04d                	j	50e <encoder_init_quad+0x168>
C:/Users/86158/Desktop/IEECS-Design/Hardware/Reference/CHV307_Library-master/Example/libraries/zf_driver/zf_driver_encoder.c:99
    else if((ch1_pin >> 8) == 0x31) GPIO_PinRemapConfig(GPIO_Remap_TIM4, ENABLE);
     46e:	fd842783          	lw	a5,-40(s0)
     472:	0087d713          	srli	a4,a5,0x8
     476:	03100793          	li	a5,49
     47a:	00f71763          	bne	a4,a5,488 <encoder_init_quad+0xe2>
C:/Users/86158/Desktop/IEECS-Design/Hardware/Reference/CHV307_Library-master/Example/libraries/zf_driver/zf_driver_encoder.c:99 (discriminator 1)
     47e:	4585                	li	a1,1
     480:	6505                	lui	a0,0x1
     482:	432020ef          	jal	ra,28b4 <GPIO_PinRemapConfig>
     486:	a061                	j	50e <encoder_init_quad+0x168>
C:/Users/86158/Desktop/IEECS-Design/Hardware/Reference/CHV307_Library-master/Example/libraries/zf_driver/zf_driver_encoder.c:100
    else if((ch1_pin >> 8) == 0x71) AFIO->PCFR2 |= 0x01<<2;
     488:	fd842783          	lw	a5,-40(s0)
     48c:	0087d713          	srli	a4,a5,0x8
     490:	07100793          	li	a5,113
     494:	00f71b63          	bne	a4,a5,4aa <encoder_init_quad+0x104>
C:/Users/86158/Desktop/IEECS-Design/Hardware/Reference/CHV307_Library-master/Example/libraries/zf_driver/zf_driver_encoder.c:100 (discriminator 1)
     498:	400107b7          	lui	a5,0x40010
     49c:	4fd8                	lw	a4,28(a5)
     49e:	400107b7          	lui	a5,0x40010
     4a2:	00476713          	ori	a4,a4,4
     4a6:	cfd8                	sw	a4,28(a5)
     4a8:	a09d                	j	50e <encoder_init_quad+0x168>
C:/Users/86158/Desktop/IEECS-Design/Hardware/Reference/CHV307_Library-master/Example/libraries/zf_driver/zf_driver_encoder.c:101
    else if((ch1_pin >> 8) == 0x81) AFIO->PCFR2 |= 0x02<<3;
     4aa:	fd842783          	lw	a5,-40(s0)
     4ae:	0087d713          	srli	a4,a5,0x8
     4b2:	08100793          	li	a5,129
     4b6:	00f71b63          	bne	a4,a5,4cc <encoder_init_quad+0x126>
C:/Users/86158/Desktop/IEECS-Design/Hardware/Reference/CHV307_Library-master/Example/libraries/zf_driver/zf_driver_encoder.c:101 (discriminator 1)
     4ba:	400107b7          	lui	a5,0x40010
     4be:	4fd8                	lw	a4,28(a5)
     4c0:	400107b7          	lui	a5,0x40010
     4c4:	01076713          	ori	a4,a4,16
     4c8:	cfd8                	sw	a4,28(a5)
     4ca:	a091                	j	50e <encoder_init_quad+0x168>
C:/Users/86158/Desktop/IEECS-Design/Hardware/Reference/CHV307_Library-master/Example/libraries/zf_driver/zf_driver_encoder.c:102
    else if((ch1_pin >> 8) == 0x91) AFIO->PCFR2 |= 0x02<<5;
     4cc:	fd842783          	lw	a5,-40(s0)
     4d0:	0087d713          	srli	a4,a5,0x8
     4d4:	09100793          	li	a5,145
     4d8:	00f71b63          	bne	a4,a5,4ee <encoder_init_quad+0x148>
C:/Users/86158/Desktop/IEECS-Design/Hardware/Reference/CHV307_Library-master/Example/libraries/zf_driver/zf_driver_encoder.c:102 (discriminator 1)
     4dc:	400107b7          	lui	a5,0x40010
     4e0:	4fd8                	lw	a4,28(a5)
     4e2:	400107b7          	lui	a5,0x40010
     4e6:	04076713          	ori	a4,a4,64
     4ea:	cfd8                	sw	a4,28(a5)
     4ec:	a00d                	j	50e <encoder_init_quad+0x168>
C:/Users/86158/Desktop/IEECS-Design/Hardware/Reference/CHV307_Library-master/Example/libraries/zf_driver/zf_driver_encoder.c:103
    else if((ch1_pin >> 8) == 0x92) AFIO->PCFR2 |= 0x01<<5;
     4ee:	fd842783          	lw	a5,-40(s0)
     4f2:	0087d713          	srli	a4,a5,0x8
     4f6:	09200793          	li	a5,146
     4fa:	00f71a63          	bne	a4,a5,50e <encoder_init_quad+0x168>
C:/Users/86158/Desktop/IEECS-Design/Hardware/Reference/CHV307_Library-master/Example/libraries/zf_driver/zf_driver_encoder.c:103 (discriminator 1)
     4fe:	400107b7          	lui	a5,0x40010
     502:	4fd8                	lw	a4,28(a5)
     504:	400107b7          	lui	a5,0x40010
     508:	02076713          	ori	a4,a4,32
     50c:	cfd8                	sw	a4,28(a5)
C:/Users/86158/Desktop/IEECS-Design/Hardware/Reference/CHV307_Library-master/Example/libraries/zf_driver/zf_driver_encoder.c:105

    RCC_APB2PeriphClockCmd(RCC_APB2Periph_AFIO, ENABLE);                            //使能AFIO复用功能模块时钟
     50e:	4585                	li	a1,1
     510:	4505                	li	a0,1
     512:	7a8020ef          	jal	ra,2cba <RCC_APB2PeriphClockCmd>
C:/Users/86158/Desktop/IEECS-Design/Hardware/Reference/CHV307_Library-master/Example/libraries/zf_driver/zf_driver_encoder.c:107

    TIM_TimeBaseStructInit(&TIM_TimeBaseStructure);
     516:	fe440793          	addi	a5,s0,-28
     51a:	853e                	mv	a0,a5
     51c:	1a9020ef          	jal	ra,2ec4 <TIM_TimeBaseStructInit>
C:/Users/86158/Desktop/IEECS-Design/Hardware/Reference/CHV307_Library-master/Example/libraries/zf_driver/zf_driver_encoder.c:108
    TIM_TimeBaseStructure.TIM_Prescaler = 0;                                        //预分频器
     520:	fe041223          	sh	zero,-28(s0)
C:/Users/86158/Desktop/IEECS-Design/Hardware/Reference/CHV307_Library-master/Example/libraries/zf_driver/zf_driver_encoder.c:109
    TIM_TimeBaseStructure.TIM_Period = 0xFFFF;                                      //设定计数器自动重装值
     524:	57fd                	li	a5,-1
     526:	fef41423          	sh	a5,-24(s0)
C:/Users/86158/Desktop/IEECS-Design/Hardware/Reference/CHV307_Library-master/Example/libraries/zf_driver/zf_driver_encoder.c:110
    TIM_TimeBaseStructure.TIM_ClockDivision = TIM_CKD_DIV1;                         //选择时钟分频：不分频
     52a:	fe041523          	sh	zero,-22(s0)
C:/Users/86158/Desktop/IEECS-Design/Hardware/Reference/CHV307_Library-master/Example/libraries/zf_driver/zf_driver_encoder.c:111
    TIM_TimeBaseStructure.TIM_CounterMode = TIM_CounterMode_Up;                     //TIM向上计数
     52e:	fe041323          	sh	zero,-26(s0)
C:/Users/86158/Desktop/IEECS-Design/Hardware/Reference/CHV307_Library-master/Example/libraries/zf_driver/zf_driver_encoder.c:112
    TIM_TimeBaseStructure.TIM_RepetitionCounter = 0;                                //重复计数器
     532:	fe040623          	sb	zero,-20(s0)
C:/Users/86158/Desktop/IEECS-Design/Hardware/Reference/CHV307_Library-master/Example/libraries/zf_driver/zf_driver_encoder.c:113
    TIM_TimeBaseInit((TIM_TypeDef*)tim_index[encoder_n], &TIM_TimeBaseStructure);       //初始化结构体
     536:	67a5                	lui	a5,0x9
     538:	fdc42703          	lw	a4,-36(s0)
     53c:	070a                	slli	a4,a4,0x2
     53e:	58878793          	addi	a5,a5,1416 # 9588 <tim_index>
     542:	97ba                	add	a5,a5,a4
     544:	439c                	lw	a5,0(a5)
     546:	873e                	mv	a4,a5
     548:	fe440793          	addi	a5,s0,-28
     54c:	85be                	mv	a1,a5
     54e:	853a                	mv	a0,a4
     550:	7f6020ef          	jal	ra,2d46 <TIM_TimeBaseInit>
C:/Users/86158/Desktop/IEECS-Design/Hardware/Reference/CHV307_Library-master/Example/libraries/zf_driver/zf_driver_encoder.c:114
    TIM_EncoderInterfaceConfig((TIM_TypeDef*)tim_index[encoder_n], TIM_EncoderMode_TI2 , TIM_ICPolarity_Rising, TIM_ICPolarity_Rising);//使用编码器模式
     554:	67a5                	lui	a5,0x9
     556:	fdc42703          	lw	a4,-36(s0)
     55a:	070a                	slli	a4,a4,0x2
     55c:	58878793          	addi	a5,a5,1416 # 9588 <tim_index>
     560:	97ba                	add	a5,a5,a4
     562:	439c                	lw	a5,0(a5)
     564:	4681                	li	a3,0
     566:	4601                	li	a2,0
     568:	4589                	li	a1,2
     56a:	853e                	mv	a0,a5
     56c:	281020ef          	jal	ra,2fec <TIM_EncoderInterfaceConfig>
C:/Users/86158/Desktop/IEECS-Design/Hardware/Reference/CHV307_Library-master/Example/libraries/zf_driver/zf_driver_encoder.c:116

    TIM_Cmd((TIM_TypeDef*)tim_index[encoder_n], ENABLE);                                //定时器使能
     570:	67a5                	lui	a5,0x9
     572:	fdc42703          	lw	a4,-36(s0)
     576:	070a                	slli	a4,a4,0x2
     578:	58878793          	addi	a5,a5,1416 # 9588 <tim_index>
     57c:	97ba                	add	a5,a5,a4
     57e:	439c                	lw	a5,0(a5)
     580:	4585                	li	a1,1
     582:	853e                	mv	a0,a5
     584:	17d020ef          	jal	ra,2f00 <TIM_Cmd>
C:/Users/86158/Desktop/IEECS-Design/Hardware/Reference/CHV307_Library-master/Example/libraries/zf_driver/zf_driver_encoder.c:117
}
     588:	0001                	nop
     58a:	50b2                	lw	ra,44(sp)
     58c:	5422                	lw	s0,40(sp)
     58e:	6145                	addi	sp,sp,48
     590:	8082                	ret

00000592 <encoder_init_dir>:
encoder_init_dir():
C:/Users/86158/Desktop/IEECS-Design/Hardware/Reference/CHV307_Library-master/Example/libraries/zf_driver/zf_driver_encoder.c:131
//  Sample usage:           推荐使用正交解码编码器。
//                          encoder_init_dir(TIM1_ENCOEDER, TIM1_CH1_ENCOEDER_E9, TIM1_CH2_ENCOEDER_E11)
//                          // 使用定时器1 做带方向的编码器解码， 通道1方向信号引脚E9，通道2脉冲信号引脚E11
//-------------------------------------------------------------------------------------------------------------------
void encoder_init_dir(encoder_index_enum encoder_n, encoder_channel_enum ch1_pin, encoder_channel_enum ch2_pin)
{
     592:	7179                	addi	sp,sp,-48
     594:	d606                	sw	ra,44(sp)
     596:	d422                	sw	s0,40(sp)
     598:	1800                	addi	s0,sp,48
     59a:	fca42e23          	sw	a0,-36(s0)
     59e:	fcb42c23          	sw	a1,-40(s0)
     5a2:	fcc42a23          	sw	a2,-44(s0)
C:/Users/86158/Desktop/IEECS-Design/Hardware/Reference/CHV307_Library-master/Example/libraries/zf_driver/zf_driver_encoder.c:132
    zf_assert(timer_funciton_check((timer_index_enum)encoder_n, TIMER_FUNCTION_ENCODER));
     5a6:	4591                	li	a1,4
     5a8:	fdc42503          	lw	a0,-36(s0)
     5ac:	2671                	jal	938 <timer_funciton_check>
     5ae:	87aa                	mv	a5,a0
     5b0:	873e                	mv	a4,a5
     5b2:	08400613          	li	a2,132
     5b6:	67a5                	lui	a5,0x9
     5b8:	41078593          	addi	a1,a5,1040 # 9410 <_sbrk+0x22>
     5bc:	853a                	mv	a0,a4
     5be:	57e010ef          	jal	ra,1b3c <debug_assert_handler>
C:/Users/86158/Desktop/IEECS-Design/Hardware/Reference/CHV307_Library-master/Example/libraries/zf_driver/zf_driver_encoder.c:136

    TIM_TimeBaseInitTypeDef TIM_TimeBaseStructure;

    timer_clock_enable(encoder_n);
     5c2:	fdc42503          	lw	a0,-36(s0)
     5c6:	26e9                	jal	990 <timer_clock_enable>
C:/Users/86158/Desktop/IEECS-Design/Hardware/Reference/CHV307_Library-master/Example/libraries/zf_driver/zf_driver_encoder.c:138

    encoder_gpio_init((gpio_pin_enum)(ch1_pin & 0xFF), (gpio_pin_enum)(ch2_pin & 0xFF));
     5c8:	fd842783          	lw	a5,-40(s0)
     5cc:	0ff7f713          	andi	a4,a5,255
     5d0:	fd442783          	lw	a5,-44(s0)
     5d4:	0ff7f793          	andi	a5,a5,255
     5d8:	85be                	mv	a1,a5
     5da:	853a                	mv	a0,a4
     5dc:	3b35                	jal	318 <encoder_gpio_init>
C:/Users/86158/Desktop/IEECS-Design/Hardware/Reference/CHV307_Library-master/Example/libraries/zf_driver/zf_driver_encoder.c:140

    encoder_dir_pin[encoder_n] = (ch1_pin &0xFF);           //将方向引脚号存入数组中
     5de:	fd842783          	lw	a5,-40(s0)
     5e2:	0ff7f713          	andi	a4,a5,255
     5e6:	200007b7          	lui	a5,0x20000
     5ea:	00078693          	mv	a3,a5
     5ee:	fdc42783          	lw	a5,-36(s0)
     5f2:	97b6                	add	a5,a5,a3
     5f4:	00e78023          	sb	a4,0(a5) # 20000000 <_data_vma>
C:/Users/86158/Desktop/IEECS-Design/Hardware/Reference/CHV307_Library-master/Example/libraries/zf_driver/zf_driver_encoder.c:142

    if((ch1_pin >> 8) == 0x01)      GPIO_PinRemapConfig(GPIO_FullRemap_TIM1, ENABLE);
     5f8:	fd842783          	lw	a5,-40(s0)
     5fc:	0087d713          	srli	a4,a5,0x8
     600:	4785                	li	a5,1
     602:	00f71a63          	bne	a4,a5,616 <encoder_init_dir+0x84>
C:/Users/86158/Desktop/IEECS-Design/Hardware/Reference/CHV307_Library-master/Example/libraries/zf_driver/zf_driver_encoder.c:142 (discriminator 1)
     606:	4585                	li	a1,1
     608:	001607b7          	lui	a5,0x160
     60c:	0c078513          	addi	a0,a5,192 # 1600c0 <_data_lma+0x1564e4>
     610:	2a4020ef          	jal	ra,28b4 <GPIO_PinRemapConfig>
     614:	a201                	j	714 <encoder_init_dir+0x182>
C:/Users/86158/Desktop/IEECS-Design/Hardware/Reference/CHV307_Library-master/Example/libraries/zf_driver/zf_driver_encoder.c:143
    else if((ch1_pin >> 8) == 0x11) GPIO_PinRemapConfig(GPIO_FullRemap_TIM2, ENABLE);
     616:	fd842783          	lw	a5,-40(s0)
     61a:	0087d713          	srli	a4,a5,0x8
     61e:	47c5                	li	a5,17
     620:	00f71a63          	bne	a4,a5,634 <encoder_init_dir+0xa2>
C:/Users/86158/Desktop/IEECS-Design/Hardware/Reference/CHV307_Library-master/Example/libraries/zf_driver/zf_driver_encoder.c:143 (discriminator 1)
     624:	4585                	li	a1,1
     626:	001807b7          	lui	a5,0x180
     62a:	30078513          	addi	a0,a5,768 # 180300 <_data_lma+0x176724>
     62e:	286020ef          	jal	ra,28b4 <GPIO_PinRemapConfig>
     632:	a0cd                	j	714 <encoder_init_dir+0x182>
C:/Users/86158/Desktop/IEECS-Design/Hardware/Reference/CHV307_Library-master/Example/libraries/zf_driver/zf_driver_encoder.c:144
    else if((ch1_pin >> 8) == 0x21) GPIO_PinRemapConfig(GPIO_FullRemap_TIM3, ENABLE);
     634:	fd842783          	lw	a5,-40(s0)
     638:	0087d713          	srli	a4,a5,0x8
     63c:	02100793          	li	a5,33
     640:	00f71a63          	bne	a4,a5,654 <encoder_init_dir+0xc2>
C:/Users/86158/Desktop/IEECS-Design/Hardware/Reference/CHV307_Library-master/Example/libraries/zf_driver/zf_driver_encoder.c:144 (discriminator 1)
     644:	4585                	li	a1,1
     646:	001a17b7          	lui	a5,0x1a1
     64a:	c0078513          	addi	a0,a5,-1024 # 1a0c00 <_data_lma+0x197024>
     64e:	266020ef          	jal	ra,28b4 <GPIO_PinRemapConfig>
     652:	a0c9                	j	714 <encoder_init_dir+0x182>
C:/Users/86158/Desktop/IEECS-Design/Hardware/Reference/CHV307_Library-master/Example/libraries/zf_driver/zf_driver_encoder.c:145
    else if((ch1_pin >> 8) == 0x22) GPIO_PinRemapConfig(GPIO_PartialRemap_TIM3, ENABLE);
     654:	fd842783          	lw	a5,-40(s0)
     658:	0087d713          	srli	a4,a5,0x8
     65c:	02200793          	li	a5,34
     660:	00f71a63          	bne	a4,a5,674 <encoder_init_dir+0xe2>
C:/Users/86158/Desktop/IEECS-Design/Hardware/Reference/CHV307_Library-master/Example/libraries/zf_driver/zf_driver_encoder.c:145 (discriminator 1)
     664:	4585                	li	a1,1
     666:	001a17b7          	lui	a5,0x1a1
     66a:	80078513          	addi	a0,a5,-2048 # 1a0800 <_data_lma+0x196c24>
     66e:	246020ef          	jal	ra,28b4 <GPIO_PinRemapConfig>
     672:	a04d                	j	714 <encoder_init_dir+0x182>
C:/Users/86158/Desktop/IEECS-Design/Hardware/Reference/CHV307_Library-master/Example/libraries/zf_driver/zf_driver_encoder.c:146
    else if((ch1_pin >> 8) == 0x31) GPIO_PinRemapConfig(GPIO_Remap_TIM4, ENABLE);
     674:	fd842783          	lw	a5,-40(s0)
     678:	0087d713          	srli	a4,a5,0x8
     67c:	03100793          	li	a5,49
     680:	00f71763          	bne	a4,a5,68e <encoder_init_dir+0xfc>
C:/Users/86158/Desktop/IEECS-Design/Hardware/Reference/CHV307_Library-master/Example/libraries/zf_driver/zf_driver_encoder.c:146 (discriminator 1)
     684:	4585                	li	a1,1
     686:	6505                	lui	a0,0x1
     688:	22c020ef          	jal	ra,28b4 <GPIO_PinRemapConfig>
     68c:	a061                	j	714 <encoder_init_dir+0x182>
C:/Users/86158/Desktop/IEECS-Design/Hardware/Reference/CHV307_Library-master/Example/libraries/zf_driver/zf_driver_encoder.c:147
    else if((ch1_pin >> 8) == 0x71) AFIO->PCFR2 |= 0x01<<2;
     68e:	fd842783          	lw	a5,-40(s0)
     692:	0087d713          	srli	a4,a5,0x8
     696:	07100793          	li	a5,113
     69a:	00f71b63          	bne	a4,a5,6b0 <encoder_init_dir+0x11e>
C:/Users/86158/Desktop/IEECS-Design/Hardware/Reference/CHV307_Library-master/Example/libraries/zf_driver/zf_driver_encoder.c:147 (discriminator 1)
     69e:	400107b7          	lui	a5,0x40010
     6a2:	4fd8                	lw	a4,28(a5)
     6a4:	400107b7          	lui	a5,0x40010
     6a8:	00476713          	ori	a4,a4,4
     6ac:	cfd8                	sw	a4,28(a5)
     6ae:	a09d                	j	714 <encoder_init_dir+0x182>
C:/Users/86158/Desktop/IEECS-Design/Hardware/Reference/CHV307_Library-master/Example/libraries/zf_driver/zf_driver_encoder.c:148
    else if((ch1_pin >> 8) == 0x81) AFIO->PCFR2 |= 0x02<<3;
     6b0:	fd842783          	lw	a5,-40(s0)
     6b4:	0087d713          	srli	a4,a5,0x8
     6b8:	08100793          	li	a5,129
     6bc:	00f71b63          	bne	a4,a5,6d2 <encoder_init_dir+0x140>
C:/Users/86158/Desktop/IEECS-Design/Hardware/Reference/CHV307_Library-master/Example/libraries/zf_driver/zf_driver_encoder.c:148 (discriminator 1)
     6c0:	400107b7          	lui	a5,0x40010
     6c4:	4fd8                	lw	a4,28(a5)
     6c6:	400107b7          	lui	a5,0x40010
     6ca:	01076713          	ori	a4,a4,16
     6ce:	cfd8                	sw	a4,28(a5)
     6d0:	a091                	j	714 <encoder_init_dir+0x182>
C:/Users/86158/Desktop/IEECS-Design/Hardware/Reference/CHV307_Library-master/Example/libraries/zf_driver/zf_driver_encoder.c:149
    else if((ch1_pin >> 8) == 0x91) AFIO->PCFR2 |= 0x02<<5;
     6d2:	fd842783          	lw	a5,-40(s0)
     6d6:	0087d713          	srli	a4,a5,0x8
     6da:	09100793          	li	a5,145
     6de:	00f71b63          	bne	a4,a5,6f4 <encoder_init_dir+0x162>
C:/Users/86158/Desktop/IEECS-Design/Hardware/Reference/CHV307_Library-master/Example/libraries/zf_driver/zf_driver_encoder.c:149 (discriminator 1)
     6e2:	400107b7          	lui	a5,0x40010
     6e6:	4fd8                	lw	a4,28(a5)
     6e8:	400107b7          	lui	a5,0x40010
     6ec:	04076713          	ori	a4,a4,64
     6f0:	cfd8                	sw	a4,28(a5)
     6f2:	a00d                	j	714 <encoder_init_dir+0x182>
C:/Users/86158/Desktop/IEECS-Design/Hardware/Reference/CHV307_Library-master/Example/libraries/zf_driver/zf_driver_encoder.c:150
    else if((ch1_pin >> 8) == 0x92) AFIO->PCFR2 |= 0x01<<5;
     6f4:	fd842783          	lw	a5,-40(s0)
     6f8:	0087d713          	srli	a4,a5,0x8
     6fc:	09200793          	li	a5,146
     700:	00f71a63          	bne	a4,a5,714 <encoder_init_dir+0x182>
C:/Users/86158/Desktop/IEECS-Design/Hardware/Reference/CHV307_Library-master/Example/libraries/zf_driver/zf_driver_encoder.c:150 (discriminator 1)
     704:	400107b7          	lui	a5,0x40010
     708:	4fd8                	lw	a4,28(a5)
     70a:	400107b7          	lui	a5,0x40010
     70e:	02076713          	ori	a4,a4,32
     712:	cfd8                	sw	a4,28(a5)
C:/Users/86158/Desktop/IEECS-Design/Hardware/Reference/CHV307_Library-master/Example/libraries/zf_driver/zf_driver_encoder.c:152

    RCC_APB2PeriphClockCmd(RCC_APB2Periph_AFIO, ENABLE);                                    //使能AFIO复用功能模块时钟
     714:	4585                	li	a1,1
     716:	4505                	li	a0,1
     718:	5a2020ef          	jal	ra,2cba <RCC_APB2PeriphClockCmd>
C:/Users/86158/Desktop/IEECS-Design/Hardware/Reference/CHV307_Library-master/Example/libraries/zf_driver/zf_driver_encoder.c:154

    TIM_TimeBaseStructInit(&TIM_TimeBaseStructure);
     71c:	fe440793          	addi	a5,s0,-28
     720:	853e                	mv	a0,a5
     722:	7a2020ef          	jal	ra,2ec4 <TIM_TimeBaseStructInit>
C:/Users/86158/Desktop/IEECS-Design/Hardware/Reference/CHV307_Library-master/Example/libraries/zf_driver/zf_driver_encoder.c:155
    TIM_TimeBaseStructure.TIM_Prescaler = 0;                                                //预分频器
     726:	fe041223          	sh	zero,-28(s0)
C:/Users/86158/Desktop/IEECS-Design/Hardware/Reference/CHV307_Library-master/Example/libraries/zf_driver/zf_driver_encoder.c:156
    TIM_TimeBaseStructure.TIM_Period = 0xFFFF;                                              //设定计数器自动重装值
     72a:	57fd                	li	a5,-1
     72c:	fef41423          	sh	a5,-24(s0)
C:/Users/86158/Desktop/IEECS-Design/Hardware/Reference/CHV307_Library-master/Example/libraries/zf_driver/zf_driver_encoder.c:157
    TIM_TimeBaseStructure.TIM_ClockDivision = TIM_CKD_DIV1;                                 //选择时钟分频：不分频
     730:	fe041523          	sh	zero,-22(s0)
C:/Users/86158/Desktop/IEECS-Design/Hardware/Reference/CHV307_Library-master/Example/libraries/zf_driver/zf_driver_encoder.c:158
    TIM_TimeBaseStructure.TIM_CounterMode = TIM_CounterMode_Up;                             //TIM向上计数
     734:	fe041323          	sh	zero,-26(s0)
C:/Users/86158/Desktop/IEECS-Design/Hardware/Reference/CHV307_Library-master/Example/libraries/zf_driver/zf_driver_encoder.c:159
    TIM_TimeBaseStructure.TIM_RepetitionCounter = 0;                                        //重复计数器
     738:	fe040623          	sb	zero,-20(s0)
C:/Users/86158/Desktop/IEECS-Design/Hardware/Reference/CHV307_Library-master/Example/libraries/zf_driver/zf_driver_encoder.c:160
    TIM_TimeBaseInit((TIM_TypeDef*)tim_index[encoder_n], &TIM_TimeBaseStructure);           //初始化结构体
     73c:	67a5                	lui	a5,0x9
     73e:	fdc42703          	lw	a4,-36(s0)
     742:	070a                	slli	a4,a4,0x2
     744:	58878793          	addi	a5,a5,1416 # 9588 <tim_index>
     748:	97ba                	add	a5,a5,a4
     74a:	439c                	lw	a5,0(a5)
     74c:	873e                	mv	a4,a5
     74e:	fe440793          	addi	a5,s0,-28
     752:	85be                	mv	a1,a5
     754:	853a                	mv	a0,a4
     756:	5f0020ef          	jal	ra,2d46 <TIM_TimeBaseInit>
C:/Users/86158/Desktop/IEECS-Design/Hardware/Reference/CHV307_Library-master/Example/libraries/zf_driver/zf_driver_encoder.c:162

    TIM_ITRxExternalClockConfig((TIM_TypeDef*)tim_index[encoder_n], TIM_TS_TI2FP2);          //配置外部触发，否则不会计数
     75a:	67a5                	lui	a5,0x9
     75c:	fdc42703          	lw	a4,-36(s0)
     760:	070a                	slli	a4,a4,0x2
     762:	58878793          	addi	a5,a5,1416 # 9588 <tim_index>
     766:	97ba                	add	a5,a5,a4
     768:	439c                	lw	a5,0(a5)
     76a:	06000593          	li	a1,96
     76e:	853e                	mv	a0,a5
     770:	7e8020ef          	jal	ra,2f58 <TIM_ITRxExternalClockConfig>
C:/Users/86158/Desktop/IEECS-Design/Hardware/Reference/CHV307_Library-master/Example/libraries/zf_driver/zf_driver_encoder.c:164

    TIM_Cmd((TIM_TypeDef*)tim_index[encoder_n], ENABLE);                                    //定时器使能
     774:	67a5                	lui	a5,0x9
     776:	fdc42703          	lw	a4,-36(s0)
     77a:	070a                	slli	a4,a4,0x2
     77c:	58878793          	addi	a5,a5,1416 # 9588 <tim_index>
     780:	97ba                	add	a5,a5,a4
     782:	439c                	lw	a5,0(a5)
     784:	4585                	li	a1,1
     786:	853e                	mv	a0,a5
     788:	778020ef          	jal	ra,2f00 <TIM_Cmd>
C:/Users/86158/Desktop/IEECS-Design/Hardware/Reference/CHV307_Library-master/Example/libraries/zf_driver/zf_driver_encoder.c:165
}
     78c:	0001                	nop
     78e:	50b2                	lw	ra,44(sp)
     790:	5422                	lw	s0,40(sp)
     792:	6145                	addi	sp,sp,48
     794:	8082                	ret

00000796 <gpio_init>:
gpio_init():
C:/Users/86158/Desktop/IEECS-Design/Hardware/Reference/CHV307_Library-master/Example/libraries/zf_driver/zf_driver_gpio.c:80
//  @param      pinconf     引脚配置（可设置参数由zf_gpio.h文件内GPIOSPEED_enum与GPIOMODE_enum枚举值确定，多个条件使用 | 相或）
//  @return     void
//  Sample usage:           gpio_init(D0, GPO, 1, GPIO_PIN_CONFIG);//D0初始化为GPIO功能、输出模式、输出高电平、速度100MHZ 推挽输出
//-------------------------------------------------------------------------------------------------------------------
void gpio_init(gpio_pin_enum gpio_pin, gpio_dir_enum gpio_dir, gpio_level_enum dat, uint32 pinconf)
{
     796:	7179                	addi	sp,sp,-48
     798:	d606                	sw	ra,44(sp)
     79a:	d422                	sw	s0,40(sp)
     79c:	1800                	addi	s0,sp,48
     79e:	fca42e23          	sw	a0,-36(s0)
     7a2:	fcb42c23          	sw	a1,-40(s0)
     7a6:	fcc42a23          	sw	a2,-44(s0)
     7aa:	fcd42823          	sw	a3,-48(s0)
C:/Users/86158/Desktop/IEECS-Design/Hardware/Reference/CHV307_Library-master/Example/libraries/zf_driver/zf_driver_gpio.c:81
    GPIO_InitTypeDef GPIO_InitStructure = {0};
     7ae:	fe042023          	sw	zero,-32(s0)
     7b2:	fe042223          	sw	zero,-28(s0)
     7b6:	fe042423          	sw	zero,-24(s0)
C:/Users/86158/Desktop/IEECS-Design/Hardware/Reference/CHV307_Library-master/Example/libraries/zf_driver/zf_driver_gpio.c:82
    uint8 io_group = (gpio_pin & 0xF0) >> 5;
     7ba:	fdc42783          	lw	a5,-36(s0)
     7be:	8395                	srli	a5,a5,0x5
     7c0:	0ff7f793          	andi	a5,a5,255
     7c4:	8b9d                	andi	a5,a5,7
     7c6:	fef407a3          	sb	a5,-17(s0)
C:/Users/86158/Desktop/IEECS-Design/Hardware/Reference/CHV307_Library-master/Example/libraries/zf_driver/zf_driver_gpio.c:83
    uint8 io_pin = gpio_pin & 0x0F;
     7ca:	fdc42783          	lw	a5,-36(s0)
     7ce:	0ff7f793          	andi	a5,a5,255
     7d2:	8bbd                	andi	a5,a5,15
     7d4:	fef40723          	sb	a5,-18(s0)
C:/Users/86158/Desktop/IEECS-Design/Hardware/Reference/CHV307_Library-master/Example/libraries/zf_driver/zf_driver_gpio.c:87

    //GPIO_DeInit((GPIO_TypeDef *)(GPION[io_group]));
    //  空引脚则返回
    if(PIN_NULL == gpio_pin) return;
     7d8:	fdc42703          	lw	a4,-36(s0)
     7dc:	0ff00793          	li	a5,255
     7e0:	14f70563          	beq	a4,a5,92a <__stack_size+0x12a>
C:/Users/86158/Desktop/IEECS-Design/Hardware/Reference/CHV307_Library-master/Example/libraries/zf_driver/zf_driver_gpio.c:88
    if(SPI_CS_NULL == gpio_pin) return;
     7e4:	fdc42703          	lw	a4,-36(s0)
     7e8:	0ff00793          	li	a5,255
     7ec:	14f70163          	beq	a4,a5,92e <__stack_size+0x12e>
C:/Users/86158/Desktop/IEECS-Design/Hardware/Reference/CHV307_Library-master/Example/libraries/zf_driver/zf_driver_gpio.c:91

    //  GPIO总线使能
    if(0 == io_group)      RCC_APB2PeriphClockCmd(RCC_APB2Periph_GPIOA, ENABLE);
     7f0:	fef44783          	lbu	a5,-17(s0)
     7f4:	e791                	bnez	a5,800 <__stack_size>
C:/Users/86158/Desktop/IEECS-Design/Hardware/Reference/CHV307_Library-master/Example/libraries/zf_driver/zf_driver_gpio.c:91 (discriminator 1)
     7f6:	4585                	li	a1,1
     7f8:	4511                	li	a0,4
     7fa:	4c0020ef          	jal	ra,2cba <RCC_APB2PeriphClockCmd>
     7fe:	a041                	j	87e <__stack_size+0x7e>
C:/Users/86158/Desktop/IEECS-Design/Hardware/Reference/CHV307_Library-master/Example/libraries/zf_driver/zf_driver_gpio.c:92
    else if(1 == io_group) RCC_APB2PeriphClockCmd(RCC_APB2Periph_GPIOB, ENABLE);
     800:	fef44703          	lbu	a4,-17(s0)
     804:	4785                	li	a5,1
     806:	00f71763          	bne	a4,a5,814 <__stack_size+0x14>
C:/Users/86158/Desktop/IEECS-Design/Hardware/Reference/CHV307_Library-master/Example/libraries/zf_driver/zf_driver_gpio.c:92 (discriminator 1)
     80a:	4585                	li	a1,1
     80c:	4521                	li	a0,8
     80e:	4ac020ef          	jal	ra,2cba <RCC_APB2PeriphClockCmd>
     812:	a0b5                	j	87e <__stack_size+0x7e>
C:/Users/86158/Desktop/IEECS-Design/Hardware/Reference/CHV307_Library-master/Example/libraries/zf_driver/zf_driver_gpio.c:93
    else if(2 == io_group) RCC_APB2PeriphClockCmd(RCC_APB2Periph_GPIOC, ENABLE);
     814:	fef44703          	lbu	a4,-17(s0)
     818:	4789                	li	a5,2
     81a:	00f71763          	bne	a4,a5,828 <__stack_size+0x28>
C:/Users/86158/Desktop/IEECS-Design/Hardware/Reference/CHV307_Library-master/Example/libraries/zf_driver/zf_driver_gpio.c:93 (discriminator 1)
     81e:	4585                	li	a1,1
     820:	4541                	li	a0,16
     822:	498020ef          	jal	ra,2cba <RCC_APB2PeriphClockCmd>
     826:	a8a1                	j	87e <__stack_size+0x7e>
C:/Users/86158/Desktop/IEECS-Design/Hardware/Reference/CHV307_Library-master/Example/libraries/zf_driver/zf_driver_gpio.c:94
    else if(3 == io_group) RCC_APB2PeriphClockCmd(RCC_APB2Periph_GPIOD, ENABLE);
     828:	fef44703          	lbu	a4,-17(s0)
     82c:	478d                	li	a5,3
     82e:	00f71863          	bne	a4,a5,83e <__stack_size+0x3e>
C:/Users/86158/Desktop/IEECS-Design/Hardware/Reference/CHV307_Library-master/Example/libraries/zf_driver/zf_driver_gpio.c:94 (discriminator 1)
     832:	4585                	li	a1,1
     834:	02000513          	li	a0,32
     838:	482020ef          	jal	ra,2cba <RCC_APB2PeriphClockCmd>
     83c:	a089                	j	87e <__stack_size+0x7e>
C:/Users/86158/Desktop/IEECS-Design/Hardware/Reference/CHV307_Library-master/Example/libraries/zf_driver/zf_driver_gpio.c:95
    else if(4 == io_group) RCC_APB2PeriphClockCmd(RCC_APB2Periph_GPIOE, ENABLE);
     83e:	fef44703          	lbu	a4,-17(s0)
     842:	4791                	li	a5,4
     844:	00f71863          	bne	a4,a5,854 <__stack_size+0x54>
C:/Users/86158/Desktop/IEECS-Design/Hardware/Reference/CHV307_Library-master/Example/libraries/zf_driver/zf_driver_gpio.c:95 (discriminator 1)
     848:	4585                	li	a1,1
     84a:	04000513          	li	a0,64
     84e:	46c020ef          	jal	ra,2cba <RCC_APB2PeriphClockCmd>
     852:	a035                	j	87e <__stack_size+0x7e>
C:/Users/86158/Desktop/IEECS-Design/Hardware/Reference/CHV307_Library-master/Example/libraries/zf_driver/zf_driver_gpio.c:96
    else if(5 == io_group) RCC_APB2PeriphClockCmd(RCC_APB2Periph_GPIOF, ENABLE);
     854:	fef44703          	lbu	a4,-17(s0)
     858:	4795                	li	a5,5
     85a:	00f71863          	bne	a4,a5,86a <__stack_size+0x6a>
C:/Users/86158/Desktop/IEECS-Design/Hardware/Reference/CHV307_Library-master/Example/libraries/zf_driver/zf_driver_gpio.c:96 (discriminator 1)
     85e:	4585                	li	a1,1
     860:	08000513          	li	a0,128
     864:	456020ef          	jal	ra,2cba <RCC_APB2PeriphClockCmd>
     868:	a819                	j	87e <__stack_size+0x7e>
C:/Users/86158/Desktop/IEECS-Design/Hardware/Reference/CHV307_Library-master/Example/libraries/zf_driver/zf_driver_gpio.c:97
    else if(6 == io_group) RCC_APB2PeriphClockCmd(RCC_APB2Periph_GPIOG, ENABLE);
     86a:	fef44703          	lbu	a4,-17(s0)
     86e:	4799                	li	a5,6
     870:	00f71763          	bne	a4,a5,87e <__stack_size+0x7e>
C:/Users/86158/Desktop/IEECS-Design/Hardware/Reference/CHV307_Library-master/Example/libraries/zf_driver/zf_driver_gpio.c:97 (discriminator 1)
     874:	4585                	li	a1,1
     876:	10000513          	li	a0,256
     87a:	440020ef          	jal	ra,2cba <RCC_APB2PeriphClockCmd>
C:/Users/86158/Desktop/IEECS-Design/Hardware/Reference/CHV307_Library-master/Example/libraries/zf_driver/zf_driver_gpio.c:100

    //  设置引脚号
    GPIO_InitStructure.GPIO_Pin = (uint16)(1 << io_pin);
     87e:	fee44783          	lbu	a5,-18(s0)
     882:	4705                	li	a4,1
     884:	00f717b3          	sll	a5,a4,a5
     888:	07c2                	slli	a5,a5,0x10
     88a:	83c1                	srli	a5,a5,0x10
     88c:	fef41023          	sh	a5,-32(s0)
C:/Users/86158/Desktop/IEECS-Design/Hardware/Reference/CHV307_Library-master/Example/libraries/zf_driver/zf_driver_gpio.c:103

    //  只有输出需要设置速度
    if(GPO == gpio_dir)
     890:	fd842703          	lw	a4,-40(s0)
     894:	4785                	li	a5,1
     896:	02f71763          	bne	a4,a5,8c4 <__stack_size+0xc4>
C:/Users/86158/Desktop/IEECS-Design/Hardware/Reference/CHV307_Library-master/Example/libraries/zf_driver/zf_driver_gpio.c:105
    {
        if((uint16)pinconf >> 8 == 0) GPIO_InitStructure.GPIO_Speed = (GPIOSpeed_TypeDef)(GPIO_Speed_50MHz);            //防止没有填写这个参数,默认设置50Mhz
     89a:	fd042783          	lw	a5,-48(s0)
     89e:	07c2                	slli	a5,a5,0x10
     8a0:	83c1                	srli	a5,a5,0x10
     8a2:	83a1                	srli	a5,a5,0x8
     8a4:	07c2                	slli	a5,a5,0x10
     8a6:	83c1                	srli	a5,a5,0x10
     8a8:	e789                	bnez	a5,8b2 <__stack_size+0xb2>
C:/Users/86158/Desktop/IEECS-Design/Hardware/Reference/CHV307_Library-master/Example/libraries/zf_driver/zf_driver_gpio.c:105 (discriminator 1)
     8aa:	478d                	li	a5,3
     8ac:	fef42223          	sw	a5,-28(s0)
     8b0:	a811                	j	8c4 <__stack_size+0xc4>
C:/Users/86158/Desktop/IEECS-Design/Hardware/Reference/CHV307_Library-master/Example/libraries/zf_driver/zf_driver_gpio.c:106
        else GPIO_InitStructure.GPIO_Speed = (gpio_speed_enum)((uint16)pinconf >> 8);         //已经填写了该参数。根据值来设置
     8b2:	fd042783          	lw	a5,-48(s0)
     8b6:	07c2                	slli	a5,a5,0x10
     8b8:	83c1                	srli	a5,a5,0x10
     8ba:	83a1                	srli	a5,a5,0x8
     8bc:	07c2                	slli	a5,a5,0x10
     8be:	83c1                	srli	a5,a5,0x10
     8c0:	fef42223          	sw	a5,-28(s0)
C:/Users/86158/Desktop/IEECS-Design/Hardware/Reference/CHV307_Library-master/Example/libraries/zf_driver/zf_driver_gpio.c:110
    }

    //  设置模式
    GPIO_InitStructure.GPIO_Mode = (GPIOMode_TypeDef)((uint16)pinconf & 0xFF);
     8c4:	fd042783          	lw	a5,-48(s0)
     8c8:	07c2                	slli	a5,a5,0x10
     8ca:	83c1                	srli	a5,a5,0x10
     8cc:	0ff7f793          	andi	a5,a5,255
     8d0:	fef42423          	sw	a5,-24(s0)
C:/Users/86158/Desktop/IEECS-Design/Hardware/Reference/CHV307_Library-master/Example/libraries/zf_driver/zf_driver_gpio.c:111
    GPIO_Init((GPIO_TypeDef*)gpio_group[io_group], &GPIO_InitStructure);
     8d4:	fef44703          	lbu	a4,-17(s0)
     8d8:	67a5                	lui	a5,0x9
     8da:	070a                	slli	a4,a4,0x2
     8dc:	57478793          	addi	a5,a5,1396 # 9574 <gpio_group>
     8e0:	97ba                	add	a5,a5,a4
     8e2:	439c                	lw	a5,0(a5)
     8e4:	873e                	mv	a4,a5
     8e6:	fe040793          	addi	a5,s0,-32
     8ea:	85be                	mv	a1,a5
     8ec:	853a                	mv	a0,a4
     8ee:	565010ef          	jal	ra,2652 <GPIO_Init>
C:/Users/86158/Desktop/IEECS-Design/Hardware/Reference/CHV307_Library-master/Example/libraries/zf_driver/zf_driver_gpio.c:114

    //  只有输出需要设置引脚状态
    if(GPO == gpio_dir)
     8f2:	fd842703          	lw	a4,-40(s0)
     8f6:	4785                	li	a5,1
     8f8:	02f71c63          	bne	a4,a5,930 <__stack_size+0x130>
C:/Users/86158/Desktop/IEECS-Design/Hardware/Reference/CHV307_Library-master/Example/libraries/zf_driver/zf_driver_gpio.c:116
    {
        GPIO_WriteBit((GPIO_TypeDef*)gpio_group[io_group], (uint16)(1 << io_pin), dat);
     8fc:	fef44703          	lbu	a4,-17(s0)
     900:	67a5                	lui	a5,0x9
     902:	070a                	slli	a4,a4,0x2
     904:	57478793          	addi	a5,a5,1396 # 9574 <gpio_group>
     908:	97ba                	add	a5,a5,a4
     90a:	439c                	lw	a5,0(a5)
     90c:	86be                	mv	a3,a5
     90e:	fee44783          	lbu	a5,-18(s0)
     912:	4705                	li	a4,1
     914:	00f717b3          	sll	a5,a4,a5
     918:	07c2                	slli	a5,a5,0x10
     91a:	83c1                	srli	a5,a5,0x10
     91c:	fd442603          	lw	a2,-44(s0)
     920:	85be                	mv	a1,a5
     922:	8536                	mv	a0,a3
     924:	759010ef          	jal	ra,287c <GPIO_WriteBit>
     928:	a021                	j	930 <__stack_size+0x130>
C:/Users/86158/Desktop/IEECS-Design/Hardware/Reference/CHV307_Library-master/Example/libraries/zf_driver/zf_driver_gpio.c:87
    if(PIN_NULL == gpio_pin) return;
     92a:	0001                	nop
     92c:	a011                	j	930 <__stack_size+0x130>
C:/Users/86158/Desktop/IEECS-Design/Hardware/Reference/CHV307_Library-master/Example/libraries/zf_driver/zf_driver_gpio.c:88
    if(SPI_CS_NULL == gpio_pin) return;
     92e:	0001                	nop
C:/Users/86158/Desktop/IEECS-Design/Hardware/Reference/CHV307_Library-master/Example/libraries/zf_driver/zf_driver_gpio.c:118
    }
}
     930:	50b2                	lw	ra,44(sp)
     932:	5422                	lw	s0,40(sp)
     934:	6145                	addi	sp,sp,48
     936:	8082                	ret

00000938 <timer_funciton_check>:
timer_funciton_check():
C:/Users/86158/Desktop/IEECS-Design/Hardware/Reference/CHV307_Library-master/Example/libraries/zf_driver/zf_driver_timer.c:58
// @param       mode            需要确的功能模块
// @return      uint8         1-可以使用 0-不可以使用
// Sample usage:                zf_assert(timer_funciton_check(TIM_1, TIMER_FUNCTION_PWM);
//-------------------------------------------------------------------------------------------------------------------
uint8 timer_funciton_check (timer_index_enum index, timer_function_enum mode)
{
     938:	1101                	addi	sp,sp,-32
     93a:	ce22                	sw	s0,28(sp)
     93c:	1000                	addi	s0,sp,32
     93e:	fea42623          	sw	a0,-20(s0)
     942:	feb42423          	sw	a1,-24(s0)
C:/Users/86158/Desktop/IEECS-Design/Hardware/Reference/CHV307_Library-master/Example/libraries/zf_driver/zf_driver_timer.c:59
    if(timer_function_state[index] == TIMER_FUNCTION_INIT)
     946:	fec42703          	lw	a4,-20(s0)
     94a:	070a                	slli	a4,a4,0x2
     94c:	87c18793          	addi	a5,gp,-1924 # 200002ac <timer_function_state>
     950:	97ba                	add	a5,a5,a4
     952:	439c                	lw	a5,0(a5)
     954:	ef81                	bnez	a5,96c <timer_funciton_check+0x34>
C:/Users/86158/Desktop/IEECS-Design/Hardware/Reference/CHV307_Library-master/Example/libraries/zf_driver/zf_driver_timer.c:60
        timer_function_state[index] = mode;
     956:	fec42703          	lw	a4,-20(s0)
     95a:	070a                	slli	a4,a4,0x2
     95c:	87c18793          	addi	a5,gp,-1924 # 200002ac <timer_function_state>
     960:	97ba                	add	a5,a5,a4
     962:	fe842703          	lw	a4,-24(s0)
     966:	c398                	sw	a4,0(a5)
C:/Users/86158/Desktop/IEECS-Design/Hardware/Reference/CHV307_Library-master/Example/libraries/zf_driver/zf_driver_timer.c:65
    else if(timer_function_state[index] == mode)
        return 1;
    else
        return 0;
    return 1;
     968:	4785                	li	a5,1
     96a:	a839                	j	988 <timer_funciton_check+0x50>
C:/Users/86158/Desktop/IEECS-Design/Hardware/Reference/CHV307_Library-master/Example/libraries/zf_driver/zf_driver_timer.c:61
    else if(timer_function_state[index] == mode)
     96c:	fec42703          	lw	a4,-20(s0)
     970:	070a                	slli	a4,a4,0x2
     972:	87c18793          	addi	a5,gp,-1924 # 200002ac <timer_function_state>
     976:	97ba                	add	a5,a5,a4
     978:	439c                	lw	a5,0(a5)
     97a:	fe842703          	lw	a4,-24(s0)
     97e:	00f71463          	bne	a4,a5,986 <timer_funciton_check+0x4e>
C:/Users/86158/Desktop/IEECS-Design/Hardware/Reference/CHV307_Library-master/Example/libraries/zf_driver/zf_driver_timer.c:62
        return 1;
     982:	4785                	li	a5,1
     984:	a011                	j	988 <timer_funciton_check+0x50>
C:/Users/86158/Desktop/IEECS-Design/Hardware/Reference/CHV307_Library-master/Example/libraries/zf_driver/zf_driver_timer.c:64
        return 0;
     986:	4781                	li	a5,0
C:/Users/86158/Desktop/IEECS-Design/Hardware/Reference/CHV307_Library-master/Example/libraries/zf_driver/zf_driver_timer.c:66
}
     988:	853e                	mv	a0,a5
     98a:	4472                	lw	s0,28(sp)
     98c:	6105                	addi	sp,sp,32
     98e:	8082                	ret

00000990 <timer_clock_enable>:
timer_clock_enable():
C:/Users/86158/Desktop/IEECS-Design/Hardware/Reference/CHV307_Library-master/Example/libraries/zf_driver/zf_driver_timer.c:75
//  @param      timer_ch      定时器通道
//  @return     void
//  Sample usage:          内部使用，用户无需关心
//-------------------------------------------------------------------------------------------------------------------
void timer_clock_enable(timer_index_enum index)
{
     990:	1101                	addi	sp,sp,-32
     992:	ce06                	sw	ra,28(sp)
     994:	cc22                	sw	s0,24(sp)
     996:	1000                	addi	s0,sp,32
     998:	fea42623          	sw	a0,-20(s0)
C:/Users/86158/Desktop/IEECS-Design/Hardware/Reference/CHV307_Library-master/Example/libraries/zf_driver/zf_driver_timer.c:76
    if(TIM_1 == index)        RCC_APB2PeriphClockCmd(RCC_APB2Periph_TIM1, ENABLE);//使能定时器1的时钟
     99c:	fec42783          	lw	a5,-20(s0)
     9a0:	eb81                	bnez	a5,9b0 <timer_clock_enable+0x20>
C:/Users/86158/Desktop/IEECS-Design/Hardware/Reference/CHV307_Library-master/Example/libraries/zf_driver/zf_driver_timer.c:76 (discriminator 1)
     9a2:	4585                	li	a1,1
     9a4:	6785                	lui	a5,0x1
     9a6:	80078513          	addi	a0,a5,-2048 # 800 <__stack_size>
     9aa:	310020ef          	jal	ra,2cba <RCC_APB2PeriphClockCmd>
C:/Users/86158/Desktop/IEECS-Design/Hardware/Reference/CHV307_Library-master/Example/libraries/zf_driver/zf_driver_timer.c:86 (discriminator 1)
    else  if(TIM_6 == index)  RCC_APB1PeriphClockCmd(RCC_APB1Periph_TIM6, ENABLE);//使能定时器6的时钟
    else  if(TIM_7 == index)  RCC_APB1PeriphClockCmd(RCC_APB1Periph_TIM7, ENABLE);//使能定时器7的时钟
    else  if(TIM_8 == index)  RCC_APB2PeriphClockCmd(RCC_APB2Periph_TIM8, ENABLE);//使能定时器8的时钟
    else  if(TIM_9 == index)  RCC_APB2PeriphClockCmd(RCC_APB2Periph_TIM9, ENABLE);//使能定时器9的时钟
    else  if(TIM_10== index)  RCC_APB2PeriphClockCmd(RCC_APB2Periph_TIM10,ENABLE);//使能定时器10的时钟
}
     9ae:	a86d                	j	a68 <timer_clock_enable+0xd8>
C:/Users/86158/Desktop/IEECS-Design/Hardware/Reference/CHV307_Library-master/Example/libraries/zf_driver/zf_driver_timer.c:77
    else  if(TIM_2 == index)  RCC_APB1PeriphClockCmd(RCC_APB1Periph_TIM2, ENABLE);//使能定时器2的时钟
     9b0:	fec42703          	lw	a4,-20(s0)
     9b4:	4785                	li	a5,1
     9b6:	00f71763          	bne	a4,a5,9c4 <timer_clock_enable+0x34>
C:/Users/86158/Desktop/IEECS-Design/Hardware/Reference/CHV307_Library-master/Example/libraries/zf_driver/zf_driver_timer.c:77 (discriminator 1)
     9ba:	4585                	li	a1,1
     9bc:	4505                	li	a0,1
     9be:	342020ef          	jal	ra,2d00 <RCC_APB1PeriphClockCmd>
C:/Users/86158/Desktop/IEECS-Design/Hardware/Reference/CHV307_Library-master/Example/libraries/zf_driver/zf_driver_timer.c:86 (discriminator 1)
}
     9c2:	a05d                	j	a68 <timer_clock_enable+0xd8>
C:/Users/86158/Desktop/IEECS-Design/Hardware/Reference/CHV307_Library-master/Example/libraries/zf_driver/zf_driver_timer.c:78
    else  if(TIM_3 == index)  RCC_APB1PeriphClockCmd(RCC_APB1Periph_TIM3, ENABLE);//使能定时器3的时钟
     9c4:	fec42703          	lw	a4,-20(s0)
     9c8:	4789                	li	a5,2
     9ca:	00f71763          	bne	a4,a5,9d8 <timer_clock_enable+0x48>
C:/Users/86158/Desktop/IEECS-Design/Hardware/Reference/CHV307_Library-master/Example/libraries/zf_driver/zf_driver_timer.c:78 (discriminator 1)
     9ce:	4585                	li	a1,1
     9d0:	4509                	li	a0,2
     9d2:	32e020ef          	jal	ra,2d00 <RCC_APB1PeriphClockCmd>
C:/Users/86158/Desktop/IEECS-Design/Hardware/Reference/CHV307_Library-master/Example/libraries/zf_driver/zf_driver_timer.c:86 (discriminator 1)
}
     9d6:	a849                	j	a68 <timer_clock_enable+0xd8>
C:/Users/86158/Desktop/IEECS-Design/Hardware/Reference/CHV307_Library-master/Example/libraries/zf_driver/zf_driver_timer.c:79
    else  if(TIM_4 == index)  RCC_APB1PeriphClockCmd(RCC_APB1Periph_TIM4, ENABLE);//使能定时器4的时钟
     9d8:	fec42703          	lw	a4,-20(s0)
     9dc:	478d                	li	a5,3
     9de:	00f71763          	bne	a4,a5,9ec <timer_clock_enable+0x5c>
C:/Users/86158/Desktop/IEECS-Design/Hardware/Reference/CHV307_Library-master/Example/libraries/zf_driver/zf_driver_timer.c:79 (discriminator 1)
     9e2:	4585                	li	a1,1
     9e4:	4511                	li	a0,4
     9e6:	31a020ef          	jal	ra,2d00 <RCC_APB1PeriphClockCmd>
C:/Users/86158/Desktop/IEECS-Design/Hardware/Reference/CHV307_Library-master/Example/libraries/zf_driver/zf_driver_timer.c:86 (discriminator 1)
}
     9ea:	a8bd                	j	a68 <timer_clock_enable+0xd8>
C:/Users/86158/Desktop/IEECS-Design/Hardware/Reference/CHV307_Library-master/Example/libraries/zf_driver/zf_driver_timer.c:80
    else  if(TIM_5 == index)  RCC_APB1PeriphClockCmd(RCC_APB1Periph_TIM5, ENABLE);//使能定时器5的时钟
     9ec:	fec42703          	lw	a4,-20(s0)
     9f0:	4791                	li	a5,4
     9f2:	00f71763          	bne	a4,a5,a00 <timer_clock_enable+0x70>
C:/Users/86158/Desktop/IEECS-Design/Hardware/Reference/CHV307_Library-master/Example/libraries/zf_driver/zf_driver_timer.c:80 (discriminator 1)
     9f6:	4585                	li	a1,1
     9f8:	4521                	li	a0,8
     9fa:	306020ef          	jal	ra,2d00 <RCC_APB1PeriphClockCmd>
C:/Users/86158/Desktop/IEECS-Design/Hardware/Reference/CHV307_Library-master/Example/libraries/zf_driver/zf_driver_timer.c:86 (discriminator 1)
}
     9fe:	a0ad                	j	a68 <timer_clock_enable+0xd8>
C:/Users/86158/Desktop/IEECS-Design/Hardware/Reference/CHV307_Library-master/Example/libraries/zf_driver/zf_driver_timer.c:81
    else  if(TIM_6 == index)  RCC_APB1PeriphClockCmd(RCC_APB1Periph_TIM6, ENABLE);//使能定时器6的时钟
     a00:	fec42703          	lw	a4,-20(s0)
     a04:	4795                	li	a5,5
     a06:	00f71763          	bne	a4,a5,a14 <timer_clock_enable+0x84>
C:/Users/86158/Desktop/IEECS-Design/Hardware/Reference/CHV307_Library-master/Example/libraries/zf_driver/zf_driver_timer.c:81 (discriminator 1)
     a0a:	4585                	li	a1,1
     a0c:	4541                	li	a0,16
     a0e:	2f2020ef          	jal	ra,2d00 <RCC_APB1PeriphClockCmd>
C:/Users/86158/Desktop/IEECS-Design/Hardware/Reference/CHV307_Library-master/Example/libraries/zf_driver/zf_driver_timer.c:86 (discriminator 1)
}
     a12:	a899                	j	a68 <timer_clock_enable+0xd8>
C:/Users/86158/Desktop/IEECS-Design/Hardware/Reference/CHV307_Library-master/Example/libraries/zf_driver/zf_driver_timer.c:82
    else  if(TIM_7 == index)  RCC_APB1PeriphClockCmd(RCC_APB1Periph_TIM7, ENABLE);//使能定时器7的时钟
     a14:	fec42703          	lw	a4,-20(s0)
     a18:	4799                	li	a5,6
     a1a:	00f71863          	bne	a4,a5,a2a <timer_clock_enable+0x9a>
C:/Users/86158/Desktop/IEECS-Design/Hardware/Reference/CHV307_Library-master/Example/libraries/zf_driver/zf_driver_timer.c:82 (discriminator 1)
     a1e:	4585                	li	a1,1
     a20:	02000513          	li	a0,32
     a24:	2dc020ef          	jal	ra,2d00 <RCC_APB1PeriphClockCmd>
C:/Users/86158/Desktop/IEECS-Design/Hardware/Reference/CHV307_Library-master/Example/libraries/zf_driver/zf_driver_timer.c:86 (discriminator 1)
}
     a28:	a081                	j	a68 <timer_clock_enable+0xd8>
C:/Users/86158/Desktop/IEECS-Design/Hardware/Reference/CHV307_Library-master/Example/libraries/zf_driver/zf_driver_timer.c:83
    else  if(TIM_8 == index)  RCC_APB2PeriphClockCmd(RCC_APB2Periph_TIM8, ENABLE);//使能定时器8的时钟
     a2a:	fec42703          	lw	a4,-20(s0)
     a2e:	479d                	li	a5,7
     a30:	00f71763          	bne	a4,a5,a3e <timer_clock_enable+0xae>
C:/Users/86158/Desktop/IEECS-Design/Hardware/Reference/CHV307_Library-master/Example/libraries/zf_driver/zf_driver_timer.c:83 (discriminator 1)
     a34:	4585                	li	a1,1
     a36:	6509                	lui	a0,0x2
     a38:	282020ef          	jal	ra,2cba <RCC_APB2PeriphClockCmd>
C:/Users/86158/Desktop/IEECS-Design/Hardware/Reference/CHV307_Library-master/Example/libraries/zf_driver/zf_driver_timer.c:86 (discriminator 1)
}
     a3c:	a035                	j	a68 <timer_clock_enable+0xd8>
C:/Users/86158/Desktop/IEECS-Design/Hardware/Reference/CHV307_Library-master/Example/libraries/zf_driver/zf_driver_timer.c:84
    else  if(TIM_9 == index)  RCC_APB2PeriphClockCmd(RCC_APB2Periph_TIM9, ENABLE);//使能定时器9的时钟
     a3e:	fec42703          	lw	a4,-20(s0)
     a42:	47a1                	li	a5,8
     a44:	00f71863          	bne	a4,a5,a54 <timer_clock_enable+0xc4>
C:/Users/86158/Desktop/IEECS-Design/Hardware/Reference/CHV307_Library-master/Example/libraries/zf_driver/zf_driver_timer.c:84 (discriminator 1)
     a48:	4585                	li	a1,1
     a4a:	00080537          	lui	a0,0x80
     a4e:	26c020ef          	jal	ra,2cba <RCC_APB2PeriphClockCmd>
C:/Users/86158/Desktop/IEECS-Design/Hardware/Reference/CHV307_Library-master/Example/libraries/zf_driver/zf_driver_timer.c:86 (discriminator 1)
}
     a52:	a819                	j	a68 <timer_clock_enable+0xd8>
C:/Users/86158/Desktop/IEECS-Design/Hardware/Reference/CHV307_Library-master/Example/libraries/zf_driver/zf_driver_timer.c:85
    else  if(TIM_10== index)  RCC_APB2PeriphClockCmd(RCC_APB2Periph_TIM10,ENABLE);//使能定时器10的时钟
     a54:	fec42703          	lw	a4,-20(s0)
     a58:	47a5                	li	a5,9
     a5a:	00f71763          	bne	a4,a5,a68 <timer_clock_enable+0xd8>
C:/Users/86158/Desktop/IEECS-Design/Hardware/Reference/CHV307_Library-master/Example/libraries/zf_driver/zf_driver_timer.c:85 (discriminator 1)
     a5e:	4585                	li	a1,1
     a60:	00100537          	lui	a0,0x100
     a64:	256020ef          	jal	ra,2cba <RCC_APB2PeriphClockCmd>
C:/Users/86158/Desktop/IEECS-Design/Hardware/Reference/CHV307_Library-master/Example/libraries/zf_driver/zf_driver_timer.c:86
}
     a68:	0001                	nop
     a6a:	40f2                	lw	ra,28(sp)
     a6c:	4462                	lw	s0,24(sp)
     a6e:	6105                	addi	sp,sp,32
     a70:	8082                	ret

00000a72 <uart_gpio_init>:
uart_gpio_init():
C:/Users/86158/Desktop/IEECS-Design/Hardware/Reference/CHV307_Library-master/Example/libraries/zf_driver/zf_driver_uart.c:41
//  @param      rx_pin      串口接收引脚号
//  @return     void
//  Sample usage:           内部使用，用户无需关心
//-------------------------------------------------------------------------------------------------------------------
void uart_gpio_init(uart_pin_enum tx_pin, uart_pin_enum rx_pin)
{
     a72:	1101                	addi	sp,sp,-32
     a74:	ce06                	sw	ra,28(sp)
     a76:	cc22                	sw	s0,24(sp)
     a78:	1000                	addi	s0,sp,32
     a7a:	fea42623          	sw	a0,-20(s0)
     a7e:	feb42423          	sw	a1,-24(s0)
C:/Users/86158/Desktop/IEECS-Design/Hardware/Reference/CHV307_Library-master/Example/libraries/zf_driver/zf_driver_uart.c:42
    if     (tx_pin == UART1_TX_A9 )     gpio_init(A9,  GPO, 0, GPO_AF_PUSH_PULL);
     a82:	fec42783          	lw	a5,-20(s0)
     a86:	e799                	bnez	a5,a94 <uart_gpio_init+0x22>
C:/Users/86158/Desktop/IEECS-Design/Hardware/Reference/CHV307_Library-master/Example/libraries/zf_driver/zf_driver_uart.c:42 (discriminator 1)
     a88:	46e1                	li	a3,24
     a8a:	4601                	li	a2,0
     a8c:	4585                	li	a1,1
     a8e:	4525                	li	a0,9
     a90:	3319                	jal	796 <gpio_init>
     a92:	aa45                	j	c42 <uart_gpio_init+0x1d0>
C:/Users/86158/Desktop/IEECS-Design/Hardware/Reference/CHV307_Library-master/Example/libraries/zf_driver/zf_driver_uart.c:43
    else if(tx_pin == UART1_TX_B6 )     gpio_init(B6,  GPO, 0, GPO_AF_PUSH_PULL);
     a94:	fec42703          	lw	a4,-20(s0)
     a98:	4789                	li	a5,2
     a9a:	00f71963          	bne	a4,a5,aac <uart_gpio_init+0x3a>
C:/Users/86158/Desktop/IEECS-Design/Hardware/Reference/CHV307_Library-master/Example/libraries/zf_driver/zf_driver_uart.c:43 (discriminator 1)
     a9e:	46e1                	li	a3,24
     aa0:	4601                	li	a2,0
     aa2:	4585                	li	a1,1
     aa4:	02600513          	li	a0,38
     aa8:	31fd                	jal	796 <gpio_init>
     aaa:	aa61                	j	c42 <uart_gpio_init+0x1d0>
C:/Users/86158/Desktop/IEECS-Design/Hardware/Reference/CHV307_Library-master/Example/libraries/zf_driver/zf_driver_uart.c:44
    else if(tx_pin == UART2_TX_A2 )     gpio_init(A2,  GPO, 0, GPO_AF_PUSH_PULL);
     aac:	fec42703          	lw	a4,-20(s0)
     ab0:	47c1                	li	a5,16
     ab2:	00f71863          	bne	a4,a5,ac2 <uart_gpio_init+0x50>
C:/Users/86158/Desktop/IEECS-Design/Hardware/Reference/CHV307_Library-master/Example/libraries/zf_driver/zf_driver_uart.c:44 (discriminator 1)
     ab6:	46e1                	li	a3,24
     ab8:	4601                	li	a2,0
     aba:	4585                	li	a1,1
     abc:	4509                	li	a0,2
     abe:	39e1                	jal	796 <gpio_init>
     ac0:	a249                	j	c42 <uart_gpio_init+0x1d0>
C:/Users/86158/Desktop/IEECS-Design/Hardware/Reference/CHV307_Library-master/Example/libraries/zf_driver/zf_driver_uart.c:45
    else if(tx_pin == UART2_TX_D5 )     gpio_init(D5,  GPO, 0, GPO_AF_PUSH_PULL);
     ac2:	fec42703          	lw	a4,-20(s0)
     ac6:	47c9                	li	a5,18
     ac8:	00f71963          	bne	a4,a5,ada <uart_gpio_init+0x68>
C:/Users/86158/Desktop/IEECS-Design/Hardware/Reference/CHV307_Library-master/Example/libraries/zf_driver/zf_driver_uart.c:45 (discriminator 1)
     acc:	46e1                	li	a3,24
     ace:	4601                	li	a2,0
     ad0:	4585                	li	a1,1
     ad2:	06500513          	li	a0,101
     ad6:	31c1                	jal	796 <gpio_init>
     ad8:	a2ad                	j	c42 <uart_gpio_init+0x1d0>
C:/Users/86158/Desktop/IEECS-Design/Hardware/Reference/CHV307_Library-master/Example/libraries/zf_driver/zf_driver_uart.c:46
    else if(tx_pin == UART3_TX_B10)     gpio_init(B10, GPO, 0, GPO_AF_PUSH_PULL);
     ada:	fec42703          	lw	a4,-20(s0)
     ade:	02000793          	li	a5,32
     ae2:	00f71963          	bne	a4,a5,af4 <uart_gpio_init+0x82>
C:/Users/86158/Desktop/IEECS-Design/Hardware/Reference/CHV307_Library-master/Example/libraries/zf_driver/zf_driver_uart.c:46 (discriminator 1)
     ae6:	46e1                	li	a3,24
     ae8:	4601                	li	a2,0
     aea:	4585                	li	a1,1
     aec:	02a00513          	li	a0,42
     af0:	315d                	jal	796 <gpio_init>
     af2:	aa81                	j	c42 <uart_gpio_init+0x1d0>
C:/Users/86158/Desktop/IEECS-Design/Hardware/Reference/CHV307_Library-master/Example/libraries/zf_driver/zf_driver_uart.c:47
    else if(tx_pin == UART3_TX_C10)     gpio_init(C10, GPO, 0, GPO_AF_PUSH_PULL);
     af4:	fec42703          	lw	a4,-20(s0)
     af8:	02200793          	li	a5,34
     afc:	00f71963          	bne	a4,a5,b0e <uart_gpio_init+0x9c>
C:/Users/86158/Desktop/IEECS-Design/Hardware/Reference/CHV307_Library-master/Example/libraries/zf_driver/zf_driver_uart.c:47 (discriminator 1)
     b00:	46e1                	li	a3,24
     b02:	4601                	li	a2,0
     b04:	4585                	li	a1,1
     b06:	04a00513          	li	a0,74
     b0a:	3171                	jal	796 <gpio_init>
     b0c:	aa1d                	j	c42 <uart_gpio_init+0x1d0>
C:/Users/86158/Desktop/IEECS-Design/Hardware/Reference/CHV307_Library-master/Example/libraries/zf_driver/zf_driver_uart.c:48
    else if(tx_pin == UART3_TX_D8 )     gpio_init(D8,  GPO, 0, GPO_AF_PUSH_PULL);
     b0e:	fec42703          	lw	a4,-20(s0)
     b12:	02400793          	li	a5,36
     b16:	00f71963          	bne	a4,a5,b28 <uart_gpio_init+0xb6>
C:/Users/86158/Desktop/IEECS-Design/Hardware/Reference/CHV307_Library-master/Example/libraries/zf_driver/zf_driver_uart.c:48 (discriminator 1)
     b1a:	46e1                	li	a3,24
     b1c:	4601                	li	a2,0
     b1e:	4585                	li	a1,1
     b20:	06800513          	li	a0,104
     b24:	398d                	jal	796 <gpio_init>
     b26:	aa31                	j	c42 <uart_gpio_init+0x1d0>
C:/Users/86158/Desktop/IEECS-Design/Hardware/Reference/CHV307_Library-master/Example/libraries/zf_driver/zf_driver_uart.c:49
    else if(tx_pin == UART4_TX_C10)     gpio_init(C10, GPO, 0, GPO_AF_PUSH_PULL);
     b28:	fec42703          	lw	a4,-20(s0)
     b2c:	04000793          	li	a5,64
     b30:	00f71963          	bne	a4,a5,b42 <uart_gpio_init+0xd0>
C:/Users/86158/Desktop/IEECS-Design/Hardware/Reference/CHV307_Library-master/Example/libraries/zf_driver/zf_driver_uart.c:49 (discriminator 1)
     b34:	46e1                	li	a3,24
     b36:	4601                	li	a2,0
     b38:	4585                	li	a1,1
     b3a:	04a00513          	li	a0,74
     b3e:	39a1                	jal	796 <gpio_init>
     b40:	a209                	j	c42 <uart_gpio_init+0x1d0>
C:/Users/86158/Desktop/IEECS-Design/Hardware/Reference/CHV307_Library-master/Example/libraries/zf_driver/zf_driver_uart.c:50
    else if(tx_pin == UART4_TX_B0)      gpio_init(B0, GPO, 0, GPO_AF_PUSH_PULL);
     b42:	fec42703          	lw	a4,-20(s0)
     b46:	04200793          	li	a5,66
     b4a:	00f71963          	bne	a4,a5,b5c <uart_gpio_init+0xea>
C:/Users/86158/Desktop/IEECS-Design/Hardware/Reference/CHV307_Library-master/Example/libraries/zf_driver/zf_driver_uart.c:50 (discriminator 1)
     b4e:	46e1                	li	a3,24
     b50:	4601                	li	a2,0
     b52:	4585                	li	a1,1
     b54:	02000513          	li	a0,32
     b58:	393d                	jal	796 <gpio_init>
     b5a:	a0e5                	j	c42 <uart_gpio_init+0x1d0>
C:/Users/86158/Desktop/IEECS-Design/Hardware/Reference/CHV307_Library-master/Example/libraries/zf_driver/zf_driver_uart.c:51
    else if(tx_pin == UART5_TX_C12)     gpio_init(C12, GPO, 0, GPO_AF_PUSH_PULL);
     b5c:	fec42703          	lw	a4,-20(s0)
     b60:	05000793          	li	a5,80
     b64:	00f71963          	bne	a4,a5,b76 <uart_gpio_init+0x104>
C:/Users/86158/Desktop/IEECS-Design/Hardware/Reference/CHV307_Library-master/Example/libraries/zf_driver/zf_driver_uart.c:51 (discriminator 1)
     b68:	46e1                	li	a3,24
     b6a:	4601                	li	a2,0
     b6c:	4585                	li	a1,1
     b6e:	04c00513          	li	a0,76
     b72:	3115                	jal	796 <gpio_init>
     b74:	a0f9                	j	c42 <uart_gpio_init+0x1d0>
C:/Users/86158/Desktop/IEECS-Design/Hardware/Reference/CHV307_Library-master/Example/libraries/zf_driver/zf_driver_uart.c:52
    else if(tx_pin == UART5_TX_E8)      gpio_init(E8, GPO, 0, GPO_AF_PUSH_PULL);
     b76:	fec42703          	lw	a4,-20(s0)
     b7a:	05200793          	li	a5,82
     b7e:	00f71963          	bne	a4,a5,b90 <uart_gpio_init+0x11e>
C:/Users/86158/Desktop/IEECS-Design/Hardware/Reference/CHV307_Library-master/Example/libraries/zf_driver/zf_driver_uart.c:52 (discriminator 1)
     b82:	46e1                	li	a3,24
     b84:	4601                	li	a2,0
     b86:	4585                	li	a1,1
     b88:	08800513          	li	a0,136
     b8c:	3129                	jal	796 <gpio_init>
     b8e:	a855                	j	c42 <uart_gpio_init+0x1d0>
C:/Users/86158/Desktop/IEECS-Design/Hardware/Reference/CHV307_Library-master/Example/libraries/zf_driver/zf_driver_uart.c:53
    else if(tx_pin == UART6_TX_C0 )     gpio_init(C0,  GPO, 0, GPO_AF_PUSH_PULL);
     b90:	fec42703          	lw	a4,-20(s0)
     b94:	06000793          	li	a5,96
     b98:	00f71963          	bne	a4,a5,baa <uart_gpio_init+0x138>
C:/Users/86158/Desktop/IEECS-Design/Hardware/Reference/CHV307_Library-master/Example/libraries/zf_driver/zf_driver_uart.c:53 (discriminator 1)
     b9c:	46e1                	li	a3,24
     b9e:	4601                	li	a2,0
     ba0:	4585                	li	a1,1
     ba2:	04000513          	li	a0,64
     ba6:	3ec5                	jal	796 <gpio_init>
     ba8:	a869                	j	c42 <uart_gpio_init+0x1d0>
C:/Users/86158/Desktop/IEECS-Design/Hardware/Reference/CHV307_Library-master/Example/libraries/zf_driver/zf_driver_uart.c:54
    else if(tx_pin == UART6_TX_E10 )    gpio_init(C0,  GPO, 0, GPO_AF_PUSH_PULL);
     baa:	fec42703          	lw	a4,-20(s0)
     bae:	06200793          	li	a5,98
     bb2:	00f71963          	bne	a4,a5,bc4 <uart_gpio_init+0x152>
C:/Users/86158/Desktop/IEECS-Design/Hardware/Reference/CHV307_Library-master/Example/libraries/zf_driver/zf_driver_uart.c:54 (discriminator 1)
     bb6:	46e1                	li	a3,24
     bb8:	4601                	li	a2,0
     bba:	4585                	li	a1,1
     bbc:	04000513          	li	a0,64
     bc0:	3ed9                	jal	796 <gpio_init>
     bc2:	a041                	j	c42 <uart_gpio_init+0x1d0>
C:/Users/86158/Desktop/IEECS-Design/Hardware/Reference/CHV307_Library-master/Example/libraries/zf_driver/zf_driver_uart.c:55
    else if(tx_pin == UART7_TX_C2 )     gpio_init(C2,  GPO, 0, GPO_AF_PUSH_PULL);
     bc4:	fec42703          	lw	a4,-20(s0)
     bc8:	07000793          	li	a5,112
     bcc:	00f71963          	bne	a4,a5,bde <uart_gpio_init+0x16c>
C:/Users/86158/Desktop/IEECS-Design/Hardware/Reference/CHV307_Library-master/Example/libraries/zf_driver/zf_driver_uart.c:55 (discriminator 1)
     bd0:	46e1                	li	a3,24
     bd2:	4601                	li	a2,0
     bd4:	4585                	li	a1,1
     bd6:	04200513          	li	a0,66
     bda:	3e75                	jal	796 <gpio_init>
     bdc:	a09d                	j	c42 <uart_gpio_init+0x1d0>
C:/Users/86158/Desktop/IEECS-Design/Hardware/Reference/CHV307_Library-master/Example/libraries/zf_driver/zf_driver_uart.c:56
    else if(tx_pin == UART7_TX_A6 )     gpio_init(A6,  GPO, 0, GPO_AF_PUSH_PULL);
     bde:	fec42703          	lw	a4,-20(s0)
     be2:	07200793          	li	a5,114
     be6:	00f71863          	bne	a4,a5,bf6 <uart_gpio_init+0x184>
C:/Users/86158/Desktop/IEECS-Design/Hardware/Reference/CHV307_Library-master/Example/libraries/zf_driver/zf_driver_uart.c:56 (discriminator 1)
     bea:	46e1                	li	a3,24
     bec:	4601                	li	a2,0
     bee:	4585                	li	a1,1
     bf0:	4519                	li	a0,6
     bf2:	3655                	jal	796 <gpio_init>
     bf4:	a0b9                	j	c42 <uart_gpio_init+0x1d0>
C:/Users/86158/Desktop/IEECS-Design/Hardware/Reference/CHV307_Library-master/Example/libraries/zf_driver/zf_driver_uart.c:57
    else if(tx_pin == UART7_TX_E12 )    gpio_init(E12,  GPO, 0, GPO_AF_PUSH_PULL);
     bf6:	fec42703          	lw	a4,-20(s0)
     bfa:	07400793          	li	a5,116
     bfe:	00f71963          	bne	a4,a5,c10 <uart_gpio_init+0x19e>
C:/Users/86158/Desktop/IEECS-Design/Hardware/Reference/CHV307_Library-master/Example/libraries/zf_driver/zf_driver_uart.c:57 (discriminator 1)
     c02:	46e1                	li	a3,24
     c04:	4601                	li	a2,0
     c06:	4585                	li	a1,1
     c08:	08c00513          	li	a0,140
     c0c:	3669                	jal	796 <gpio_init>
     c0e:	a815                	j	c42 <uart_gpio_init+0x1d0>
C:/Users/86158/Desktop/IEECS-Design/Hardware/Reference/CHV307_Library-master/Example/libraries/zf_driver/zf_driver_uart.c:58
    else if(tx_pin == UART8_TX_C4 )     gpio_init(C4,  GPO, 0, GPO_AF_PUSH_PULL);
     c10:	fec42703          	lw	a4,-20(s0)
     c14:	08000793          	li	a5,128
     c18:	00f71963          	bne	a4,a5,c2a <uart_gpio_init+0x1b8>
C:/Users/86158/Desktop/IEECS-Design/Hardware/Reference/CHV307_Library-master/Example/libraries/zf_driver/zf_driver_uart.c:58 (discriminator 1)
     c1c:	46e1                	li	a3,24
     c1e:	4601                	li	a2,0
     c20:	4585                	li	a1,1
     c22:	04400513          	li	a0,68
     c26:	3e85                	jal	796 <gpio_init>
     c28:	a829                	j	c42 <uart_gpio_init+0x1d0>
C:/Users/86158/Desktop/IEECS-Design/Hardware/Reference/CHV307_Library-master/Example/libraries/zf_driver/zf_driver_uart.c:59
    else if(tx_pin == UART8_TX_E14 )    gpio_init(E14,  GPO, 0, GPO_AF_PUSH_PULL);
     c2a:	fec42703          	lw	a4,-20(s0)
     c2e:	08200793          	li	a5,130
     c32:	00f71863          	bne	a4,a5,c42 <uart_gpio_init+0x1d0>
C:/Users/86158/Desktop/IEECS-Design/Hardware/Reference/CHV307_Library-master/Example/libraries/zf_driver/zf_driver_uart.c:59 (discriminator 1)
     c36:	46e1                	li	a3,24
     c38:	4601                	li	a2,0
     c3a:	4585                	li	a1,1
     c3c:	08e00513          	li	a0,142
     c40:	3e99                	jal	796 <gpio_init>
C:/Users/86158/Desktop/IEECS-Design/Hardware/Reference/CHV307_Library-master/Example/libraries/zf_driver/zf_driver_uart.c:61

    if     (rx_pin == UART1_RX_A10)     gpio_init(A10, GPI, 0, GPI_PULL_UP);
     c42:	fe842703          	lw	a4,-24(s0)
     c46:	4785                	li	a5,1
     c48:	00f71963          	bne	a4,a5,c5a <uart_gpio_init+0x1e8>
C:/Users/86158/Desktop/IEECS-Design/Hardware/Reference/CHV307_Library-master/Example/libraries/zf_driver/zf_driver_uart.c:61 (discriminator 1)
     c4c:	04800693          	li	a3,72
     c50:	4601                	li	a2,0
     c52:	4581                	li	a1,0
     c54:	4529                	li	a0,10
     c56:	3681                	jal	796 <gpio_init>
C:/Users/86158/Desktop/IEECS-Design/Hardware/Reference/CHV307_Library-master/Example/libraries/zf_driver/zf_driver_uart.c:79 (discriminator 1)
    else if(rx_pin == UART7_RX_C3 )     gpio_init(C3,  GPI, 0, GPI_PULL_UP);
    else if(rx_pin == UART7_RX_A7 )     gpio_init(A7,  GPI, 0, GPI_PULL_UP);
    else if(rx_pin == UART7_RX_E13 )    gpio_init(E13,  GPI, 0, GPI_PULL_UP);
    else if(rx_pin == UART8_RX_C5 )     gpio_init(C5,  GPI, 0, GPI_PULL_UP);
    else if(rx_pin == UART8_RX_E15 )    gpio_init(E15,  GPI, 0, GPI_PULL_UP);
}
     c58:	aac9                	j	e2a <uart_gpio_init+0x3b8>
C:/Users/86158/Desktop/IEECS-Design/Hardware/Reference/CHV307_Library-master/Example/libraries/zf_driver/zf_driver_uart.c:62
    else if(rx_pin == UART1_RX_B7 )     gpio_init(B7,  GPI, 0, GPI_PULL_UP);
     c5a:	fe842703          	lw	a4,-24(s0)
     c5e:	478d                	li	a5,3
     c60:	00f71a63          	bne	a4,a5,c74 <uart_gpio_init+0x202>
C:/Users/86158/Desktop/IEECS-Design/Hardware/Reference/CHV307_Library-master/Example/libraries/zf_driver/zf_driver_uart.c:62 (discriminator 1)
     c64:	04800693          	li	a3,72
     c68:	4601                	li	a2,0
     c6a:	4581                	li	a1,0
     c6c:	02700513          	li	a0,39
     c70:	361d                	jal	796 <gpio_init>
C:/Users/86158/Desktop/IEECS-Design/Hardware/Reference/CHV307_Library-master/Example/libraries/zf_driver/zf_driver_uart.c:79 (discriminator 1)
}
     c72:	aa65                	j	e2a <uart_gpio_init+0x3b8>
C:/Users/86158/Desktop/IEECS-Design/Hardware/Reference/CHV307_Library-master/Example/libraries/zf_driver/zf_driver_uart.c:63
    else if(rx_pin == UART2_RX_A3 )     gpio_init(A3,  GPI, 0, GPI_PULL_UP);
     c74:	fe842703          	lw	a4,-24(s0)
     c78:	47c5                	li	a5,17
     c7a:	00f71963          	bne	a4,a5,c8c <uart_gpio_init+0x21a>
C:/Users/86158/Desktop/IEECS-Design/Hardware/Reference/CHV307_Library-master/Example/libraries/zf_driver/zf_driver_uart.c:63 (discriminator 1)
     c7e:	04800693          	li	a3,72
     c82:	4601                	li	a2,0
     c84:	4581                	li	a1,0
     c86:	450d                	li	a0,3
     c88:	3639                	jal	796 <gpio_init>
C:/Users/86158/Desktop/IEECS-Design/Hardware/Reference/CHV307_Library-master/Example/libraries/zf_driver/zf_driver_uart.c:79 (discriminator 1)
}
     c8a:	a245                	j	e2a <uart_gpio_init+0x3b8>
C:/Users/86158/Desktop/IEECS-Design/Hardware/Reference/CHV307_Library-master/Example/libraries/zf_driver/zf_driver_uart.c:64
    else if(rx_pin == UART2_RX_D6 )     gpio_init(D6,  GPI, 0, GPI_PULL_UP);
     c8c:	fe842703          	lw	a4,-24(s0)
     c90:	47cd                	li	a5,19
     c92:	00f71a63          	bne	a4,a5,ca6 <uart_gpio_init+0x234>
C:/Users/86158/Desktop/IEECS-Design/Hardware/Reference/CHV307_Library-master/Example/libraries/zf_driver/zf_driver_uart.c:64 (discriminator 1)
     c96:	04800693          	li	a3,72
     c9a:	4601                	li	a2,0
     c9c:	4581                	li	a1,0
     c9e:	06600513          	li	a0,102
     ca2:	3cd5                	jal	796 <gpio_init>
C:/Users/86158/Desktop/IEECS-Design/Hardware/Reference/CHV307_Library-master/Example/libraries/zf_driver/zf_driver_uart.c:79 (discriminator 1)
}
     ca4:	a259                	j	e2a <uart_gpio_init+0x3b8>
C:/Users/86158/Desktop/IEECS-Design/Hardware/Reference/CHV307_Library-master/Example/libraries/zf_driver/zf_driver_uart.c:65
    else if(rx_pin == UART3_RX_B11)     gpio_init(B11, GPI, 0, GPI_PULL_UP);
     ca6:	fe842703          	lw	a4,-24(s0)
     caa:	02100793          	li	a5,33
     cae:	00f71a63          	bne	a4,a5,cc2 <uart_gpio_init+0x250>
C:/Users/86158/Desktop/IEECS-Design/Hardware/Reference/CHV307_Library-master/Example/libraries/zf_driver/zf_driver_uart.c:65 (discriminator 1)
     cb2:	04800693          	li	a3,72
     cb6:	4601                	li	a2,0
     cb8:	4581                	li	a1,0
     cba:	02b00513          	li	a0,43
     cbe:	3ce1                	jal	796 <gpio_init>
C:/Users/86158/Desktop/IEECS-Design/Hardware/Reference/CHV307_Library-master/Example/libraries/zf_driver/zf_driver_uart.c:79 (discriminator 1)
}
     cc0:	a2ad                	j	e2a <uart_gpio_init+0x3b8>
C:/Users/86158/Desktop/IEECS-Design/Hardware/Reference/CHV307_Library-master/Example/libraries/zf_driver/zf_driver_uart.c:66
    else if(rx_pin == UART3_RX_C11)     gpio_init(C11, GPI, 0, GPI_PULL_UP);
     cc2:	fe842703          	lw	a4,-24(s0)
     cc6:	02300793          	li	a5,35
     cca:	00f71a63          	bne	a4,a5,cde <uart_gpio_init+0x26c>
C:/Users/86158/Desktop/IEECS-Design/Hardware/Reference/CHV307_Library-master/Example/libraries/zf_driver/zf_driver_uart.c:66 (discriminator 1)
     cce:	04800693          	li	a3,72
     cd2:	4601                	li	a2,0
     cd4:	4581                	li	a1,0
     cd6:	04b00513          	li	a0,75
     cda:	3c75                	jal	796 <gpio_init>
C:/Users/86158/Desktop/IEECS-Design/Hardware/Reference/CHV307_Library-master/Example/libraries/zf_driver/zf_driver_uart.c:79 (discriminator 1)
}
     cdc:	a2b9                	j	e2a <uart_gpio_init+0x3b8>
C:/Users/86158/Desktop/IEECS-Design/Hardware/Reference/CHV307_Library-master/Example/libraries/zf_driver/zf_driver_uart.c:67
    else if(rx_pin == UART3_RX_D9 )     gpio_init(D9,  GPI, 0, GPI_PULL_UP);
     cde:	fe842703          	lw	a4,-24(s0)
     ce2:	02500793          	li	a5,37
     ce6:	00f71a63          	bne	a4,a5,cfa <uart_gpio_init+0x288>
C:/Users/86158/Desktop/IEECS-Design/Hardware/Reference/CHV307_Library-master/Example/libraries/zf_driver/zf_driver_uart.c:67 (discriminator 1)
     cea:	04800693          	li	a3,72
     cee:	4601                	li	a2,0
     cf0:	4581                	li	a1,0
     cf2:	06900513          	li	a0,105
     cf6:	3445                	jal	796 <gpio_init>
C:/Users/86158/Desktop/IEECS-Design/Hardware/Reference/CHV307_Library-master/Example/libraries/zf_driver/zf_driver_uart.c:79 (discriminator 1)
}
     cf8:	aa0d                	j	e2a <uart_gpio_init+0x3b8>
C:/Users/86158/Desktop/IEECS-Design/Hardware/Reference/CHV307_Library-master/Example/libraries/zf_driver/zf_driver_uart.c:68
    else if(rx_pin == UART4_RX_C11)     gpio_init(C11, GPI, 0, GPI_PULL_UP);
     cfa:	fe842703          	lw	a4,-24(s0)
     cfe:	04100793          	li	a5,65
     d02:	00f71a63          	bne	a4,a5,d16 <uart_gpio_init+0x2a4>
C:/Users/86158/Desktop/IEECS-Design/Hardware/Reference/CHV307_Library-master/Example/libraries/zf_driver/zf_driver_uart.c:68 (discriminator 1)
     d06:	04800693          	li	a3,72
     d0a:	4601                	li	a2,0
     d0c:	4581                	li	a1,0
     d0e:	04b00513          	li	a0,75
     d12:	3451                	jal	796 <gpio_init>
C:/Users/86158/Desktop/IEECS-Design/Hardware/Reference/CHV307_Library-master/Example/libraries/zf_driver/zf_driver_uart.c:79 (discriminator 1)
}
     d14:	aa19                	j	e2a <uart_gpio_init+0x3b8>
C:/Users/86158/Desktop/IEECS-Design/Hardware/Reference/CHV307_Library-master/Example/libraries/zf_driver/zf_driver_uart.c:69
    else if(rx_pin == UART4_RX_B1)      gpio_init(B1, GPI, 0, GPI_PULL_UP);
     d16:	fe842703          	lw	a4,-24(s0)
     d1a:	04300793          	li	a5,67
     d1e:	00f71a63          	bne	a4,a5,d32 <uart_gpio_init+0x2c0>
C:/Users/86158/Desktop/IEECS-Design/Hardware/Reference/CHV307_Library-master/Example/libraries/zf_driver/zf_driver_uart.c:69 (discriminator 1)
     d22:	04800693          	li	a3,72
     d26:	4601                	li	a2,0
     d28:	4581                	li	a1,0
     d2a:	02100513          	li	a0,33
     d2e:	34a5                	jal	796 <gpio_init>
C:/Users/86158/Desktop/IEECS-Design/Hardware/Reference/CHV307_Library-master/Example/libraries/zf_driver/zf_driver_uart.c:79 (discriminator 1)
}
     d30:	a8ed                	j	e2a <uart_gpio_init+0x3b8>
C:/Users/86158/Desktop/IEECS-Design/Hardware/Reference/CHV307_Library-master/Example/libraries/zf_driver/zf_driver_uart.c:70
    else if(rx_pin == UART5_RX_D2 )     gpio_init(D2,  GPI, 0, GPI_PULL_UP);
     d32:	fe842703          	lw	a4,-24(s0)
     d36:	05100793          	li	a5,81
     d3a:	00f71a63          	bne	a4,a5,d4e <uart_gpio_init+0x2dc>
C:/Users/86158/Desktop/IEECS-Design/Hardware/Reference/CHV307_Library-master/Example/libraries/zf_driver/zf_driver_uart.c:70 (discriminator 1)
     d3e:	04800693          	li	a3,72
     d42:	4601                	li	a2,0
     d44:	4581                	li	a1,0
     d46:	06200513          	li	a0,98
     d4a:	34b1                	jal	796 <gpio_init>
C:/Users/86158/Desktop/IEECS-Design/Hardware/Reference/CHV307_Library-master/Example/libraries/zf_driver/zf_driver_uart.c:79 (discriminator 1)
}
     d4c:	a8f9                	j	e2a <uart_gpio_init+0x3b8>
C:/Users/86158/Desktop/IEECS-Design/Hardware/Reference/CHV307_Library-master/Example/libraries/zf_driver/zf_driver_uart.c:71
    else if(rx_pin == UART5_RX_E9 )     gpio_init(E9,  GPI, 0, GPI_PULL_UP);
     d4e:	fe842703          	lw	a4,-24(s0)
     d52:	05300793          	li	a5,83
     d56:	00f71a63          	bne	a4,a5,d6a <uart_gpio_init+0x2f8>
C:/Users/86158/Desktop/IEECS-Design/Hardware/Reference/CHV307_Library-master/Example/libraries/zf_driver/zf_driver_uart.c:71 (discriminator 1)
     d5a:	04800693          	li	a3,72
     d5e:	4601                	li	a2,0
     d60:	4581                	li	a1,0
     d62:	08900513          	li	a0,137
     d66:	3c05                	jal	796 <gpio_init>
C:/Users/86158/Desktop/IEECS-Design/Hardware/Reference/CHV307_Library-master/Example/libraries/zf_driver/zf_driver_uart.c:79 (discriminator 1)
}
     d68:	a0c9                	j	e2a <uart_gpio_init+0x3b8>
C:/Users/86158/Desktop/IEECS-Design/Hardware/Reference/CHV307_Library-master/Example/libraries/zf_driver/zf_driver_uart.c:72
    else if(rx_pin == UART6_RX_C1 )     gpio_init(C1,  GPI, 0, GPI_PULL_UP);
     d6a:	fe842703          	lw	a4,-24(s0)
     d6e:	06100793          	li	a5,97
     d72:	00f71a63          	bne	a4,a5,d86 <uart_gpio_init+0x314>
C:/Users/86158/Desktop/IEECS-Design/Hardware/Reference/CHV307_Library-master/Example/libraries/zf_driver/zf_driver_uart.c:72 (discriminator 1)
     d76:	04800693          	li	a3,72
     d7a:	4601                	li	a2,0
     d7c:	4581                	li	a1,0
     d7e:	04100513          	li	a0,65
     d82:	3c11                	jal	796 <gpio_init>
C:/Users/86158/Desktop/IEECS-Design/Hardware/Reference/CHV307_Library-master/Example/libraries/zf_driver/zf_driver_uart.c:79 (discriminator 1)
}
     d84:	a05d                	j	e2a <uart_gpio_init+0x3b8>
C:/Users/86158/Desktop/IEECS-Design/Hardware/Reference/CHV307_Library-master/Example/libraries/zf_driver/zf_driver_uart.c:73
    else if(rx_pin == UART6_RX_E11 )    gpio_init(E11,  GPI, 0, GPI_PULL_UP);
     d86:	fe842703          	lw	a4,-24(s0)
     d8a:	06300793          	li	a5,99
     d8e:	00f71a63          	bne	a4,a5,da2 <uart_gpio_init+0x330>
C:/Users/86158/Desktop/IEECS-Design/Hardware/Reference/CHV307_Library-master/Example/libraries/zf_driver/zf_driver_uart.c:73 (discriminator 1)
     d92:	04800693          	li	a3,72
     d96:	4601                	li	a2,0
     d98:	4581                	li	a1,0
     d9a:	08b00513          	li	a0,139
     d9e:	3ae5                	jal	796 <gpio_init>
C:/Users/86158/Desktop/IEECS-Design/Hardware/Reference/CHV307_Library-master/Example/libraries/zf_driver/zf_driver_uart.c:79 (discriminator 1)
}
     da0:	a069                	j	e2a <uart_gpio_init+0x3b8>
C:/Users/86158/Desktop/IEECS-Design/Hardware/Reference/CHV307_Library-master/Example/libraries/zf_driver/zf_driver_uart.c:74
    else if(rx_pin == UART7_RX_C3 )     gpio_init(C3,  GPI, 0, GPI_PULL_UP);
     da2:	fe842703          	lw	a4,-24(s0)
     da6:	07100793          	li	a5,113
     daa:	00f71a63          	bne	a4,a5,dbe <uart_gpio_init+0x34c>
C:/Users/86158/Desktop/IEECS-Design/Hardware/Reference/CHV307_Library-master/Example/libraries/zf_driver/zf_driver_uart.c:74 (discriminator 1)
     dae:	04800693          	li	a3,72
     db2:	4601                	li	a2,0
     db4:	4581                	li	a1,0
     db6:	04300513          	li	a0,67
     dba:	3af1                	jal	796 <gpio_init>
C:/Users/86158/Desktop/IEECS-Design/Hardware/Reference/CHV307_Library-master/Example/libraries/zf_driver/zf_driver_uart.c:79 (discriminator 1)
}
     dbc:	a0bd                	j	e2a <uart_gpio_init+0x3b8>
C:/Users/86158/Desktop/IEECS-Design/Hardware/Reference/CHV307_Library-master/Example/libraries/zf_driver/zf_driver_uart.c:75
    else if(rx_pin == UART7_RX_A7 )     gpio_init(A7,  GPI, 0, GPI_PULL_UP);
     dbe:	fe842703          	lw	a4,-24(s0)
     dc2:	07300793          	li	a5,115
     dc6:	00f71963          	bne	a4,a5,dd8 <uart_gpio_init+0x366>
C:/Users/86158/Desktop/IEECS-Design/Hardware/Reference/CHV307_Library-master/Example/libraries/zf_driver/zf_driver_uart.c:75 (discriminator 1)
     dca:	04800693          	li	a3,72
     dce:	4601                	li	a2,0
     dd0:	4581                	li	a1,0
     dd2:	451d                	li	a0,7
     dd4:	32c9                	jal	796 <gpio_init>
C:/Users/86158/Desktop/IEECS-Design/Hardware/Reference/CHV307_Library-master/Example/libraries/zf_driver/zf_driver_uart.c:79 (discriminator 1)
}
     dd6:	a891                	j	e2a <uart_gpio_init+0x3b8>
C:/Users/86158/Desktop/IEECS-Design/Hardware/Reference/CHV307_Library-master/Example/libraries/zf_driver/zf_driver_uart.c:76
    else if(rx_pin == UART7_RX_E13 )    gpio_init(E13,  GPI, 0, GPI_PULL_UP);
     dd8:	fe842703          	lw	a4,-24(s0)
     ddc:	07500793          	li	a5,117
     de0:	00f71a63          	bne	a4,a5,df4 <uart_gpio_init+0x382>
C:/Users/86158/Desktop/IEECS-Design/Hardware/Reference/CHV307_Library-master/Example/libraries/zf_driver/zf_driver_uart.c:76 (discriminator 1)
     de4:	04800693          	li	a3,72
     de8:	4601                	li	a2,0
     dea:	4581                	li	a1,0
     dec:	08d00513          	li	a0,141
     df0:	325d                	jal	796 <gpio_init>
C:/Users/86158/Desktop/IEECS-Design/Hardware/Reference/CHV307_Library-master/Example/libraries/zf_driver/zf_driver_uart.c:79 (discriminator 1)
}
     df2:	a825                	j	e2a <uart_gpio_init+0x3b8>
C:/Users/86158/Desktop/IEECS-Design/Hardware/Reference/CHV307_Library-master/Example/libraries/zf_driver/zf_driver_uart.c:77
    else if(rx_pin == UART8_RX_C5 )     gpio_init(C5,  GPI, 0, GPI_PULL_UP);
     df4:	fe842703          	lw	a4,-24(s0)
     df8:	08100793          	li	a5,129
     dfc:	00f71a63          	bne	a4,a5,e10 <uart_gpio_init+0x39e>
C:/Users/86158/Desktop/IEECS-Design/Hardware/Reference/CHV307_Library-master/Example/libraries/zf_driver/zf_driver_uart.c:77 (discriminator 1)
     e00:	04800693          	li	a3,72
     e04:	4601                	li	a2,0
     e06:	4581                	li	a1,0
     e08:	04500513          	li	a0,69
     e0c:	3269                	jal	796 <gpio_init>
C:/Users/86158/Desktop/IEECS-Design/Hardware/Reference/CHV307_Library-master/Example/libraries/zf_driver/zf_driver_uart.c:79 (discriminator 1)
}
     e0e:	a831                	j	e2a <uart_gpio_init+0x3b8>
C:/Users/86158/Desktop/IEECS-Design/Hardware/Reference/CHV307_Library-master/Example/libraries/zf_driver/zf_driver_uart.c:78
    else if(rx_pin == UART8_RX_E15 )    gpio_init(E15,  GPI, 0, GPI_PULL_UP);
     e10:	fe842703          	lw	a4,-24(s0)
     e14:	08300793          	li	a5,131
     e18:	00f71963          	bne	a4,a5,e2a <uart_gpio_init+0x3b8>
C:/Users/86158/Desktop/IEECS-Design/Hardware/Reference/CHV307_Library-master/Example/libraries/zf_driver/zf_driver_uart.c:78 (discriminator 1)
     e1c:	04800693          	li	a3,72
     e20:	4601                	li	a2,0
     e22:	4581                	li	a1,0
     e24:	08f00513          	li	a0,143
     e28:	32bd                	jal	796 <gpio_init>
C:/Users/86158/Desktop/IEECS-Design/Hardware/Reference/CHV307_Library-master/Example/libraries/zf_driver/zf_driver_uart.c:79
}
     e2a:	0001                	nop
     e2c:	40f2                	lw	ra,28(sp)
     e2e:	4462                	lw	s0,24(sp)
     e30:	6105                	addi	sp,sp,32
     e32:	8082                	ret

00000e34 <uart_write_byte>:
uart_write_byte():
C:/Users/86158/Desktop/IEECS-Design/Hardware/Reference/CHV307_Library-master/Example/libraries/zf_driver/zf_driver_uart.c:89
//  @param      dat         串口数据
//  @return     void
//  Sample usage:           uart_write_byte(UART_1, 0x43);        //串口1发送0x43。
//-------------------------------------------------------------------------------------------------------------------
void uart_write_byte(uart_index_enum uartn, const uint8 dat)
{
     e34:	1101                	addi	sp,sp,-32
     e36:	ce22                	sw	s0,28(sp)
     e38:	1000                	addi	s0,sp,32
     e3a:	fea42623          	sw	a0,-20(s0)
     e3e:	87ae                	mv	a5,a1
     e40:	fef405a3          	sb	a5,-21(s0)
C:/Users/86158/Desktop/IEECS-Design/Hardware/Reference/CHV307_Library-master/Example/libraries/zf_driver/zf_driver_uart.c:90
    while((((USART_TypeDef*)uart_index[uartn])->STATR & USART_FLAG_TXE)==0);
     e44:	0001                	nop
C:/Users/86158/Desktop/IEECS-Design/Hardware/Reference/CHV307_Library-master/Example/libraries/zf_driver/zf_driver_uart.c:90 (discriminator 1)
     e46:	67a5                	lui	a5,0x9
     e48:	fec42703          	lw	a4,-20(s0)
     e4c:	070a                	slli	a4,a4,0x2
     e4e:	5b078793          	addi	a5,a5,1456 # 95b0 <uart_index>
     e52:	97ba                	add	a5,a5,a4
     e54:	439c                	lw	a5,0(a5)
     e56:	0007d783          	lhu	a5,0(a5)
     e5a:	07c2                	slli	a5,a5,0x10
     e5c:	83c1                	srli	a5,a5,0x10
     e5e:	0807f793          	andi	a5,a5,128
     e62:	d3f5                	beqz	a5,e46 <uart_write_byte+0x12>
C:/Users/86158/Desktop/IEECS-Design/Hardware/Reference/CHV307_Library-master/Example/libraries/zf_driver/zf_driver_uart.c:91
    ((USART_TypeDef*)uart_index[uartn])->DATAR = dat;
     e64:	67a5                	lui	a5,0x9
     e66:	fec42703          	lw	a4,-20(s0)
     e6a:	070a                	slli	a4,a4,0x2
     e6c:	5b078793          	addi	a5,a5,1456 # 95b0 <uart_index>
     e70:	97ba                	add	a5,a5,a4
     e72:	439c                	lw	a5,0(a5)
     e74:	873e                	mv	a4,a5
     e76:	feb44783          	lbu	a5,-21(s0)
     e7a:	07c2                	slli	a5,a5,0x10
     e7c:	83c1                	srli	a5,a5,0x10
     e7e:	00f71223          	sh	a5,4(a4)
C:/Users/86158/Desktop/IEECS-Design/Hardware/Reference/CHV307_Library-master/Example/libraries/zf_driver/zf_driver_uart.c:92
}
     e82:	0001                	nop
     e84:	4472                	lw	s0,28(sp)
     e86:	6105                	addi	sp,sp,32
     e88:	8082                	ret

00000e8a <uart_write_string>:
uart_write_string():
C:/Users/86158/Desktop/IEECS-Design/Hardware/Reference/CHV307_Library-master/Example/libraries/zf_driver/zf_driver_uart.c:117
//  @param      str         字符串首地址
//  @return     void
//  Sample usage:           uart_putstr(UART_1, (uint8 *)"12345")   //串口1发送12345这个字符串
//-------------------------------------------------------------------------------------------------------------------
void uart_write_string(uart_index_enum uartn, const char *str)
{
     e8a:	1101                	addi	sp,sp,-32
     e8c:	ce06                	sw	ra,28(sp)
     e8e:	cc22                	sw	s0,24(sp)
     e90:	1000                	addi	s0,sp,32
     e92:	fea42623          	sw	a0,-20(s0)
     e96:	feb42423          	sw	a1,-24(s0)
C:/Users/86158/Desktop/IEECS-Design/Hardware/Reference/CHV307_Library-master/Example/libraries/zf_driver/zf_driver_uart.c:118
    while(*str)
     e9a:	a839                	j	eb8 <uart_write_string+0x2e>
C:/Users/86158/Desktop/IEECS-Design/Hardware/Reference/CHV307_Library-master/Example/libraries/zf_driver/zf_driver_uart.c:120
    {
        uart_write_byte(uartn, *str++);
     e9c:	fe842783          	lw	a5,-24(s0)
     ea0:	00178713          	addi	a4,a5,1
     ea4:	fee42423          	sw	a4,-24(s0)
     ea8:	00078783          	lb	a5,0(a5)
     eac:	0ff7f793          	andi	a5,a5,255
     eb0:	85be                	mv	a1,a5
     eb2:	fec42503          	lw	a0,-20(s0)
     eb6:	3fbd                	jal	e34 <uart_write_byte>
C:/Users/86158/Desktop/IEECS-Design/Hardware/Reference/CHV307_Library-master/Example/libraries/zf_driver/zf_driver_uart.c:118
    while(*str)
     eb8:	fe842783          	lw	a5,-24(s0)
     ebc:	00078783          	lb	a5,0(a5)
     ec0:	fff1                	bnez	a5,e9c <uart_write_string+0x12>
C:/Users/86158/Desktop/IEECS-Design/Hardware/Reference/CHV307_Library-master/Example/libraries/zf_driver/zf_driver_uart.c:122
    }
}
     ec2:	0001                	nop
     ec4:	40f2                	lw	ra,28(sp)
     ec6:	4462                	lw	s0,24(sp)
     ec8:	6105                	addi	sp,sp,32
     eca:	8082                	ret

00000ecc <uart_query_byte>:
uart_query_byte():
C:/Users/86158/Desktop/IEECS-Design/Hardware/Reference/CHV307_Library-master/Example/libraries/zf_driver/zf_driver_uart.c:186
//  @param      *dat            接收数据的地址
//  @return     uint8           1：接收成功   0：未接收到数据
//  Sample usage:               uint8 dat; uart_query_byte(USART_1,&dat);       // 接收串口1数据  存在在dat变量里
//-------------------------------------------------------------------------------------------------------------------
uint8 uart_query_byte(uart_index_enum uartn, uint8 *dat)
{
     ecc:	1101                	addi	sp,sp,-32
     ece:	ce22                	sw	s0,28(sp)
     ed0:	1000                	addi	s0,sp,32
     ed2:	fea42623          	sw	a0,-20(s0)
     ed6:	feb42423          	sw	a1,-24(s0)
C:/Users/86158/Desktop/IEECS-Design/Hardware/Reference/CHV307_Library-master/Example/libraries/zf_driver/zf_driver_uart.c:187
    if((((USART_TypeDef*)uart_index[uartn])->STATR & USART_FLAG_RXNE) != 0)
     eda:	67a5                	lui	a5,0x9
     edc:	fec42703          	lw	a4,-20(s0)
     ee0:	070a                	slli	a4,a4,0x2
     ee2:	5b078793          	addi	a5,a5,1456 # 95b0 <uart_index>
     ee6:	97ba                	add	a5,a5,a4
     ee8:	439c                	lw	a5,0(a5)
     eea:	0007d783          	lhu	a5,0(a5)
     eee:	07c2                	slli	a5,a5,0x10
     ef0:	83c1                	srli	a5,a5,0x10
     ef2:	0207f793          	andi	a5,a5,32
     ef6:	c78d                	beqz	a5,f20 <uart_query_byte+0x54>
C:/Users/86158/Desktop/IEECS-Design/Hardware/Reference/CHV307_Library-master/Example/libraries/zf_driver/zf_driver_uart.c:189
    {
        *dat = (((USART_TypeDef*)uart_index[uartn])->DATAR & 0xFF);
     ef8:	67a5                	lui	a5,0x9
     efa:	fec42703          	lw	a4,-20(s0)
     efe:	070a                	slli	a4,a4,0x2
     f00:	5b078793          	addi	a5,a5,1456 # 95b0 <uart_index>
     f04:	97ba                	add	a5,a5,a4
     f06:	439c                	lw	a5,0(a5)
     f08:	0047d783          	lhu	a5,4(a5)
     f0c:	07c2                	slli	a5,a5,0x10
     f0e:	83c1                	srli	a5,a5,0x10
     f10:	0ff7f713          	andi	a4,a5,255
     f14:	fe842783          	lw	a5,-24(s0)
     f18:	00e78023          	sb	a4,0(a5)
C:/Users/86158/Desktop/IEECS-Design/Hardware/Reference/CHV307_Library-master/Example/libraries/zf_driver/zf_driver_uart.c:190
        return 1;
     f1c:	4785                	li	a5,1
     f1e:	a011                	j	f22 <uart_query_byte+0x56>
C:/Users/86158/Desktop/IEECS-Design/Hardware/Reference/CHV307_Library-master/Example/libraries/zf_driver/zf_driver_uart.c:192
    }
    return 0;
     f20:	4781                	li	a5,0
C:/Users/86158/Desktop/IEECS-Design/Hardware/Reference/CHV307_Library-master/Example/libraries/zf_driver/zf_driver_uart.c:193
}
     f22:	853e                	mv	a0,a5
     f24:	4472                	lw	s0,28(sp)
     f26:	6105                	addi	sp,sp,32
     f28:	8082                	ret

00000f2a <uart_init>:
uart_init():
C:/Users/86158/Desktop/IEECS-Design/Hardware/Reference/CHV307_Library-master/Example/libraries/zf_driver/zf_driver_uart.c:205
//  @param      rx_pin      串口接收引脚号
//  @return     void
//  Sample usage:           uart_init(UART_1, 115200, UART1_TX_A9, UART1_RX_A10); //串口1初始化引脚号,TX为A9,RX为A10
//-------------------------------------------------------------------------------------------------------------------
void uart_init(uart_index_enum uart_num, uint32 baud, uart_pin_enum tx_pin, uart_pin_enum rx_pin)
{
     f2a:	7179                	addi	sp,sp,-48
     f2c:	d606                	sw	ra,44(sp)
     f2e:	d422                	sw	s0,40(sp)
     f30:	1800                	addi	s0,sp,48
     f32:	fca42e23          	sw	a0,-36(s0)
     f36:	fcb42c23          	sw	a1,-40(s0)
     f3a:	fcc42a23          	sw	a2,-44(s0)
     f3e:	fcd42823          	sw	a3,-48(s0)
C:/Users/86158/Desktop/IEECS-Design/Hardware/Reference/CHV307_Library-master/Example/libraries/zf_driver/zf_driver_uart.c:206
    USART_InitTypeDef USART_InitStructure = {0};
     f42:	fe042023          	sw	zero,-32(s0)
     f46:	fe042223          	sw	zero,-28(s0)
     f4a:	fe042423          	sw	zero,-24(s0)
     f4e:	fe042623          	sw	zero,-20(s0)
C:/Users/86158/Desktop/IEECS-Design/Hardware/Reference/CHV307_Library-master/Example/libraries/zf_driver/zf_driver_uart.c:209

    // AFIO总线开启
    RCC_APB2PeriphClockCmd(RCC_APB2Periph_AFIO, ENABLE);
     f52:	4585                	li	a1,1
     f54:	4505                	li	a0,1
     f56:	565010ef          	jal	ra,2cba <RCC_APB2PeriphClockCmd>
C:/Users/86158/Desktop/IEECS-Design/Hardware/Reference/CHV307_Library-master/Example/libraries/zf_driver/zf_driver_uart.c:216

    // RX引脚和TX引脚必须组传入
//    zf_assert(((rx_pin - 1) == tx_pin) || (tx_pin == UART5_TX_C12 && UART5_RX_D2 == rx_pin));

    // 引脚初始化
    uart_gpio_init(tx_pin, rx_pin);
     f5a:	fd042583          	lw	a1,-48(s0)
     f5e:	fd442503          	lw	a0,-44(s0)
     f62:	3e01                	jal	a72 <uart_gpio_init>
C:/Users/86158/Desktop/IEECS-Design/Hardware/Reference/CHV307_Library-master/Example/libraries/zf_driver/zf_driver_uart.c:219

    // 端口重映射
    if(UART1_TX_B6 == tx_pin && UART1_RX_B7 == rx_pin)
     f64:	fd442703          	lw	a4,-44(s0)
     f68:	4789                	li	a5,2
     f6a:	00f71c63          	bne	a4,a5,f82 <uart_init+0x58>
C:/Users/86158/Desktop/IEECS-Design/Hardware/Reference/CHV307_Library-master/Example/libraries/zf_driver/zf_driver_uart.c:219 (discriminator 1)
     f6e:	fd042703          	lw	a4,-48(s0)
     f72:	478d                	li	a5,3
     f74:	00f71763          	bne	a4,a5,f82 <uart_init+0x58>
C:/Users/86158/Desktop/IEECS-Design/Hardware/Reference/CHV307_Library-master/Example/libraries/zf_driver/zf_driver_uart.c:220
        GPIO_PinRemapConfig(GPIO_Remap_USART1, ENABLE);
     f78:	4585                	li	a1,1
     f7a:	4511                	li	a0,4
     f7c:	139010ef          	jal	ra,28b4 <GPIO_PinRemapConfig>
     f80:	aa95                	j	10f4 <uart_init+0x1ca>
C:/Users/86158/Desktop/IEECS-Design/Hardware/Reference/CHV307_Library-master/Example/libraries/zf_driver/zf_driver_uart.c:221
    else if(UART2_TX_D5 == tx_pin && UART2_RX_D6 == rx_pin)
     f82:	fd442703          	lw	a4,-44(s0)
     f86:	47c9                	li	a5,18
     f88:	00f71c63          	bne	a4,a5,fa0 <uart_init+0x76>
C:/Users/86158/Desktop/IEECS-Design/Hardware/Reference/CHV307_Library-master/Example/libraries/zf_driver/zf_driver_uart.c:221 (discriminator 1)
     f8c:	fd042703          	lw	a4,-48(s0)
     f90:	47cd                	li	a5,19
     f92:	00f71763          	bne	a4,a5,fa0 <uart_init+0x76>
C:/Users/86158/Desktop/IEECS-Design/Hardware/Reference/CHV307_Library-master/Example/libraries/zf_driver/zf_driver_uart.c:222
        GPIO_PinRemapConfig(GPIO_Remap_USART2, ENABLE);
     f96:	4585                	li	a1,1
     f98:	4521                	li	a0,8
     f9a:	11b010ef          	jal	ra,28b4 <GPIO_PinRemapConfig>
     f9e:	aa99                	j	10f4 <uart_init+0x1ca>
C:/Users/86158/Desktop/IEECS-Design/Hardware/Reference/CHV307_Library-master/Example/libraries/zf_driver/zf_driver_uart.c:223
    else if(UART3_TX_C10 == tx_pin && UART3_RX_C11 == rx_pin)
     fa0:	fd442703          	lw	a4,-44(s0)
     fa4:	02200793          	li	a5,34
     fa8:	02f71063          	bne	a4,a5,fc8 <uart_init+0x9e>
C:/Users/86158/Desktop/IEECS-Design/Hardware/Reference/CHV307_Library-master/Example/libraries/zf_driver/zf_driver_uart.c:223 (discriminator 1)
     fac:	fd042703          	lw	a4,-48(s0)
     fb0:	02300793          	li	a5,35
     fb4:	00f71a63          	bne	a4,a5,fc8 <uart_init+0x9e>
C:/Users/86158/Desktop/IEECS-Design/Hardware/Reference/CHV307_Library-master/Example/libraries/zf_driver/zf_driver_uart.c:224
        GPIO_PinRemapConfig(GPIO_PartialRemap_USART3, ENABLE);
     fb8:	4585                	li	a1,1
     fba:	001407b7          	lui	a5,0x140
     fbe:	01078513          	addi	a0,a5,16 # 140010 <_data_lma+0x136434>
     fc2:	0f3010ef          	jal	ra,28b4 <GPIO_PinRemapConfig>
     fc6:	a23d                	j	10f4 <uart_init+0x1ca>
C:/Users/86158/Desktop/IEECS-Design/Hardware/Reference/CHV307_Library-master/Example/libraries/zf_driver/zf_driver_uart.c:225
    else if(UART3_TX_D8 == tx_pin && UART3_RX_D9 == rx_pin)
     fc8:	fd442703          	lw	a4,-44(s0)
     fcc:	02400793          	li	a5,36
     fd0:	02f71063          	bne	a4,a5,ff0 <uart_init+0xc6>
C:/Users/86158/Desktop/IEECS-Design/Hardware/Reference/CHV307_Library-master/Example/libraries/zf_driver/zf_driver_uart.c:225 (discriminator 1)
     fd4:	fd042703          	lw	a4,-48(s0)
     fd8:	02500793          	li	a5,37
     fdc:	00f71a63          	bne	a4,a5,ff0 <uart_init+0xc6>
C:/Users/86158/Desktop/IEECS-Design/Hardware/Reference/CHV307_Library-master/Example/libraries/zf_driver/zf_driver_uart.c:226
        GPIO_PinRemapConfig(GPIO_FullRemap_USART3, ENABLE);
     fe0:	4585                	li	a1,1
     fe2:	001407b7          	lui	a5,0x140
     fe6:	03078513          	addi	a0,a5,48 # 140030 <_data_lma+0x136454>
     fea:	0cb010ef          	jal	ra,28b4 <GPIO_PinRemapConfig>
     fee:	a219                	j	10f4 <uart_init+0x1ca>
C:/Users/86158/Desktop/IEECS-Design/Hardware/Reference/CHV307_Library-master/Example/libraries/zf_driver/zf_driver_uart.c:227
    else if(UART4_TX_B0 == tx_pin && UART4_RX_B1 == rx_pin)
     ff0:	fd442703          	lw	a4,-44(s0)
     ff4:	04200793          	li	a5,66
     ff8:	02f71163          	bne	a4,a5,101a <uart_init+0xf0>
C:/Users/86158/Desktop/IEECS-Design/Hardware/Reference/CHV307_Library-master/Example/libraries/zf_driver/zf_driver_uart.c:227 (discriminator 1)
     ffc:	fd042703          	lw	a4,-48(s0)
    1000:	04300793          	li	a5,67
    1004:	00f71b63          	bne	a4,a5,101a <uart_init+0xf0>
C:/Users/86158/Desktop/IEECS-Design/Hardware/Reference/CHV307_Library-master/Example/libraries/zf_driver/zf_driver_uart.c:228
        AFIO->PCFR2 |= 0x01<<16;
    1008:	400107b7          	lui	a5,0x40010
    100c:	4fd4                	lw	a3,28(a5)
    100e:	400107b7          	lui	a5,0x40010
    1012:	6741                	lui	a4,0x10
    1014:	8f55                	or	a4,a4,a3
    1016:	cfd8                	sw	a4,28(a5)
    1018:	a8f1                	j	10f4 <uart_init+0x1ca>
C:/Users/86158/Desktop/IEECS-Design/Hardware/Reference/CHV307_Library-master/Example/libraries/zf_driver/zf_driver_uart.c:229
    else if(UART5_TX_E8 == tx_pin && UART5_RX_E9 == rx_pin)
    101a:	fd442703          	lw	a4,-44(s0)
    101e:	05200793          	li	a5,82
    1022:	02f71263          	bne	a4,a5,1046 <uart_init+0x11c>
C:/Users/86158/Desktop/IEECS-Design/Hardware/Reference/CHV307_Library-master/Example/libraries/zf_driver/zf_driver_uart.c:229 (discriminator 1)
    1026:	fd042703          	lw	a4,-48(s0)
    102a:	05300793          	li	a5,83
    102e:	00f71c63          	bne	a4,a5,1046 <uart_init+0x11c>
C:/Users/86158/Desktop/IEECS-Design/Hardware/Reference/CHV307_Library-master/Example/libraries/zf_driver/zf_driver_uart.c:230
        AFIO->PCFR2 |= 0x02<<18;
    1032:	400107b7          	lui	a5,0x40010
    1036:	4fd4                	lw	a3,28(a5)
    1038:	400107b7          	lui	a5,0x40010
    103c:	00080737          	lui	a4,0x80
    1040:	8f55                	or	a4,a4,a3
    1042:	cfd8                	sw	a4,28(a5)
    1044:	a845                	j	10f4 <uart_init+0x1ca>
C:/Users/86158/Desktop/IEECS-Design/Hardware/Reference/CHV307_Library-master/Example/libraries/zf_driver/zf_driver_uart.c:231
    else if(UART6_TX_E10 == tx_pin && UART6_RX_E11 == rx_pin)
    1046:	fd442703          	lw	a4,-44(s0)
    104a:	06200793          	li	a5,98
    104e:	02f71263          	bne	a4,a5,1072 <uart_init+0x148>
C:/Users/86158/Desktop/IEECS-Design/Hardware/Reference/CHV307_Library-master/Example/libraries/zf_driver/zf_driver_uart.c:231 (discriminator 1)
    1052:	fd042703          	lw	a4,-48(s0)
    1056:	06300793          	li	a5,99
    105a:	00f71c63          	bne	a4,a5,1072 <uart_init+0x148>
C:/Users/86158/Desktop/IEECS-Design/Hardware/Reference/CHV307_Library-master/Example/libraries/zf_driver/zf_driver_uart.c:232
        AFIO->PCFR2 |= 0x02<<20;
    105e:	400107b7          	lui	a5,0x40010
    1062:	4fd4                	lw	a3,28(a5)
    1064:	400107b7          	lui	a5,0x40010
    1068:	00200737          	lui	a4,0x200
    106c:	8f55                	or	a4,a4,a3
    106e:	cfd8                	sw	a4,28(a5)
    1070:	a051                	j	10f4 <uart_init+0x1ca>
C:/Users/86158/Desktop/IEECS-Design/Hardware/Reference/CHV307_Library-master/Example/libraries/zf_driver/zf_driver_uart.c:233
    else if(UART7_TX_A6 == tx_pin && UART7_RX_A7 == rx_pin)
    1072:	fd442703          	lw	a4,-44(s0)
    1076:	07200793          	li	a5,114
    107a:	02f71263          	bne	a4,a5,109e <uart_init+0x174>
C:/Users/86158/Desktop/IEECS-Design/Hardware/Reference/CHV307_Library-master/Example/libraries/zf_driver/zf_driver_uart.c:233 (discriminator 1)
    107e:	fd042703          	lw	a4,-48(s0)
    1082:	07300793          	li	a5,115
    1086:	00f71c63          	bne	a4,a5,109e <uart_init+0x174>
C:/Users/86158/Desktop/IEECS-Design/Hardware/Reference/CHV307_Library-master/Example/libraries/zf_driver/zf_driver_uart.c:234
        AFIO->PCFR2 |= 0x01<<22;                       //[23:22]
    108a:	400107b7          	lui	a5,0x40010
    108e:	4fd4                	lw	a3,28(a5)
    1090:	400107b7          	lui	a5,0x40010
    1094:	00400737          	lui	a4,0x400
    1098:	8f55                	or	a4,a4,a3
    109a:	cfd8                	sw	a4,28(a5)
    109c:	a8a1                	j	10f4 <uart_init+0x1ca>
C:/Users/86158/Desktop/IEECS-Design/Hardware/Reference/CHV307_Library-master/Example/libraries/zf_driver/zf_driver_uart.c:235
    else if(UART7_TX_E12 == tx_pin && UART7_RX_E13 == rx_pin)
    109e:	fd442703          	lw	a4,-44(s0)
    10a2:	07400793          	li	a5,116
    10a6:	02f71263          	bne	a4,a5,10ca <uart_init+0x1a0>
C:/Users/86158/Desktop/IEECS-Design/Hardware/Reference/CHV307_Library-master/Example/libraries/zf_driver/zf_driver_uart.c:235 (discriminator 1)
    10aa:	fd042703          	lw	a4,-48(s0)
    10ae:	07500793          	li	a5,117
    10b2:	00f71c63          	bne	a4,a5,10ca <uart_init+0x1a0>
C:/Users/86158/Desktop/IEECS-Design/Hardware/Reference/CHV307_Library-master/Example/libraries/zf_driver/zf_driver_uart.c:236
        AFIO->PCFR2 |= 0x02<<22;                       //[23:22]
    10b6:	400107b7          	lui	a5,0x40010
    10ba:	4fd4                	lw	a3,28(a5)
    10bc:	400107b7          	lui	a5,0x40010
    10c0:	00800737          	lui	a4,0x800
    10c4:	8f55                	or	a4,a4,a3
    10c6:	cfd8                	sw	a4,28(a5)
    10c8:	a035                	j	10f4 <uart_init+0x1ca>
C:/Users/86158/Desktop/IEECS-Design/Hardware/Reference/CHV307_Library-master/Example/libraries/zf_driver/zf_driver_uart.c:237
    else if(UART8_TX_E14 == tx_pin && UART8_RX_E15 == rx_pin)
    10ca:	fd442703          	lw	a4,-44(s0)
    10ce:	08200793          	li	a5,130
    10d2:	02f71163          	bne	a4,a5,10f4 <uart_init+0x1ca>
C:/Users/86158/Desktop/IEECS-Design/Hardware/Reference/CHV307_Library-master/Example/libraries/zf_driver/zf_driver_uart.c:237 (discriminator 1)
    10d6:	fd042703          	lw	a4,-48(s0)
    10da:	08300793          	li	a5,131
    10de:	00f71b63          	bne	a4,a5,10f4 <uart_init+0x1ca>
C:/Users/86158/Desktop/IEECS-Design/Hardware/Reference/CHV307_Library-master/Example/libraries/zf_driver/zf_driver_uart.c:238
        AFIO->PCFR2 |= 0x01<<25;    //[25:24]
    10e2:	400107b7          	lui	a5,0x40010
    10e6:	4fd4                	lw	a3,28(a5)
    10e8:	400107b7          	lui	a5,0x40010
    10ec:	02000737          	lui	a4,0x2000
    10f0:	8f55                	or	a4,a4,a3
    10f2:	cfd8                	sw	a4,28(a5)
C:/Users/86158/Desktop/IEECS-Design/Hardware/Reference/CHV307_Library-master/Example/libraries/zf_driver/zf_driver_uart.c:241

    //  串口总线使能
    if(UART_1 == uart_num) RCC_APB2PeriphClockCmd(RCC_APB2Periph_USART1, ENABLE);
    10f4:	fdc42783          	lw	a5,-36(s0)
    10f8:	e791                	bnez	a5,1104 <uart_init+0x1da>
C:/Users/86158/Desktop/IEECS-Design/Hardware/Reference/CHV307_Library-master/Example/libraries/zf_driver/zf_driver_uart.c:241 (discriminator 1)
    10fa:	4585                	li	a1,1
    10fc:	6511                	lui	a0,0x4
    10fe:	3bd010ef          	jal	ra,2cba <RCC_APB2PeriphClockCmd>
    1102:	a869                	j	119c <uart_init+0x272>
C:/Users/86158/Desktop/IEECS-Design/Hardware/Reference/CHV307_Library-master/Example/libraries/zf_driver/zf_driver_uart.c:242
    else if(UART_2 == uart_num) RCC_APB1PeriphClockCmd(RCC_APB1Periph_USART2, ENABLE);
    1104:	fdc42703          	lw	a4,-36(s0)
    1108:	4785                	li	a5,1
    110a:	00f71863          	bne	a4,a5,111a <uart_init+0x1f0>
C:/Users/86158/Desktop/IEECS-Design/Hardware/Reference/CHV307_Library-master/Example/libraries/zf_driver/zf_driver_uart.c:242 (discriminator 1)
    110e:	4585                	li	a1,1
    1110:	00020537          	lui	a0,0x20
    1114:	3ed010ef          	jal	ra,2d00 <RCC_APB1PeriphClockCmd>
    1118:	a051                	j	119c <uart_init+0x272>
C:/Users/86158/Desktop/IEECS-Design/Hardware/Reference/CHV307_Library-master/Example/libraries/zf_driver/zf_driver_uart.c:243
    else if(UART_3 == uart_num) RCC_APB1PeriphClockCmd(RCC_APB1Periph_USART3, ENABLE);
    111a:	fdc42703          	lw	a4,-36(s0)
    111e:	4789                	li	a5,2
    1120:	00f71863          	bne	a4,a5,1130 <uart_init+0x206>
C:/Users/86158/Desktop/IEECS-Design/Hardware/Reference/CHV307_Library-master/Example/libraries/zf_driver/zf_driver_uart.c:243 (discriminator 1)
    1124:	4585                	li	a1,1
    1126:	00040537          	lui	a0,0x40
    112a:	3d7010ef          	jal	ra,2d00 <RCC_APB1PeriphClockCmd>
    112e:	a0bd                	j	119c <uart_init+0x272>
C:/Users/86158/Desktop/IEECS-Design/Hardware/Reference/CHV307_Library-master/Example/libraries/zf_driver/zf_driver_uart.c:244
    else if(UART_4 == uart_num) RCC_APB1PeriphClockCmd(RCC_APB1Periph_UART4, ENABLE);
    1130:	fdc42703          	lw	a4,-36(s0)
    1134:	478d                	li	a5,3
    1136:	00f71863          	bne	a4,a5,1146 <uart_init+0x21c>
C:/Users/86158/Desktop/IEECS-Design/Hardware/Reference/CHV307_Library-master/Example/libraries/zf_driver/zf_driver_uart.c:244 (discriminator 1)
    113a:	4585                	li	a1,1
    113c:	00080537          	lui	a0,0x80
    1140:	3c1010ef          	jal	ra,2d00 <RCC_APB1PeriphClockCmd>
    1144:	a8a1                	j	119c <uart_init+0x272>
C:/Users/86158/Desktop/IEECS-Design/Hardware/Reference/CHV307_Library-master/Example/libraries/zf_driver/zf_driver_uart.c:245
    else if(UART_5 == uart_num) RCC_APB1PeriphClockCmd(RCC_APB1Periph_UART5, ENABLE);
    1146:	fdc42703          	lw	a4,-36(s0)
    114a:	4791                	li	a5,4
    114c:	00f71863          	bne	a4,a5,115c <uart_init+0x232>
C:/Users/86158/Desktop/IEECS-Design/Hardware/Reference/CHV307_Library-master/Example/libraries/zf_driver/zf_driver_uart.c:245 (discriminator 1)
    1150:	4585                	li	a1,1
    1152:	00100537          	lui	a0,0x100
    1156:	3ab010ef          	jal	ra,2d00 <RCC_APB1PeriphClockCmd>
    115a:	a089                	j	119c <uart_init+0x272>
C:/Users/86158/Desktop/IEECS-Design/Hardware/Reference/CHV307_Library-master/Example/libraries/zf_driver/zf_driver_uart.c:246
    else if(UART_6 == uart_num) RCC_APB1PeriphClockCmd(RCC_APB1Periph_UART6, ENABLE);
    115c:	fdc42703          	lw	a4,-36(s0)
    1160:	4795                	li	a5,5
    1162:	00f71863          	bne	a4,a5,1172 <uart_init+0x248>
C:/Users/86158/Desktop/IEECS-Design/Hardware/Reference/CHV307_Library-master/Example/libraries/zf_driver/zf_driver_uart.c:246 (discriminator 1)
    1166:	4585                	li	a1,1
    1168:	04000513          	li	a0,64
    116c:	395010ef          	jal	ra,2d00 <RCC_APB1PeriphClockCmd>
    1170:	a035                	j	119c <uart_init+0x272>
C:/Users/86158/Desktop/IEECS-Design/Hardware/Reference/CHV307_Library-master/Example/libraries/zf_driver/zf_driver_uart.c:247
    else if(UART_7 == uart_num) RCC_APB1PeriphClockCmd(RCC_APB1Periph_UART7, ENABLE);
    1172:	fdc42703          	lw	a4,-36(s0)
    1176:	4799                	li	a5,6
    1178:	00f71863          	bne	a4,a5,1188 <uart_init+0x25e>
C:/Users/86158/Desktop/IEECS-Design/Hardware/Reference/CHV307_Library-master/Example/libraries/zf_driver/zf_driver_uart.c:247 (discriminator 1)
    117c:	4585                	li	a1,1
    117e:	08000513          	li	a0,128
    1182:	37f010ef          	jal	ra,2d00 <RCC_APB1PeriphClockCmd>
    1186:	a819                	j	119c <uart_init+0x272>
C:/Users/86158/Desktop/IEECS-Design/Hardware/Reference/CHV307_Library-master/Example/libraries/zf_driver/zf_driver_uart.c:248
    else if(UART_8 == uart_num) RCC_APB1PeriphClockCmd(RCC_APB1Periph_UART8, ENABLE);
    1188:	fdc42703          	lw	a4,-36(s0)
    118c:	479d                	li	a5,7
    118e:	00f71763          	bne	a4,a5,119c <uart_init+0x272>
C:/Users/86158/Desktop/IEECS-Design/Hardware/Reference/CHV307_Library-master/Example/libraries/zf_driver/zf_driver_uart.c:248 (discriminator 1)
    1192:	4585                	li	a1,1
    1194:	10000513          	li	a0,256
    1198:	369010ef          	jal	ra,2d00 <RCC_APB1PeriphClockCmd>
C:/Users/86158/Desktop/IEECS-Design/Hardware/Reference/CHV307_Library-master/Example/libraries/zf_driver/zf_driver_uart.c:252


    //  串口参数配置
    USART_InitStructure.USART_BaudRate = baud;
    119c:	fd842783          	lw	a5,-40(s0)
    11a0:	fef42023          	sw	a5,-32(s0)
C:/Users/86158/Desktop/IEECS-Design/Hardware/Reference/CHV307_Library-master/Example/libraries/zf_driver/zf_driver_uart.c:253
    USART_InitStructure.USART_WordLength = USART_WordLength_8b;
    11a4:	fe041223          	sh	zero,-28(s0)
C:/Users/86158/Desktop/IEECS-Design/Hardware/Reference/CHV307_Library-master/Example/libraries/zf_driver/zf_driver_uart.c:254
    USART_InitStructure.USART_StopBits = USART_StopBits_1;
    11a8:	fe041323          	sh	zero,-26(s0)
C:/Users/86158/Desktop/IEECS-Design/Hardware/Reference/CHV307_Library-master/Example/libraries/zf_driver/zf_driver_uart.c:255
    USART_InitStructure.USART_Parity = USART_Parity_No;
    11ac:	fe041423          	sh	zero,-24(s0)
C:/Users/86158/Desktop/IEECS-Design/Hardware/Reference/CHV307_Library-master/Example/libraries/zf_driver/zf_driver_uart.c:256
    USART_InitStructure.USART_HardwareFlowControl = USART_HardwareFlowControl_None;
    11b0:	fe041623          	sh	zero,-20(s0)
C:/Users/86158/Desktop/IEECS-Design/Hardware/Reference/CHV307_Library-master/Example/libraries/zf_driver/zf_driver_uart.c:257
    USART_InitStructure.USART_Mode = USART_Mode_Tx | USART_Mode_Rx;
    11b4:	47b1                	li	a5,12
    11b6:	fef41523          	sh	a5,-22(s0)
C:/Users/86158/Desktop/IEECS-Design/Hardware/Reference/CHV307_Library-master/Example/libraries/zf_driver/zf_driver_uart.c:260

    //  使能串口
    USART_Init((USART_TypeDef*)uart_index[uart_num], &USART_InitStructure);
    11ba:	67a5                	lui	a5,0x9
    11bc:	fdc42703          	lw	a4,-36(s0)
    11c0:	070a                	slli	a4,a4,0x2
    11c2:	5b078793          	addi	a5,a5,1456 # 95b0 <uart_index>
    11c6:	97ba                	add	a5,a5,a4
    11c8:	439c                	lw	a5,0(a5)
    11ca:	873e                	mv	a4,a5
    11cc:	fe040793          	addi	a5,s0,-32
    11d0:	85be                	mv	a1,a5
    11d2:	853a                	mv	a0,a4
    11d4:	78f010ef          	jal	ra,3162 <USART_Init>
C:/Users/86158/Desktop/IEECS-Design/Hardware/Reference/CHV307_Library-master/Example/libraries/zf_driver/zf_driver_uart.c:261
    USART_Cmd((USART_TypeDef*)uart_index[uart_num], ENABLE);
    11d8:	67a5                	lui	a5,0x9
    11da:	fdc42703          	lw	a4,-36(s0)
    11de:	070a                	slli	a4,a4,0x2
    11e0:	5b078793          	addi	a5,a5,1456 # 95b0 <uart_index>
    11e4:	97ba                	add	a5,a5,a4
    11e6:	439c                	lw	a5,0(a5)
    11e8:	4585                	li	a1,1
    11ea:	853e                	mv	a0,a5
    11ec:	1aa020ef          	jal	ra,3396 <USART_Cmd>
C:/Users/86158/Desktop/IEECS-Design/Hardware/Reference/CHV307_Library-master/Example/libraries/zf_driver/zf_driver_uart.c:263

}
    11f0:	0001                	nop
    11f2:	50b2                	lw	ra,44(sp)
    11f4:	5422                	lw	s0,40(sp)
    11f6:	6145                	addi	sp,sp,48
    11f8:	8082                	ret

000011fa <bluetooth_ch9141_uart_callback_ch1>:
bluetooth_ch9141_uart_callback_ch1():
C:/Users/86158/Desktop/IEECS-Design/Hardware/Reference/CHV307_Library-master/Example/libraries/zf_device/zf_device_bluetooth_ch9141.c:39
//  @since      v1.0
//  Sample usage:
//  @note       该函数在ISR文件 串口8中断程序被调用
//-------------------------------------------------------------------------------------------------------------------
void bluetooth_ch9141_uart_callback_ch1 (void)
{
    11fa:	1141                	addi	sp,sp,-16
    11fc:	c606                	sw	ra,12(sp)
    11fe:	c422                	sw	s0,8(sp)
    1200:	0800                	addi	s0,sp,16
C:/Users/86158/Desktop/IEECS-Design/Hardware/Reference/CHV307_Library-master/Example/libraries/zf_device/zf_device_bluetooth_ch9141.c:40
    uart_query_byte(BLUETOOTH_CH9141_INDEX, &bluetooth_ch9141_data);                // 读取串口数据
    1202:	82018593          	addi	a1,gp,-2016 # 20000250 <_edata>
    1206:	4519                	li	a0,6
    1208:	31d1                	jal	ecc <uart_query_byte>
C:/Users/86158/Desktop/IEECS-Design/Hardware/Reference/CHV307_Library-master/Example/libraries/zf_device/zf_device_bluetooth_ch9141.c:41
    fifo_write_buffer(&bluetooth_ch9141_fifo, &bluetooth_ch9141_data, 1);           // 存入 FIFO
    120a:	4605                	li	a2,1
    120c:	82018593          	addi	a1,gp,-2016 # 20000250 <_edata>
    1210:	8a418513          	addi	a0,gp,-1884 # 200002d4 <bluetooth_ch9141_fifo>
    1214:	2f7000ef          	jal	ra,1d0a <fifo_write_buffer>
C:/Users/86158/Desktop/IEECS-Design/Hardware/Reference/CHV307_Library-master/Example/libraries/zf_device/zf_device_bluetooth_ch9141.c:42
}
    1218:	0001                	nop
    121a:	40b2                	lw	ra,12(sp)
    121c:	4422                	lw	s0,8(sp)
    121e:	0141                	addi	sp,sp,16
    1220:	8082                	ret

00001222 <bluetooth_ch9141_uart_callback_ch2>:
bluetooth_ch9141_uart_callback_ch2():
C:/Users/86158/Desktop/IEECS-Design/Hardware/Reference/CHV307_Library-master/Example/libraries/zf_device/zf_device_bluetooth_ch9141_ch2.c:41
//  @since      v1.0
//  Sample usage:
//  @note       该函数在ISR文件 串口8中断程序被调用
//-------------------------------------------------------------------------------------------------------------------
void bluetooth_ch9141_uart_callback_ch2 (void)
{
    1222:	1141                	addi	sp,sp,-16
    1224:	c606                	sw	ra,12(sp)
    1226:	c422                	sw	s0,8(sp)
    1228:	0800                	addi	s0,sp,16
C:/Users/86158/Desktop/IEECS-Design/Hardware/Reference/CHV307_Library-master/Example/libraries/zf_device/zf_device_bluetooth_ch9141_ch2.c:42
    uart_query_byte(BLUETOOTH_CH9141_INDEX_CH2, &bluetooth_ch9141_data_ch2);                // 读取串口数据
    122a:	82118593          	addi	a1,gp,-2015 # 20000251 <bluetooth_ch9141_data_ch2>
    122e:	4505                	li	a0,1
    1230:	3971                	jal	ecc <uart_query_byte>
C:/Users/86158/Desktop/IEECS-Design/Hardware/Reference/CHV307_Library-master/Example/libraries/zf_device/zf_device_bluetooth_ch9141_ch2.c:43
    fifo_write_buffer(&bluetooth_ch9141_fifo_ch2, &bluetooth_ch9141_data_ch2, 1);           // 存入 FIFO
    1232:	4605                	li	a2,1
    1234:	82118593          	addi	a1,gp,-2015 # 20000251 <bluetooth_ch9141_data_ch2>
    1238:	8b818513          	addi	a0,gp,-1864 # 200002e8 <bluetooth_ch9141_fifo_ch2>
    123c:	2cf000ef          	jal	ra,1d0a <fifo_write_buffer>
C:/Users/86158/Desktop/IEECS-Design/Hardware/Reference/CHV307_Library-master/Example/libraries/zf_device/zf_device_bluetooth_ch9141_ch2.c:45

}
    1240:	0001                	nop
    1242:	40b2                	lw	ra,12(sp)
    1244:	4422                	lw	s0,8(sp)
    1246:	0141                	addi	sp,sp,16
    1248:	8082                	ret

0000124a <camera_uart_handler>:
camera_uart_handler():
C:/Users/86158/Desktop/IEECS-Design/Hardware/Reference/CHV307_Library-master/Example/libraries/zf_device/zf_device_camera.c:35
// @param       void
// @return      void
// Sample usage:
//-------------------------------------------------------------------------------------------------------------------
void camera_uart_handler (void)
{
    124a:	1141                	addi	sp,sp,-16
    124c:	c606                	sw	ra,12(sp)
    124e:	c422                	sw	s0,8(sp)
    1250:	0800                	addi	s0,sp,16
C:/Users/86158/Desktop/IEECS-Design/Hardware/Reference/CHV307_Library-master/Example/libraries/zf_device/zf_device_camera.c:36
    if(camera_type == CAMERA_BIN_UART)
    1252:	8341a703          	lw	a4,-1996(gp) # 20000264 <camera_type>
    1256:	4789                	li	a5,2
    1258:	00f70f63          	beq	a4,a5,1276 <camera_uart_handler+0x2c>
C:/Users/86158/Desktop/IEECS-Design/Hardware/Reference/CHV307_Library-master/Example/libraries/zf_device/zf_device_camera.c:41
    {
        // 小钻风暂不支持
        //ov7725_cof_uart_interrupt();
    }
    else if(camera_type == CAMERA_GRAYSCALE)
    125c:	8341a703          	lw	a4,-1996(gp) # 20000264 <camera_type>
    1260:	478d                	li	a5,3
    1262:	00f71463          	bne	a4,a5,126a <camera_uart_handler+0x20>
C:/Users/86158/Desktop/IEECS-Design/Hardware/Reference/CHV307_Library-master/Example/libraries/zf_device/zf_device_camera.c:44
    {
        // 总钻风串口回调函数
        mt9v03x_uart_callback_dvp();
    1266:	2099                	jal	12ac <mt9v03x_uart_callback_dvp>
C:/Users/86158/Desktop/IEECS-Design/Hardware/Reference/CHV307_Library-master/Example/libraries/zf_device/zf_device_camera.c:51
    else if(camera_type == CAMERA_COLOR)
    {
        //凌瞳串口回调函数
        scc8660_uart_callback_dvp();
    }
}
    1268:	a039                	j	1276 <camera_uart_handler+0x2c>
C:/Users/86158/Desktop/IEECS-Design/Hardware/Reference/CHV307_Library-master/Example/libraries/zf_device/zf_device_camera.c:46
    else if(camera_type == CAMERA_COLOR)
    126a:	8341a703          	lw	a4,-1996(gp) # 20000264 <camera_type>
    126e:	4791                	li	a5,4
    1270:	00f71363          	bne	a4,a5,1276 <camera_uart_handler+0x2c>
C:/Users/86158/Desktop/IEECS-Design/Hardware/Reference/CHV307_Library-master/Example/libraries/zf_device/zf_device_camera.c:49
        scc8660_uart_callback_dvp();
    1274:	2845                	jal	1324 <scc8660_uart_callback_dvp>
C:/Users/86158/Desktop/IEECS-Design/Hardware/Reference/CHV307_Library-master/Example/libraries/zf_device/zf_device_camera.c:51
}
    1276:	0001                	nop
    1278:	40b2                	lw	ra,12(sp)
    127a:	4422                	lw	s0,8(sp)
    127c:	0141                	addi	sp,sp,16
    127e:	8082                	ret

00001280 <camera_dvp_handler>:
camera_dvp_handler():
C:/Users/86158/Desktop/IEECS-Design/Hardware/Reference/CHV307_Library-master/Example/libraries/zf_device/zf_device_camera.c:82
// @param       void
// @return      void
// Sample usage:
//-------------------------------------------------------------------------------------------------------------------
void camera_dvp_handler(void)
{
    1280:	1141                	addi	sp,sp,-16
    1282:	c606                	sw	ra,12(sp)
    1284:	c422                	sw	s0,8(sp)
    1286:	0800                	addi	s0,sp,16
C:/Users/86158/Desktop/IEECS-Design/Hardware/Reference/CHV307_Library-master/Example/libraries/zf_device/zf_device_camera.c:83
    if(camera_type == CAMERA_COLOR)
    1288:	8341a703          	lw	a4,-1996(gp) # 20000264 <camera_type>
    128c:	4791                	li	a5,4
    128e:	00f71463          	bne	a4,a5,1296 <camera_dvp_handler+0x16>
C:/Users/86158/Desktop/IEECS-Design/Hardware/Reference/CHV307_Library-master/Example/libraries/zf_device/zf_device_camera.c:85
    {
        scc8660_vsync_dvp();
    1292:	28dd                	jal	1388 <scc8660_vsync_dvp>
C:/Users/86158/Desktop/IEECS-Design/Hardware/Reference/CHV307_Library-master/Example/libraries/zf_device/zf_device_camera.c:95
    }
    else if(camera_type == CAMERA_BIN_UART)
    {
        //小钻风不支持
    }
}
    1294:	a039                	j	12a2 <camera_dvp_handler+0x22>
C:/Users/86158/Desktop/IEECS-Design/Hardware/Reference/CHV307_Library-master/Example/libraries/zf_device/zf_device_camera.c:87
    else if(camera_type == CAMERA_GRAYSCALE)
    1296:	8341a703          	lw	a4,-1996(gp) # 20000264 <camera_type>
    129a:	478d                	li	a5,3
    129c:	00f71363          	bne	a4,a5,12a2 <camera_dvp_handler+0x22>
C:/Users/86158/Desktop/IEECS-Design/Hardware/Reference/CHV307_Library-master/Example/libraries/zf_device/zf_device_camera.c:89
        mt9v03x_handler_dvp();
    12a0:	2885                	jal	1310 <mt9v03x_handler_dvp>
C:/Users/86158/Desktop/IEECS-Design/Hardware/Reference/CHV307_Library-master/Example/libraries/zf_device/zf_device_camera.c:95
}
    12a2:	0001                	nop
    12a4:	40b2                	lw	ra,12(sp)
    12a6:	4422                	lw	s0,8(sp)
    12a8:	0141                	addi	sp,sp,16
    12aa:	8082                	ret

000012ac <mt9v03x_uart_callback_dvp>:
mt9v03x_uart_callback_dvp():
C:/Users/86158/Desktop/IEECS-Design/Hardware/Reference/CHV307_Library-master/Example/libraries/zf_device/zf_device_mt9v03x_dvp.c:177
// @param       void
// @return      void
// Sample usage:
//-------------------------------------------------------------------------------------------------------------------
void mt9v03x_uart_callback_dvp (void)
{
    12ac:	1141                	addi	sp,sp,-16
    12ae:	c606                	sw	ra,12(sp)
    12b0:	c422                	sw	s0,8(sp)
    12b2:	0800                	addi	s0,sp,16
C:/Users/86158/Desktop/IEECS-Design/Hardware/Reference/CHV307_Library-master/Example/libraries/zf_device/zf_device_mt9v03x_dvp.c:181
//    receive_dvp[receive_num_dvp] = ((USART_TypeDef*)uart_index[MT9V03X_COF_UART_DVP])->DATAR & 0xFF;
//    receive_num_dvp++;

    if(uart_query_byte(MT9V03X_COF_UART_DVP, &receive_dvp[receive_num_dvp]))
    12b4:	8271c783          	lbu	a5,-2009(gp) # 20000257 <receive_num_dvp>
    12b8:	873e                	mv	a4,a5
    12ba:	82418793          	addi	a5,gp,-2012 # 20000254 <receive_dvp>
    12be:	97ba                	add	a5,a5,a4
    12c0:	85be                	mv	a1,a5
    12c2:	4511                	li	a0,4
    12c4:	3121                	jal	ecc <uart_query_byte>
    12c6:	87aa                	mv	a5,a0
    12c8:	cb81                	beqz	a5,12d8 <mt9v03x_uart_callback_dvp+0x2c>
C:/Users/86158/Desktop/IEECS-Design/Hardware/Reference/CHV307_Library-master/Example/libraries/zf_device/zf_device_mt9v03x_dvp.c:182
        receive_num_dvp++;
    12ca:	8271c783          	lbu	a5,-2009(gp) # 20000257 <receive_num_dvp>
    12ce:	0785                	addi	a5,a5,1
    12d0:	0ff7f713          	andi	a4,a5,255
    12d4:	82e183a3          	sb	a4,-2009(gp) # 20000257 <receive_num_dvp>
C:/Users/86158/Desktop/IEECS-Design/Hardware/Reference/CHV307_Library-master/Example/libraries/zf_device/zf_device_mt9v03x_dvp.c:184

    if(1 == receive_num_dvp && 0XA5!=receive_dvp[0])
    12d8:	8271c703          	lbu	a4,-2009(gp) # 20000257 <receive_num_dvp>
    12dc:	4785                	li	a5,1
    12de:	00f71a63          	bne	a4,a5,12f2 <mt9v03x_uart_callback_dvp+0x46>
C:/Users/86158/Desktop/IEECS-Design/Hardware/Reference/CHV307_Library-master/Example/libraries/zf_device/zf_device_mt9v03x_dvp.c:184 (discriminator 1)
    12e2:	8241c703          	lbu	a4,-2012(gp) # 20000254 <receive_dvp>
    12e6:	0a500793          	li	a5,165
    12ea:	00f70463          	beq	a4,a5,12f2 <mt9v03x_uart_callback_dvp+0x46>
C:/Users/86158/Desktop/IEECS-Design/Hardware/Reference/CHV307_Library-master/Example/libraries/zf_device/zf_device_mt9v03x_dvp.c:185
        receive_num_dvp = 0;
    12ee:	820183a3          	sb	zero,-2009(gp) # 20000257 <receive_num_dvp>
C:/Users/86158/Desktop/IEECS-Design/Hardware/Reference/CHV307_Library-master/Example/libraries/zf_device/zf_device_mt9v03x_dvp.c:186
    if(3 == receive_num_dvp)
    12f2:	8271c703          	lbu	a4,-2009(gp) # 20000257 <receive_num_dvp>
    12f6:	478d                	li	a5,3
    12f8:	00f71763          	bne	a4,a5,1306 <mt9v03x_uart_callback_dvp+0x5a>
C:/Users/86158/Desktop/IEECS-Design/Hardware/Reference/CHV307_Library-master/Example/libraries/zf_device/zf_device_mt9v03x_dvp.c:188
    {
        receive_num_dvp = 0;
    12fc:	820183a3          	sb	zero,-2009(gp) # 20000257 <receive_num_dvp>
C:/Users/86158/Desktop/IEECS-Design/Hardware/Reference/CHV307_Library-master/Example/libraries/zf_device/zf_device_mt9v03x_dvp.c:189
        uart_receive_flag_dvp = 1;
    1300:	4705                	li	a4,1
    1302:	82e18423          	sb	a4,-2008(gp) # 20000258 <uart_receive_flag_dvp>
C:/Users/86158/Desktop/IEECS-Design/Hardware/Reference/CHV307_Library-master/Example/libraries/zf_device/zf_device_mt9v03x_dvp.c:191
    }
}
    1306:	0001                	nop
    1308:	40b2                	lw	ra,12(sp)
    130a:	4422                	lw	s0,8(sp)
    130c:	0141                	addi	sp,sp,16
    130e:	8082                	ret

00001310 <mt9v03x_handler_dvp>:
mt9v03x_handler_dvp():
C:/Users/86158/Desktop/IEECS-Design/Hardware/Reference/CHV307_Library-master/Example/libraries/zf_device/zf_device_mt9v03x_dvp.c:306
//  @return     void
//  @since      v1.0
//  Sample usage:               在isr.c里面先创建对应的中断函数，然后调用该函数(之后别忘记清除中断标志位)
//-------------------------------------------------------------------------------------------------------------------
void mt9v03x_handler_dvp(void)
{
    1310:	1141                	addi	sp,sp,-16
    1312:	c622                	sw	s0,12(sp)
    1314:	0800                	addi	s0,sp,16
C:/Users/86158/Desktop/IEECS-Design/Hardware/Reference/CHV307_Library-master/Example/libraries/zf_device/zf_device_mt9v03x_dvp.c:309
    //已经修改为循环采集模式。不需要设置地址和开启DVP
    //DVP->DMA_BUF0 = (uint32)camera_buffer_addr;       // 恢复DMA地址
    mt9v03x_finish_flag_dvp = 1;                        // 摄像头采集完成标志位置1
    1316:	4705                	li	a4,1
    1318:	82e18123          	sb	a4,-2014(gp) # 20000252 <mt9v03x_finish_flag_dvp>
C:/Users/86158/Desktop/IEECS-Design/Hardware/Reference/CHV307_Library-master/Example/libraries/zf_device/zf_device_mt9v03x_dvp.c:312
    //已经修改为循环采集模式。不需要设置地址和开启DVP
    //DVP->CR0 |= RB_DVP_ENABLE;                          // 重新打开DVP，采集下一副图像
}
    131c:	0001                	nop
    131e:	4432                	lw	s0,12(sp)
    1320:	0141                	addi	sp,sp,16
    1322:	8082                	ret

00001324 <scc8660_uart_callback_dvp>:
scc8660_uart_callback_dvp():
C:/Users/86158/Desktop/IEECS-Design/Hardware/Reference/CHV307_Library-master/Example/libraries/zf_device/zf_device_scc8660_dvp.c:106
//  @since      v1.0
//  Sample usage:	
//  @note       该函数在SDK底层fsl_lpuart文件中的串口3中断函数内调用
//-------------------------------------------------------------------------------------------------------------------
void scc8660_uart_callback_dvp(void)
{
    1324:	1141                	addi	sp,sp,-16
    1326:	c606                	sw	ra,12(sp)
    1328:	c422                	sw	s0,8(sp)
    132a:	0800                	addi	s0,sp,16
C:/Users/86158/Desktop/IEECS-Design/Hardware/Reference/CHV307_Library-master/Example/libraries/zf_device/zf_device_scc8660_dvp.c:107
    if(uart_query_byte(SCC8660_COF_UART_DVP, &scc8660_uart_receive_dvp[scc8660_uart_receive_num_dvp]))
    132c:	82f1c783          	lbu	a5,-2001(gp) # 2000025f <scc8660_uart_receive_num_dvp>
    1330:	873e                	mv	a4,a5
    1332:	82c18793          	addi	a5,gp,-2004 # 2000025c <scc8660_uart_receive_dvp>
    1336:	97ba                	add	a5,a5,a4
    1338:	85be                	mv	a1,a5
    133a:	4511                	li	a0,4
    133c:	3e41                	jal	ecc <uart_query_byte>
    133e:	87aa                	mv	a5,a0
    1340:	cb81                	beqz	a5,1350 <scc8660_uart_callback_dvp+0x2c>
C:/Users/86158/Desktop/IEECS-Design/Hardware/Reference/CHV307_Library-master/Example/libraries/zf_device/zf_device_scc8660_dvp.c:108
        scc8660_uart_receive_num_dvp++;
    1342:	82f1c783          	lbu	a5,-2001(gp) # 2000025f <scc8660_uart_receive_num_dvp>
    1346:	0785                	addi	a5,a5,1
    1348:	0ff7f713          	andi	a4,a5,255
    134c:	82e187a3          	sb	a4,-2001(gp) # 2000025f <scc8660_uart_receive_num_dvp>
C:/Users/86158/Desktop/IEECS-Design/Hardware/Reference/CHV307_Library-master/Example/libraries/zf_device/zf_device_scc8660_dvp.c:110

    if(1==scc8660_uart_receive_num_dvp && 0XA5!=scc8660_uart_receive_dvp[0])  scc8660_uart_receive_num_dvp = 0;
    1350:	82f1c703          	lbu	a4,-2001(gp) # 2000025f <scc8660_uart_receive_num_dvp>
    1354:	4785                	li	a5,1
    1356:	00f71a63          	bne	a4,a5,136a <scc8660_uart_callback_dvp+0x46>
C:/Users/86158/Desktop/IEECS-Design/Hardware/Reference/CHV307_Library-master/Example/libraries/zf_device/zf_device_scc8660_dvp.c:110 (discriminator 1)
    135a:	82c1c703          	lbu	a4,-2004(gp) # 2000025c <scc8660_uart_receive_dvp>
    135e:	0a500793          	li	a5,165
    1362:	00f70463          	beq	a4,a5,136a <scc8660_uart_callback_dvp+0x46>
C:/Users/86158/Desktop/IEECS-Design/Hardware/Reference/CHV307_Library-master/Example/libraries/zf_device/zf_device_scc8660_dvp.c:110 (discriminator 2)
    1366:	820187a3          	sb	zero,-2001(gp) # 2000025f <scc8660_uart_receive_num_dvp>
C:/Users/86158/Desktop/IEECS-Design/Hardware/Reference/CHV307_Library-master/Example/libraries/zf_device/zf_device_scc8660_dvp.c:111
    if(3 == scc8660_uart_receive_num_dvp)
    136a:	82f1c703          	lbu	a4,-2001(gp) # 2000025f <scc8660_uart_receive_num_dvp>
    136e:	478d                	li	a5,3
    1370:	00f71763          	bne	a4,a5,137e <scc8660_uart_callback_dvp+0x5a>
C:/Users/86158/Desktop/IEECS-Design/Hardware/Reference/CHV307_Library-master/Example/libraries/zf_device/zf_device_scc8660_dvp.c:113
    {
        scc8660_uart_receive_num_dvp = 0;
    1374:	820187a3          	sb	zero,-2001(gp) # 2000025f <scc8660_uart_receive_num_dvp>
C:/Users/86158/Desktop/IEECS-Design/Hardware/Reference/CHV307_Library-master/Example/libraries/zf_device/zf_device_scc8660_dvp.c:114
        scc8660_uart_receive_flag_dvp = 1;
    1378:	4705                	li	a4,1
    137a:	82e18823          	sb	a4,-2000(gp) # 20000260 <scc8660_uart_receive_flag_dvp>
C:/Users/86158/Desktop/IEECS-Design/Hardware/Reference/CHV307_Library-master/Example/libraries/zf_device/zf_device_scc8660_dvp.c:116
    }
}
    137e:	0001                	nop
    1380:	40b2                	lw	ra,12(sp)
    1382:	4422                	lw	s0,8(sp)
    1384:	0141                	addi	sp,sp,16
    1386:	8082                	ret

00001388 <scc8660_vsync_dvp>:
scc8660_vsync_dvp():
C:/Users/86158/Desktop/IEECS-Design/Hardware/Reference/CHV307_Library-master/Example/libraries/zf_device/zf_device_scc8660_dvp.c:452
//  @return     void
//  @since      v1.0
//  Sample usage:               在isr.c里面先创建对应的中断函数，然后调用该函数(之后别忘记清除中断标志位)
//-------------------------------------------------------------------------------------------------------------------
void scc8660_vsync_dvp(void)
{
    1388:	1141                	addi	sp,sp,-16
    138a:	c622                	sw	s0,12(sp)
    138c:	0800                	addi	s0,sp,16
C:/Users/86158/Desktop/IEECS-Design/Hardware/Reference/CHV307_Library-master/Example/libraries/zf_device/zf_device_scc8660_dvp.c:458
    //已经修改为循环采集模式。不需要设置地址和开启DVP
    //恢复DMA地址
    //DVP->DMA_BUF0 = (uint32)camera_buffer_addr;

    //采集完成标志位置1
    scc8660_finish_flag_dvp = 1;
    138e:	4705                	li	a4,1
    1390:	82e188a3          	sb	a4,-1999(gp) # 20000261 <scc8660_finish_flag_dvp>
C:/Users/86158/Desktop/IEECS-Design/Hardware/Reference/CHV307_Library-master/Example/libraries/zf_device/zf_device_scc8660_dvp.c:463

    //已经修改为循环采集模式。不需要设置地址和开启DVP
    //开启DVP
    //DVP->CR0 |= RB_DVP_ENABLE;
}
    1394:	0001                	nop
    1396:	4432                	lw	s0,12(sp)
    1398:	0141                	addi	sp,sp,16
    139a:	8082                	ret

0000139c <wireless_ch573_callback>:
wireless_ch573_callback():
C:/Users/86158/Desktop/IEECS-Design/Hardware/Reference/CHV307_Library-master/Example/libraries/zf_device/zf_device_wireless_ch573.c:37
// @return      void
// Sample usage:
// @note
//-------------------------------------------------------------------------------------------------------------------
void wireless_ch573_callback (void)
{
    139c:	1141                	addi	sp,sp,-16
    139e:	c606                	sw	ra,12(sp)
    13a0:	c422                	sw	s0,8(sp)
    13a2:	0800                	addi	s0,sp,16
C:/Users/86158/Desktop/IEECS-Design/Hardware/Reference/CHV307_Library-master/Example/libraries/zf_device/zf_device_wireless_ch573.c:38
    uart_query_byte(WIRELESS_CH573_INDEX, &wireless_ch573_data);
    13a4:	83c18593          	addi	a1,gp,-1988 # 2000026c <wireless_ch573_data>
    13a8:	4505                	li	a0,1
    13aa:	360d                	jal	ecc <uart_query_byte>
C:/Users/86158/Desktop/IEECS-Design/Hardware/Reference/CHV307_Library-master/Example/libraries/zf_device/zf_device_wireless_ch573.c:39
    fifo_write_buffer(&wireless_ch573_fifo, &wireless_ch573_data, 1);
    13ac:	4605                	li	a2,1
    13ae:	83c18593          	addi	a1,gp,-1988 # 2000026c <wireless_ch573_data>
    13b2:	8cc18513          	addi	a0,gp,-1844 # 200002fc <wireless_ch573_fifo>
    13b6:	155000ef          	jal	ra,1d0a <fifo_write_buffer>
C:/Users/86158/Desktop/IEECS-Design/Hardware/Reference/CHV307_Library-master/Example/libraries/zf_device/zf_device_wireless_ch573.c:41

}
    13ba:	0001                	nop
    13bc:	40b2                	lw	ra,12(sp)
    13be:	4422                	lw	s0,8(sp)
    13c0:	0141                	addi	sp,sp,16
    13c2:	8082                	ret

000013c4 <wireless_uart_callback>:
wireless_uart_callback():
C:/Users/86158/Desktop/IEECS-Design/Hardware/Reference/CHV307_Library-master/Example/libraries/zf_device/zf_device_wireless_uart.c:41
// @return      void
// Sample usage:
// @note
//-------------------------------------------------------------------------------------------------------------------
void wireless_uart_callback (void)
{
    13c4:	1141                	addi	sp,sp,-16
    13c6:	c606                	sw	ra,12(sp)
    13c8:	c422                	sw	s0,8(sp)
    13ca:	0800                	addi	s0,sp,16
C:/Users/86158/Desktop/IEECS-Design/Hardware/Reference/CHV307_Library-master/Example/libraries/zf_device/zf_device_wireless_uart.c:42
    uart_query_byte(WIRELESS_UART_INDEX, &wireless_uart_data);
    13cc:	83d18593          	addi	a1,gp,-1987 # 2000026d <wireless_uart_data>
    13d0:	4505                	li	a0,1
    13d2:	3ced                	jal	ecc <uart_query_byte>
C:/Users/86158/Desktop/IEECS-Design/Hardware/Reference/CHV307_Library-master/Example/libraries/zf_device/zf_device_wireless_uart.c:43
    fifo_write_buffer(&wireless_uart_fifo, &wireless_uart_data, 1);
    13d4:	4605                	li	a2,1
    13d6:	83d18593          	addi	a1,gp,-1987 # 2000026d <wireless_uart_data>
    13da:	8e018513          	addi	a0,gp,-1824 # 20000310 <wireless_uart_fifo>
    13de:	12d000ef          	jal	ra,1d0a <fifo_write_buffer>
C:/Users/86158/Desktop/IEECS-Design/Hardware/Reference/CHV307_Library-master/Example/libraries/zf_device/zf_device_wireless_uart.c:51
    {
        wireless_auto_baud_flag = 3;
        fifo_read_buffer(&wireless_uart_fifo, (uint8 *)wireless_auto_baud_data, (uint32 *)&wireless_auto_baud_flag, FIFO_READ_AND_CLEAN);
    }
#endif
}
    13e2:	0001                	nop
    13e4:	40b2                	lw	ra,12(sp)
    13e6:	4422                	lw	s0,8(sp)
    13e8:	0141                	addi	sp,sp,16
    13ea:	8082                	ret

000013ec <clock_init>:
clock_init():
C:/Users/86158/Desktop/IEECS-Design/Hardware/Reference/CHV307_Library-master/Example/libraries/zf_common/zf_common_clock.c:36
// @param       clock           时钟频率 推荐使用 zf_common_clock.h 中 system_clock_enum 定义的选项
// @return      void
// Sample usage:                clock_init(SYSTEM_CLOCK_144M);                   // 初始化核心时钟为 144MHz
//-------------------------------------------------------------------------------------------------------------------
void clock_init (uint32 clock)
{
    13ec:	1101                	addi	sp,sp,-32
    13ee:	ce06                	sw	ra,28(sp)
    13f0:	cc22                	sw	s0,24(sp)
    13f2:	1000                	addi	s0,sp,32
    13f4:	fea42623          	sw	a0,-20(s0)
C:/Users/86158/Desktop/IEECS-Design/Hardware/Reference/CHV307_Library-master/Example/libraries/zf_common/zf_common_clock.c:37
    system_clock = clock;                                                       // 记录核心时钟频率
    13f8:	fec42703          	lw	a4,-20(s0)
    13fc:	84e1a023          	sw	a4,-1984(gp) # 20000270 <system_clock>
C:/Users/86158/Desktop/IEECS-Design/Hardware/Reference/CHV307_Library-master/Example/libraries/zf_common/zf_common_clock.c:38
    clock_reset();
    1400:	2819                	jal	1416 <clock_reset>
C:/Users/86158/Desktop/IEECS-Design/Hardware/Reference/CHV307_Library-master/Example/libraries/zf_common/zf_common_clock.c:39
    clock_set_freq(clock);
    1402:	fec42503          	lw	a0,-20(s0)
    1406:	2059                	jal	148c <clock_set_freq>
C:/Users/86158/Desktop/IEECS-Design/Hardware/Reference/CHV307_Library-master/Example/libraries/zf_common/zf_common_clock.c:40
    interrupt_init();
    1408:	203000ef          	jal	ra,1e0a <interrupt_init>
C:/Users/86158/Desktop/IEECS-Design/Hardware/Reference/CHV307_Library-master/Example/libraries/zf_common/zf_common_clock.c:41
}
    140c:	0001                	nop
    140e:	40f2                	lw	ra,28(sp)
    1410:	4462                	lw	s0,24(sp)
    1412:	6105                	addi	sp,sp,32
    1414:	8082                	ret

00001416 <clock_reset>:
clock_reset():
C:/Users/86158/Desktop/IEECS-Design/Hardware/Reference/CHV307_Library-master/Example/libraries/zf_common/zf_common_clock.c:49
// @brief       核心时钟恢复初始设置 内部调用
// @param       void
// @return      void
//-------------------------------------------------------------------------------------------------------------------
static void clock_reset (void)
{
    1416:	1141                	addi	sp,sp,-16
    1418:	c622                	sw	s0,12(sp)
    141a:	0800                	addi	s0,sp,16
C:/Users/86158/Desktop/IEECS-Design/Hardware/Reference/CHV307_Library-master/Example/libraries/zf_common/zf_common_clock.c:50
    RCC->CTLR |= (uint32)0x00000001;      //使能HSI振荡器
    141c:	400217b7          	lui	a5,0x40021
    1420:	4398                	lw	a4,0(a5)
    1422:	400217b7          	lui	a5,0x40021
    1426:	00176713          	ori	a4,a4,1
    142a:	c398                	sw	a4,0(a5)
C:/Users/86158/Desktop/IEECS-Design/Hardware/Reference/CHV307_Library-master/Example/libraries/zf_common/zf_common_clock.c:51
    RCC->CFGR0 &= (uint32)0xF8FF0000;
    142c:	400217b7          	lui	a5,0x40021
    1430:	43d4                	lw	a3,4(a5)
    1432:	400217b7          	lui	a5,0x40021
    1436:	f8ff0737          	lui	a4,0xf8ff0
    143a:	8f75                	and	a4,a4,a3
    143c:	c3d8                	sw	a4,4(a5)
C:/Users/86158/Desktop/IEECS-Design/Hardware/Reference/CHV307_Library-master/Example/libraries/zf_common/zf_common_clock.c:52
    RCC->CTLR &= (uint32)0xFEF6FFFF;
    143e:	400217b7          	lui	a5,0x40021
    1442:	4394                	lw	a3,0(a5)
    1444:	400217b7          	lui	a5,0x40021
    1448:	fef70737          	lui	a4,0xfef70
    144c:	177d                	addi	a4,a4,-1
    144e:	8f75                	and	a4,a4,a3
    1450:	c398                	sw	a4,0(a5)
C:/Users/86158/Desktop/IEECS-Design/Hardware/Reference/CHV307_Library-master/Example/libraries/zf_common/zf_common_clock.c:53
    RCC->CTLR &= (uint32)0xFFFBFFFF;
    1452:	400217b7          	lui	a5,0x40021
    1456:	4394                	lw	a3,0(a5)
    1458:	400217b7          	lui	a5,0x40021
    145c:	fffc0737          	lui	a4,0xfffc0
    1460:	177d                	addi	a4,a4,-1
    1462:	8f75                	and	a4,a4,a3
    1464:	c398                	sw	a4,0(a5)
C:/Users/86158/Desktop/IEECS-Design/Hardware/Reference/CHV307_Library-master/Example/libraries/zf_common/zf_common_clock.c:54
    RCC->CFGR0 &= (uint32)0xFF80FFFF;
    1466:	400217b7          	lui	a5,0x40021
    146a:	43d4                	lw	a3,4(a5)
    146c:	400217b7          	lui	a5,0x40021
    1470:	ff810737          	lui	a4,0xff810
    1474:	177d                	addi	a4,a4,-1
    1476:	8f75                	and	a4,a4,a3
    1478:	c3d8                	sw	a4,4(a5)
C:/Users/86158/Desktop/IEECS-Design/Hardware/Reference/CHV307_Library-master/Example/libraries/zf_common/zf_common_clock.c:55
    RCC->INTR = 0x009F0000;                 // 禁用所有中断并清除挂起位
    147a:	400217b7          	lui	a5,0x40021
    147e:	009f0737          	lui	a4,0x9f0
    1482:	c798                	sw	a4,8(a5)
C:/Users/86158/Desktop/IEECS-Design/Hardware/Reference/CHV307_Library-master/Example/libraries/zf_common/zf_common_clock.c:56
}
    1484:	0001                	nop
    1486:	4432                	lw	s0,12(sp)
    1488:	0141                	addi	sp,sp,16
    148a:	8082                	ret

0000148c <clock_set_freq>:
clock_set_freq():
C:/Users/86158/Desktop/IEECS-Design/Hardware/Reference/CHV307_Library-master/Example/libraries/zf_common/zf_common_clock.c:66
// @brief       核心时钟设置
// @param       clock           时钟频率 推荐使用 zf_common_clock.h 中 system_clock_enum 定义的选项
// @return      void
//-------------------------------------------------------------------------------------------------------------------
static void clock_set_freq (uint32 clock)
{
    148c:	7179                	addi	sp,sp,-48
    148e:	d622                	sw	s0,44(sp)
    1490:	1800                	addi	s0,sp,48
    1492:	fca42e23          	sw	a0,-36(s0)
C:/Users/86158/Desktop/IEECS-Design/Hardware/Reference/CHV307_Library-master/Example/libraries/zf_common/zf_common_clock.c:67
    __IO uint32 StartUpCounter = 0, HSEStatus = 0;
    1496:	fe042623          	sw	zero,-20(s0)
    149a:	fe042423          	sw	zero,-24(s0)
C:/Users/86158/Desktop/IEECS-Design/Hardware/Reference/CHV307_Library-master/Example/libraries/zf_common/zf_common_clock.c:69

    RCC->CTLR |= ((uint32)RCC_HSEON);
    149e:	400217b7          	lui	a5,0x40021
    14a2:	4394                	lw	a3,0(a5)
    14a4:	400217b7          	lui	a5,0x40021
    14a8:	6741                	lui	a4,0x10
    14aa:	8f55                	or	a4,a4,a3
    14ac:	c398                	sw	a4,0(a5)
C:/Users/86158/Desktop/IEECS-Design/Hardware/Reference/CHV307_Library-master/Example/libraries/zf_common/zf_common_clock.c:74 (discriminator 2)

    /* Wait till HSE is ready and if Time out is reached exit */
    do
    {
        HSEStatus = RCC->CTLR & RCC_HSERDY;
    14ae:	400217b7          	lui	a5,0x40021
    14b2:	4398                	lw	a4,0(a5)
    14b4:	000207b7          	lui	a5,0x20
    14b8:	8ff9                	and	a5,a5,a4
    14ba:	fef42423          	sw	a5,-24(s0)
C:/Users/86158/Desktop/IEECS-Design/Hardware/Reference/CHV307_Library-master/Example/libraries/zf_common/zf_common_clock.c:75 (discriminator 2)
        StartUpCounter++;
    14be:	fec42783          	lw	a5,-20(s0)
    14c2:	0785                	addi	a5,a5,1
    14c4:	fef42623          	sw	a5,-20(s0)
C:/Users/86158/Desktop/IEECS-Design/Hardware/Reference/CHV307_Library-master/Example/libraries/zf_common/zf_common_clock.c:76 (discriminator 2)
    } while((HSEStatus == 0) && (StartUpCounter != HSE_STARTUP_TIMEOUT));
    14c8:	fe842783          	lw	a5,-24(s0)
    14cc:	e799                	bnez	a5,14da <clock_set_freq+0x4e>
C:/Users/86158/Desktop/IEECS-Design/Hardware/Reference/CHV307_Library-master/Example/libraries/zf_common/zf_common_clock.c:76 (discriminator 1)
    14ce:	fec42703          	lw	a4,-20(s0)
    14d2:	50000793          	li	a5,1280
    14d6:	fcf71ce3          	bne	a4,a5,14ae <clock_set_freq+0x22>
C:/Users/86158/Desktop/IEECS-Design/Hardware/Reference/CHV307_Library-master/Example/libraries/zf_common/zf_common_clock.c:78

    if ((RCC->CTLR & RCC_HSERDY) != RESET)
    14da:	400217b7          	lui	a5,0x40021
    14de:	4398                	lw	a4,0(a5)
    14e0:	000207b7          	lui	a5,0x20
    14e4:	8ff9                	and	a5,a5,a4
    14e6:	c789                	beqz	a5,14f0 <clock_set_freq+0x64>
C:/Users/86158/Desktop/IEECS-Design/Hardware/Reference/CHV307_Library-master/Example/libraries/zf_common/zf_common_clock.c:80
    {
        HSEStatus = (uint32)0x01;
    14e8:	4785                	li	a5,1
    14ea:	fef42423          	sw	a5,-24(s0)
    14ee:	a019                	j	14f4 <clock_set_freq+0x68>
C:/Users/86158/Desktop/IEECS-Design/Hardware/Reference/CHV307_Library-master/Example/libraries/zf_common/zf_common_clock.c:84
    }
    else
    {
        HSEStatus = (uint32)0x00;
    14f0:	fe042423          	sw	zero,-24(s0)
C:/Users/86158/Desktop/IEECS-Design/Hardware/Reference/CHV307_Library-master/Example/libraries/zf_common/zf_common_clock.c:87
    }

    if (HSEStatus == (uint32)0x01)
    14f4:	fe842703          	lw	a4,-24(s0)
    14f8:	4785                	li	a5,1
    14fa:	1ef71563          	bne	a4,a5,16e4 <clock_set_freq+0x258>
C:/Users/86158/Desktop/IEECS-Design/Hardware/Reference/CHV307_Library-master/Example/libraries/zf_common/zf_common_clock.c:90
    {
        /* Enable Prefetch Buffer */
        FLASH->ACTLR |= FLASH_ACTLR_PRFTBE;
    14fe:	400227b7          	lui	a5,0x40022
    1502:	4398                	lw	a4,0(a5)
    1504:	400227b7          	lui	a5,0x40022
    1508:	01076713          	ori	a4,a4,16
    150c:	c398                	sw	a4,0(a5)
C:/Users/86158/Desktop/IEECS-Design/Hardware/Reference/CHV307_Library-master/Example/libraries/zf_common/zf_common_clock.c:93

        /* Flash wait state */
        FLASH->ACTLR &= (uint32)((uint32)~FLASH_ACTLR_LATENCY);
    150e:	400227b7          	lui	a5,0x40022
    1512:	4398                	lw	a4,0(a5)
    1514:	400227b7          	lui	a5,0x40022
    1518:	9b71                	andi	a4,a4,-4
    151a:	c398                	sw	a4,0(a5)
C:/Users/86158/Desktop/IEECS-Design/Hardware/Reference/CHV307_Library-master/Example/libraries/zf_common/zf_common_clock.c:95

        FLASH->ACTLR |= (((clock-1)/24000000)&0x07);
    151c:	400227b7          	lui	a5,0x40022
    1520:	4394                	lw	a3,0(a5)
    1522:	fdc42783          	lw	a5,-36(s0)
    1526:	fff78713          	addi	a4,a5,-1 # 40021fff <_eusrstack+0x20011fff>
    152a:	016e37b7          	lui	a5,0x16e3
    152e:	60078793          	addi	a5,a5,1536 # 16e3600 <_data_lma+0x16d9a24>
    1532:	02f757b3          	divu	a5,a4,a5
    1536:	0077f713          	andi	a4,a5,7
    153a:	400227b7          	lui	a5,0x40022
    153e:	8f55                	or	a4,a4,a3
    1540:	c398                	sw	a4,0(a5)
C:/Users/86158/Desktop/IEECS-Design/Hardware/Reference/CHV307_Library-master/Example/libraries/zf_common/zf_common_clock.c:98

        /* HCLK = SYSCLK */
        RCC->CFGR0 |= (uint32)RCC_HPRE_DIV1;
    1542:	40021737          	lui	a4,0x40021
    1546:	400217b7          	lui	a5,0x40021
    154a:	4358                	lw	a4,4(a4)
    154c:	c3d8                	sw	a4,4(a5)
C:/Users/86158/Desktop/IEECS-Design/Hardware/Reference/CHV307_Library-master/Example/libraries/zf_common/zf_common_clock.c:100
        /* PCLK2 = HCLK */
        RCC->CFGR0 |= (uint32)RCC_PPRE2_DIV1;
    154e:	40021737          	lui	a4,0x40021
    1552:	400217b7          	lui	a5,0x40021
    1556:	4358                	lw	a4,4(a4)
    1558:	c3d8                	sw	a4,4(a5)
C:/Users/86158/Desktop/IEECS-Design/Hardware/Reference/CHV307_Library-master/Example/libraries/zf_common/zf_common_clock.c:102
        /* PCLK1 = HCLK */
        RCC->CFGR0 |= (uint32)RCC_PPRE1_DIV1;
    155a:	40021737          	lui	a4,0x40021
    155e:	400217b7          	lui	a5,0x40021
    1562:	4358                	lw	a4,4(a4)
    1564:	c3d8                	sw	a4,4(a5)
C:/Users/86158/Desktop/IEECS-Design/Hardware/Reference/CHV307_Library-master/Example/libraries/zf_common/zf_common_clock.c:105


        if(clock == SYSTEM_CLOCK_XTAL)
    1566:	fdc42703          	lw	a4,-36(s0)
    156a:	007a17b7          	lui	a5,0x7a1
    156e:	20078793          	addi	a5,a5,512 # 7a1200 <_data_lma+0x797624>
    1572:	02f71b63          	bne	a4,a5,15a8 <clock_set_freq+0x11c>
C:/Users/86158/Desktop/IEECS-Design/Hardware/Reference/CHV307_Library-master/Example/libraries/zf_common/zf_common_clock.c:108
        {
            /* Select HSE as system clock source */
            RCC->CFGR0 &= (uint32)((uint32)~(RCC_SW));
    1576:	400217b7          	lui	a5,0x40021
    157a:	43d8                	lw	a4,4(a5)
    157c:	400217b7          	lui	a5,0x40021
    1580:	9b71                	andi	a4,a4,-4
    1582:	c3d8                	sw	a4,4(a5)
C:/Users/86158/Desktop/IEECS-Design/Hardware/Reference/CHV307_Library-master/Example/libraries/zf_common/zf_common_clock.c:109
            RCC->CFGR0 |= (uint32)RCC_SW_HSE;
    1584:	400217b7          	lui	a5,0x40021
    1588:	43d8                	lw	a4,4(a5)
    158a:	400217b7          	lui	a5,0x40021
    158e:	00176713          	ori	a4,a4,1
    1592:	c3d8                	sw	a4,4(a5)
C:/Users/86158/Desktop/IEECS-Design/Hardware/Reference/CHV307_Library-master/Example/libraries/zf_common/zf_common_clock.c:111
            /* Wait till HSE is used as system clock source */
            while ((RCC->CFGR0 & (uint32)RCC_SWS) != (uint32)0x04)
    1594:	0001                	nop
C:/Users/86158/Desktop/IEECS-Design/Hardware/Reference/CHV307_Library-master/Example/libraries/zf_common/zf_common_clock.c:111 (discriminator 1)
    1596:	400217b7          	lui	a5,0x40021
    159a:	43dc                	lw	a5,4(a5)
    159c:	00c7f713          	andi	a4,a5,12
    15a0:	4791                	li	a5,4
    15a2:	fef71ae3          	bne	a4,a5,1596 <clock_set_freq+0x10a>
C:/Users/86158/Desktop/IEECS-Design/Hardware/Reference/CHV307_Library-master/Example/libraries/zf_common/zf_common_clock.c:161
        /*
        * If HSE fails to start-up, the application will have wrong clock
        * configuration. User can add here some code to deal with this error
        */
    }
}
    15a6:	a281                	j	16e6 <clock_set_freq+0x25a>
C:/Users/86158/Desktop/IEECS-Design/Hardware/Reference/CHV307_Library-master/Example/libraries/zf_common/zf_common_clock.c:118
            RCC->CFGR0 &= (uint32)((uint32)~(RCC_PLLSRC | RCC_PLLXTPRE | RCC_PLLMULL));
    15a8:	400217b7          	lui	a5,0x40021
    15ac:	43d4                	lw	a3,4(a5)
    15ae:	400217b7          	lui	a5,0x40021
    15b2:	ffc10737          	lui	a4,0xffc10
    15b6:	177d                	addi	a4,a4,-1
    15b8:	8f75                	and	a4,a4,a3
    15ba:	c3d8                	sw	a4,4(a5)
C:/Users/86158/Desktop/IEECS-Design/Hardware/Reference/CHV307_Library-master/Example/libraries/zf_common/zf_common_clock.c:120
            if(clock == SYSTEM_CLOCK_144M)
    15bc:	fdc42703          	lw	a4,-36(s0)
    15c0:	089547b7          	lui	a5,0x8954
    15c4:	40078793          	addi	a5,a5,1024 # 8954400 <_data_lma+0x894a824>
    15c8:	00f71b63          	bne	a4,a5,15de <clock_set_freq+0x152>
C:/Users/86158/Desktop/IEECS-Design/Hardware/Reference/CHV307_Library-master/Example/libraries/zf_common/zf_common_clock.c:121
            RCC->CFGR0 |= (uint32)(RCC_PLLSRC_HSE | RCC_PLLXTPRE_HSE | RCC_PLLMULL18_EXTEN);
    15cc:	400217b7          	lui	a5,0x40021
    15d0:	43d4                	lw	a3,4(a5)
    15d2:	400217b7          	lui	a5,0x40021
    15d6:	6741                	lui	a4,0x10
    15d8:	8f55                	or	a4,a4,a3
    15da:	c3d8                	sw	a4,4(a5)
    15dc:	a855                	j	1690 <clock_set_freq+0x204>
C:/Users/86158/Desktop/IEECS-Design/Hardware/Reference/CHV307_Library-master/Example/libraries/zf_common/zf_common_clock.c:122
            else if(clock == SYSTEM_CLOCK_120M)
    15de:	fdc42703          	lw	a4,-36(s0)
    15e2:	072717b7          	lui	a5,0x7271
    15e6:	e0078793          	addi	a5,a5,-512 # 7270e00 <_data_lma+0x7267224>
    15ea:	00f71c63          	bne	a4,a5,1602 <clock_set_freq+0x176>
C:/Users/86158/Desktop/IEECS-Design/Hardware/Reference/CHV307_Library-master/Example/libraries/zf_common/zf_common_clock.c:123
            RCC->CFGR0 |= (uint32)(RCC_PLLSRC_HSE | RCC_PLLXTPRE_HSE | RCC_PLLMULL15_EXTEN);
    15ee:	400217b7          	lui	a5,0x40021
    15f2:	43d4                	lw	a3,4(a5)
    15f4:	400217b7          	lui	a5,0x40021
    15f8:	00390737          	lui	a4,0x390
    15fc:	8f55                	or	a4,a4,a3
    15fe:	c3d8                	sw	a4,4(a5)
    1600:	a841                	j	1690 <clock_set_freq+0x204>
C:/Users/86158/Desktop/IEECS-Design/Hardware/Reference/CHV307_Library-master/Example/libraries/zf_common/zf_common_clock.c:124
            else if(clock == SYSTEM_CLOCK_96M)
    1602:	fdc42703          	lw	a4,-36(s0)
    1606:	05b8e7b7          	lui	a5,0x5b8e
    160a:	80078793          	addi	a5,a5,-2048 # 5b8d800 <_data_lma+0x5b83c24>
    160e:	00f71c63          	bne	a4,a5,1626 <clock_set_freq+0x19a>
C:/Users/86158/Desktop/IEECS-Design/Hardware/Reference/CHV307_Library-master/Example/libraries/zf_common/zf_common_clock.c:125
            RCC->CFGR0 |= (uint32)(RCC_PLLSRC_HSE | RCC_PLLXTPRE_HSE | RCC_PLLMULL12_EXTEN);
    1612:	400217b7          	lui	a5,0x40021
    1616:	43d4                	lw	a3,4(a5)
    1618:	400217b7          	lui	a5,0x40021
    161c:	00290737          	lui	a4,0x290
    1620:	8f55                	or	a4,a4,a3
    1622:	c3d8                	sw	a4,4(a5)
    1624:	a0b5                	j	1690 <clock_set_freq+0x204>
C:/Users/86158/Desktop/IEECS-Design/Hardware/Reference/CHV307_Library-master/Example/libraries/zf_common/zf_common_clock.c:126
            else if(clock == SYSTEM_CLOCK_72M)
    1626:	fdc42703          	lw	a4,-36(s0)
    162a:	044aa7b7          	lui	a5,0x44aa
    162e:	20078793          	addi	a5,a5,512 # 44aa200 <_data_lma+0x44a0624>
    1632:	00f71c63          	bne	a4,a5,164a <clock_set_freq+0x1be>
C:/Users/86158/Desktop/IEECS-Design/Hardware/Reference/CHV307_Library-master/Example/libraries/zf_common/zf_common_clock.c:127
            RCC->CFGR0 |= (uint32)(RCC_PLLSRC_HSE | RCC_PLLXTPRE_HSE | RCC_PLLMULL9_EXTEN);
    1636:	400217b7          	lui	a5,0x40021
    163a:	43d4                	lw	a3,4(a5)
    163c:	400217b7          	lui	a5,0x40021
    1640:	001d0737          	lui	a4,0x1d0
    1644:	8f55                	or	a4,a4,a3
    1646:	c3d8                	sw	a4,4(a5)
    1648:	a0a1                	j	1690 <clock_set_freq+0x204>
C:/Users/86158/Desktop/IEECS-Design/Hardware/Reference/CHV307_Library-master/Example/libraries/zf_common/zf_common_clock.c:128
            else if(clock == SYSTEM_CLOCK_48M)
    164a:	fdc42703          	lw	a4,-36(s0)
    164e:	02dc77b7          	lui	a5,0x2dc7
    1652:	c0078793          	addi	a5,a5,-1024 # 2dc6c00 <_data_lma+0x2dbd024>
    1656:	00f71c63          	bne	a4,a5,166e <clock_set_freq+0x1e2>
C:/Users/86158/Desktop/IEECS-Design/Hardware/Reference/CHV307_Library-master/Example/libraries/zf_common/zf_common_clock.c:129
            RCC->CFGR0 |= (uint32)(RCC_PLLSRC_HSE | RCC_PLLXTPRE_HSE | RCC_PLLMULL6_EXTEN);
    165a:	400217b7          	lui	a5,0x40021
    165e:	43d4                	lw	a3,4(a5)
    1660:	400217b7          	lui	a5,0x40021
    1664:	00110737          	lui	a4,0x110
    1668:	8f55                	or	a4,a4,a3
    166a:	c3d8                	sw	a4,4(a5)
    166c:	a015                	j	1690 <clock_set_freq+0x204>
C:/Users/86158/Desktop/IEECS-Design/Hardware/Reference/CHV307_Library-master/Example/libraries/zf_common/zf_common_clock.c:130
            else if(clock == SYSTEM_CLOCK_24M)
    166e:	fdc42703          	lw	a4,-36(s0)
    1672:	016e37b7          	lui	a5,0x16e3
    1676:	60078793          	addi	a5,a5,1536 # 16e3600 <_data_lma+0x16d9a24>
    167a:	00f71b63          	bne	a4,a5,1690 <clock_set_freq+0x204>
C:/Users/86158/Desktop/IEECS-Design/Hardware/Reference/CHV307_Library-master/Example/libraries/zf_common/zf_common_clock.c:131
            RCC->CFGR0 |= (uint32)(RCC_PLLSRC_HSE | RCC_PLLXTPRE_HSE | RCC_PLLMULL3_EXTEN);
    167e:	400217b7          	lui	a5,0x40021
    1682:	43d4                	lw	a3,4(a5)
    1684:	400217b7          	lui	a5,0x40021
    1688:	00050737          	lui	a4,0x50
    168c:	8f55                	or	a4,a4,a3
    168e:	c3d8                	sw	a4,4(a5)
C:/Users/86158/Desktop/IEECS-Design/Hardware/Reference/CHV307_Library-master/Example/libraries/zf_common/zf_common_clock.c:138
            RCC->CTLR |= RCC_PLLON;
    1690:	400217b7          	lui	a5,0x40021
    1694:	4394                	lw	a3,0(a5)
    1696:	400217b7          	lui	a5,0x40021
    169a:	01000737          	lui	a4,0x1000
    169e:	8f55                	or	a4,a4,a3
    16a0:	c398                	sw	a4,0(a5)
C:/Users/86158/Desktop/IEECS-Design/Hardware/Reference/CHV307_Library-master/Example/libraries/zf_common/zf_common_clock.c:140
            while((RCC->CTLR & RCC_PLLRDY) == 0)
    16a2:	0001                	nop
C:/Users/86158/Desktop/IEECS-Design/Hardware/Reference/CHV307_Library-master/Example/libraries/zf_common/zf_common_clock.c:140 (discriminator 1)
    16a4:	400217b7          	lui	a5,0x40021
    16a8:	4398                	lw	a4,0(a5)
    16aa:	020007b7          	lui	a5,0x2000
    16ae:	8ff9                	and	a5,a5,a4
    16b0:	dbf5                	beqz	a5,16a4 <clock_set_freq+0x218>
C:/Users/86158/Desktop/IEECS-Design/Hardware/Reference/CHV307_Library-master/Example/libraries/zf_common/zf_common_clock.c:144
            RCC->CFGR0 &= (uint32)((uint32)~(RCC_SW));
    16b2:	400217b7          	lui	a5,0x40021
    16b6:	43d8                	lw	a4,4(a5)
    16b8:	400217b7          	lui	a5,0x40021
    16bc:	9b71                	andi	a4,a4,-4
    16be:	c3d8                	sw	a4,4(a5)
C:/Users/86158/Desktop/IEECS-Design/Hardware/Reference/CHV307_Library-master/Example/libraries/zf_common/zf_common_clock.c:145
            RCC->CFGR0 |= (uint32)RCC_SW_PLL;
    16c0:	400217b7          	lui	a5,0x40021
    16c4:	43d8                	lw	a4,4(a5)
    16c6:	400217b7          	lui	a5,0x40021
    16ca:	00276713          	ori	a4,a4,2
    16ce:	c3d8                	sw	a4,4(a5)
C:/Users/86158/Desktop/IEECS-Design/Hardware/Reference/CHV307_Library-master/Example/libraries/zf_common/zf_common_clock.c:147
            while ((RCC->CFGR0 & (uint32)RCC_SWS) != (uint32)0x08)
    16d0:	0001                	nop
C:/Users/86158/Desktop/IEECS-Design/Hardware/Reference/CHV307_Library-master/Example/libraries/zf_common/zf_common_clock.c:147 (discriminator 1)
    16d2:	400217b7          	lui	a5,0x40021
    16d6:	43dc                	lw	a5,4(a5)
    16d8:	00c7f713          	andi	a4,a5,12
    16dc:	47a1                	li	a5,8
    16de:	fef71ae3          	bne	a4,a5,16d2 <clock_set_freq+0x246>
C:/Users/86158/Desktop/IEECS-Design/Hardware/Reference/CHV307_Library-master/Example/libraries/zf_common/zf_common_clock.c:161
}
    16e2:	a011                	j	16e6 <clock_set_freq+0x25a>
C:/Users/86158/Desktop/IEECS-Design/Hardware/Reference/CHV307_Library-master/Example/libraries/zf_common/zf_common_clock.c:155 (discriminator 2)
        while(1);           // 外部晶振不稳定或缺失 时钟设置失败
    16e4:	a001                	j	16e4 <clock_set_freq+0x258>
C:/Users/86158/Desktop/IEECS-Design/Hardware/Reference/CHV307_Library-master/Example/libraries/zf_common/zf_common_clock.c:161
}
    16e6:	5432                	lw	s0,44(sp)
    16e8:	6145                	addi	sp,sp,48
    16ea:	8082                	ret

000016ec <__NOP>:
__NOP():
C:\Users\86158\Desktop\IEECS-Design\Hardware\Reference\CHV307_Library-master\Example\libraries\sdk\Core/core_riscv.h:117
#define SysTick         ((SysTick_Type *) 0xE000F000)

/* risc-v specific functions */
RV_STATIC_INLINE void __enable_irq() { __asm volatile ("csrw 0x800, %0" : : "r" (0x6088) ); }
RV_STATIC_INLINE void __disable_irq() { __asm volatile ("csrw 0x800, %0" : : "r" (0x6000) ); }
RV_STATIC_INLINE void __NOP() { __asm volatile ("nop"); }
    16ec:	1141                	addi	sp,sp,-16
    16ee:	c622                	sw	s0,12(sp)
    16f0:	0800                	addi	s0,sp,16
    16f2:	0001                	nop
    16f4:	0001                	nop
    16f6:	4432                	lw	s0,12(sp)
    16f8:	0141                	addi	sp,sp,16
    16fa:	8082                	ret

000016fc <debug_delay>:
debug_delay():
C:/Users/86158/Desktop/IEECS-Design/Hardware/Reference/CHV307_Library-master/Example/libraries/zf_common/zf_common_debug.c:36
// @param       *file       文件名
// @param       line        目标行数
// @return      void
//-------------------------------------------------------------------------------------------------------------------
static void debug_delay (void)
{
    16fc:	1101                	addi	sp,sp,-32
    16fe:	ce06                	sw	ra,28(sp)
    1700:	cc22                	sw	s0,24(sp)
    1702:	1000                	addi	s0,sp,32
C:/Users/86158/Desktop/IEECS-Design/Hardware/Reference/CHV307_Library-master/Example/libraries/zf_common/zf_common_debug.c:37
    vuint32 loop_1 = 0, loop_2 = 0;
    1704:	fe042623          	sw	zero,-20(s0)
    1708:	fe042423          	sw	zero,-24(s0)
C:/Users/86158/Desktop/IEECS-Design/Hardware/Reference/CHV307_Library-master/Example/libraries/zf_common/zf_common_debug.c:38
    for(loop_1 = 0; loop_1 <= 0xFF; loop_1 ++)
    170c:	fe042623          	sw	zero,-20(s0)
    1710:	a025                	j	1738 <debug_delay+0x3c>
C:/Users/86158/Desktop/IEECS-Design/Hardware/Reference/CHV307_Library-master/Example/libraries/zf_common/zf_common_debug.c:39
        for(loop_2 = 0; loop_2 <= 0xFFFF; loop_2 ++)
    1712:	fe042423          	sw	zero,-24(s0)
    1716:	a039                	j	1724 <debug_delay+0x28>
C:/Users/86158/Desktop/IEECS-Design/Hardware/Reference/CHV307_Library-master/Example/libraries/zf_common/zf_common_debug.c:40 (discriminator 3)
            __NOP();
    1718:	3fd1                	jal	16ec <__NOP>
C:/Users/86158/Desktop/IEECS-Design/Hardware/Reference/CHV307_Library-master/Example/libraries/zf_common/zf_common_debug.c:39 (discriminator 3)
        for(loop_2 = 0; loop_2 <= 0xFFFF; loop_2 ++)
    171a:	fe842783          	lw	a5,-24(s0)
    171e:	0785                	addi	a5,a5,1
    1720:	fef42423          	sw	a5,-24(s0)
C:/Users/86158/Desktop/IEECS-Design/Hardware/Reference/CHV307_Library-master/Example/libraries/zf_common/zf_common_debug.c:39 (discriminator 1)
    1724:	fe842703          	lw	a4,-24(s0)
    1728:	67c1                	lui	a5,0x10
    172a:	fef767e3          	bltu	a4,a5,1718 <debug_delay+0x1c>
C:/Users/86158/Desktop/IEECS-Design/Hardware/Reference/CHV307_Library-master/Example/libraries/zf_common/zf_common_debug.c:38 (discriminator 2)
    for(loop_1 = 0; loop_1 <= 0xFF; loop_1 ++)
    172e:	fec42783          	lw	a5,-20(s0)
    1732:	0785                	addi	a5,a5,1
    1734:	fef42623          	sw	a5,-20(s0)
C:/Users/86158/Desktop/IEECS-Design/Hardware/Reference/CHV307_Library-master/Example/libraries/zf_common/zf_common_debug.c:38 (discriminator 1)
    1738:	fec42703          	lw	a4,-20(s0)
    173c:	0ff00793          	li	a5,255
    1740:	fce7f9e3          	bgeu	a5,a4,1712 <debug_delay+0x16>
C:/Users/86158/Desktop/IEECS-Design/Hardware/Reference/CHV307_Library-master/Example/libraries/zf_common/zf_common_debug.c:41
}
    1744:	0001                	nop
    1746:	40f2                	lw	ra,28(sp)
    1748:	4462                	lw	s0,24(sp)
    174a:	6105                	addi	sp,sp,32
    174c:	8082                	ret

0000174e <debug_uart_str_output>:
debug_uart_str_output():
C:/Users/86158/Desktop/IEECS-Design/Hardware/Reference/CHV307_Library-master/Example/libraries/zf_common/zf_common_debug.c:49
// @brief       debug 串口输出接口 此部分不允许用户更改
// @param       *str        需要输出的字符串
// @return      void
//-------------------------------------------------------------------------------------------------------------------
static void debug_uart_str_output (const char *str)
{
    174e:	1101                	addi	sp,sp,-32
    1750:	ce06                	sw	ra,28(sp)
    1752:	cc22                	sw	s0,24(sp)
    1754:	1000                	addi	s0,sp,32
    1756:	fea42623          	sw	a0,-20(s0)
C:/Users/86158/Desktop/IEECS-Design/Hardware/Reference/CHV307_Library-master/Example/libraries/zf_common/zf_common_debug.c:50
    uart_write_string(DEBUG_UART_INDEX, str);
    175a:	fec42583          	lw	a1,-20(s0)
    175e:	4509                	li	a0,2
    1760:	f2aff0ef          	jal	ra,e8a <uart_write_string>
C:/Users/86158/Desktop/IEECS-Design/Hardware/Reference/CHV307_Library-master/Example/libraries/zf_common/zf_common_debug.c:51
}
    1764:	0001                	nop
    1766:	40f2                	lw	ra,28(sp)
    1768:	4462                	lw	s0,24(sp)
    176a:	6105                	addi	sp,sp,32
    176c:	8082                	ret

0000176e <debug_output>:
debug_output():
C:/Users/86158/Desktop/IEECS-Design/Hardware/Reference/CHV307_Library-master/Example/libraries/zf_common/zf_common_debug.c:60
// @param       *file       文件名
// @param       line        目标行数
// @return      void
//-------------------------------------------------------------------------------------------------------------------
static void debug_output (char *file, int line)
{
    176e:	7141                	addi	sp,sp,-496
    1770:	1e112623          	sw	ra,492(sp)
    1774:	1e812423          	sw	s0,488(sp)
    1778:	1e912223          	sw	s1,484(sp)
    177c:	1b80                	addi	s0,sp,496
    177e:	e0a42e23          	sw	a0,-484(s0)
    1782:	e0b42c23          	sw	a1,-488(s0)
C:/Users/86158/Desktop/IEECS-Design/Hardware/Reference/CHV307_Library-master/Example/libraries/zf_common/zf_common_debug.c:62
    char *file_str;
    vuint16 i = 0, j = 0;
    1786:	fe041523          	sh	zero,-22(s0)
    178a:	fe041423          	sh	zero,-24(s0)
C:/Users/86158/Desktop/IEECS-Design/Hardware/Reference/CHV307_Library-master/Example/libraries/zf_common/zf_common_debug.c:63
    vint16 len_origin = 0;
    178e:	fe041323          	sh	zero,-26(s0)
C:/Users/86158/Desktop/IEECS-Design/Hardware/Reference/CHV307_Library-master/Example/libraries/zf_common/zf_common_debug.c:64
    vint16 show_len = 0;
    1792:	fe041223          	sh	zero,-28(s0)
C:/Users/86158/Desktop/IEECS-Design/Hardware/Reference/CHV307_Library-master/Example/libraries/zf_common/zf_common_debug.c:65
    len_origin = strlen(file);
    1796:	e1c42503          	lw	a0,-484(s0)
    179a:	24a050ef          	jal	ra,69e4 <strlen>
    179e:	87aa                	mv	a5,a0
    17a0:	07c2                	slli	a5,a5,0x10
    17a2:	87c1                	srai	a5,a5,0x10
    17a4:	fef41323          	sh	a5,-26(s0)
C:/Users/86158/Desktop/IEECS-Design/Hardware/Reference/CHV307_Library-master/Example/libraries/zf_common/zf_common_debug.c:70

    char output_buffer[256];
    char file_path_buffer[64];

    if(debug_output_info.type_index)
    17a8:	8f41d783          	lhu	a5,-1804(gp) # 20000324 <debug_output_info>
    17ac:	c789                	beqz	a5,17b6 <debug_output+0x48>
C:/Users/86158/Desktop/IEECS-Design/Hardware/Reference/CHV307_Library-master/Example/libraries/zf_common/zf_common_debug.c:71
        debug_output_info.output_screen_clear();
    17ae:	8f418793          	addi	a5,gp,-1804 # 20000324 <debug_output_info>
    17b2:	4b9c                	lw	a5,16(a5)
    17b4:	9782                	jalr	a5
C:/Users/86158/Desktop/IEECS-Design/Hardware/Reference/CHV307_Library-master/Example/libraries/zf_common/zf_common_debug.c:73

    if(zf_debug_init_flag)
    17b6:	8441c783          	lbu	a5,-1980(gp) # 20000274 <zf_debug_init_flag>
    17ba:	0ff7f793          	andi	a5,a5,255
    17be:	2e078863          	beqz	a5,1aae <debug_output+0x340>
C:/Users/86158/Desktop/IEECS-Design/Hardware/Reference/CHV307_Library-master/Example/libraries/zf_common/zf_common_debug.c:75
    {
        if(debug_output_info.type_index)
    17c2:	8f41d783          	lhu	a5,-1804(gp) # 20000324 <debug_output_info>
    17c6:	2a078963          	beqz	a5,1a78 <debug_output+0x30a>
C:/Users/86158/Desktop/IEECS-Design/Hardware/Reference/CHV307_Library-master/Example/libraries/zf_common/zf_common_debug.c:81
        {

            // 需要分行将文件的路径和行数输出
            // <不输出完整路径 只输出一级目录 例如 src/main.c>
            // 输出 line : xxxx
            debug_output_info.output_screen(0, 0, "Assert error");
    17ca:	8f418793          	addi	a5,gp,-1804 # 20000324 <debug_output_info>
    17ce:	47d8                	lw	a4,12(a5)
    17d0:	67a5                	lui	a5,0x9
    17d2:	49078613          	addi	a2,a5,1168 # 9490 <_sbrk+0xa2>
    17d6:	4581                	li	a1,0
    17d8:	4501                	li	a0,0
    17da:	9702                	jalr	a4
C:/Users/86158/Desktop/IEECS-Design/Hardware/Reference/CHV307_Library-master/Example/libraries/zf_common/zf_common_debug.c:83

            file_str = file;
    17dc:	e1c42783          	lw	a5,-484(s0)
    17e0:	fef42623          	sw	a5,-20(s0)
C:/Users/86158/Desktop/IEECS-Design/Hardware/Reference/CHV307_Library-master/Example/libraries/zf_common/zf_common_debug.c:84
            len_origin = strlen(file);
    17e4:	e1c42503          	lw	a0,-484(s0)
    17e8:	1fc050ef          	jal	ra,69e4 <strlen>
    17ec:	87aa                	mv	a5,a0
    17ee:	07c2                	slli	a5,a5,0x10
    17f0:	87c1                	srai	a5,a5,0x10
    17f2:	fef41323          	sh	a5,-26(s0)
C:/Users/86158/Desktop/IEECS-Design/Hardware/Reference/CHV307_Library-master/Example/libraries/zf_common/zf_common_debug.c:85
            show_len = (debug_output_info.display_x_max / debug_output_info.font_x_size);
    17f6:	8f418793          	addi	a5,gp,-1804 # 20000324 <debug_output_info>
    17fa:	0027d783          	lhu	a5,2(a5)
    17fe:	873e                	mv	a4,a5
    1800:	8f418793          	addi	a5,gp,-1804 # 20000324 <debug_output_info>
    1804:	0067c783          	lbu	a5,6(a5)
    1808:	02f747b3          	div	a5,a4,a5
    180c:	07c2                	slli	a5,a5,0x10
    180e:	87c1                	srai	a5,a5,0x10
    1810:	fef41223          	sh	a5,-28(s0)
C:/Users/86158/Desktop/IEECS-Design/Hardware/Reference/CHV307_Library-master/Example/libraries/zf_common/zf_common_debug.c:87

            while(*file_str++ != '\0');
    1814:	0001                	nop
C:/Users/86158/Desktop/IEECS-Design/Hardware/Reference/CHV307_Library-master/Example/libraries/zf_common/zf_common_debug.c:87 (discriminator 1)
    1816:	fec42783          	lw	a5,-20(s0)
    181a:	00178713          	addi	a4,a5,1
    181e:	fee42623          	sw	a4,-20(s0)
    1822:	00078783          	lb	a5,0(a5)
    1826:	fbe5                	bnez	a5,1816 <debug_output+0xa8>
C:/Users/86158/Desktop/IEECS-Design/Hardware/Reference/CHV307_Library-master/Example/libraries/zf_common/zf_common_debug.c:90

            // 只取一级目录 如果文件放在盘符根目录 或者 MDK 的工程根目录 就会直接输出当前目录
            for(j = 0; (j < 2) && (len_origin >= 0); len_origin --)          // 查找两个 '/'
    1828:	fe041423          	sh	zero,-24(s0)
    182c:	a8a1                	j	1884 <debug_output+0x116>
C:/Users/86158/Desktop/IEECS-Design/Hardware/Reference/CHV307_Library-master/Example/libraries/zf_common/zf_common_debug.c:92
            {
                file_str --;
    182e:	fec42783          	lw	a5,-20(s0)
    1832:	17fd                	addi	a5,a5,-1
    1834:	fef42623          	sw	a5,-20(s0)
C:/Users/86158/Desktop/IEECS-Design/Hardware/Reference/CHV307_Library-master/Example/libraries/zf_common/zf_common_debug.c:93
                if((*file_str == '/') || (*file_str == 0x5C))
    1838:	fec42783          	lw	a5,-20(s0)
    183c:	00078703          	lb	a4,0(a5)
    1840:	02f00793          	li	a5,47
    1844:	00f70a63          	beq	a4,a5,1858 <debug_output+0xea>
C:/Users/86158/Desktop/IEECS-Design/Hardware/Reference/CHV307_Library-master/Example/libraries/zf_common/zf_common_debug.c:93 (discriminator 1)
    1848:	fec42783          	lw	a5,-20(s0)
    184c:	00078703          	lb	a4,0(a5)
    1850:	05c00793          	li	a5,92
    1854:	00f71b63          	bne	a4,a5,186a <debug_output+0xfc>
C:/Users/86158/Desktop/IEECS-Design/Hardware/Reference/CHV307_Library-master/Example/libraries/zf_common/zf_common_debug.c:94
                    j ++;
    1858:	fe845783          	lhu	a5,-24(s0)
    185c:	07c2                	slli	a5,a5,0x10
    185e:	83c1                	srli	a5,a5,0x10
    1860:	0785                	addi	a5,a5,1
    1862:	07c2                	slli	a5,a5,0x10
    1864:	83c1                	srli	a5,a5,0x10
    1866:	fef41423          	sh	a5,-24(s0)
C:/Users/86158/Desktop/IEECS-Design/Hardware/Reference/CHV307_Library-master/Example/libraries/zf_common/zf_common_debug.c:90 (discriminator 2)
            for(j = 0; (j < 2) && (len_origin >= 0); len_origin --)          // 查找两个 '/'
    186a:	fe645783          	lhu	a5,-26(s0)
    186e:	07c2                	slli	a5,a5,0x10
    1870:	87c1                	srai	a5,a5,0x10
    1872:	07c2                	slli	a5,a5,0x10
    1874:	83c1                	srli	a5,a5,0x10
    1876:	17fd                	addi	a5,a5,-1
    1878:	07c2                	slli	a5,a5,0x10
    187a:	83c1                	srli	a5,a5,0x10
    187c:	07c2                	slli	a5,a5,0x10
    187e:	87c1                	srai	a5,a5,0x10
    1880:	fef41323          	sh	a5,-26(s0)
C:/Users/86158/Desktop/IEECS-Design/Hardware/Reference/CHV307_Library-master/Example/libraries/zf_common/zf_common_debug.c:90 (discriminator 1)
    1884:	fe845783          	lhu	a5,-24(s0)
    1888:	01079713          	slli	a4,a5,0x10
    188c:	8341                	srli	a4,a4,0x10
    188e:	4785                	li	a5,1
    1890:	00e7e863          	bltu	a5,a4,18a0 <debug_output+0x132>
C:/Users/86158/Desktop/IEECS-Design/Hardware/Reference/CHV307_Library-master/Example/libraries/zf_common/zf_common_debug.c:90 (discriminator 3)
    1894:	fe645783          	lhu	a5,-26(s0)
    1898:	07c2                	slli	a5,a5,0x10
    189a:	87c1                	srai	a5,a5,0x10
    189c:	f807d9e3          	bgez	a5,182e <debug_output+0xc0>
C:/Users/86158/Desktop/IEECS-Design/Hardware/Reference/CHV307_Library-master/Example/libraries/zf_common/zf_common_debug.c:98
            }

            // 文件路径保存到数组中
            if(len_origin >= 0)
    18a0:	fe645783          	lhu	a5,-26(s0)
    18a4:	07c2                	slli	a5,a5,0x10
    18a6:	87c1                	srai	a5,a5,0x10
    18a8:	0207c263          	bltz	a5,18cc <debug_output+0x15e>
C:/Users/86158/Desktop/IEECS-Design/Hardware/Reference/CHV307_Library-master/Example/libraries/zf_common/zf_common_debug.c:100
            {
                file_str ++;
    18ac:	fec42783          	lw	a5,-20(s0)
    18b0:	0785                	addi	a5,a5,1
    18b2:	fef42623          	sw	a5,-20(s0)
C:/Users/86158/Desktop/IEECS-Design/Hardware/Reference/CHV307_Library-master/Example/libraries/zf_common/zf_common_debug.c:101
                sprintf(output_buffer, "file: %s", file_str);
    18b6:	ee440713          	addi	a4,s0,-284
    18ba:	fec42603          	lw	a2,-20(s0)
    18be:	67a5                	lui	a5,0x9
    18c0:	4a078593          	addi	a1,a5,1184 # 94a0 <_sbrk+0xb2>
    18c4:	853a                	mv	a0,a4
    18c6:	0d8050ef          	jal	ra,699e <siprintf>
    18ca:	a81d                	j	1900 <debug_output+0x192>
C:/Users/86158/Desktop/IEECS-Design/Hardware/Reference/CHV307_Library-master/Example/libraries/zf_common/zf_common_debug.c:105
            }
            else
            {
                if(0 == j)
    18cc:	fe845783          	lhu	a5,-24(s0)
    18d0:	07c2                	slli	a5,a5,0x10
    18d2:	83c1                	srli	a5,a5,0x10
    18d4:	ef81                	bnez	a5,18ec <debug_output+0x17e>
C:/Users/86158/Desktop/IEECS-Design/Hardware/Reference/CHV307_Library-master/Example/libraries/zf_common/zf_common_debug.c:106
                    sprintf(output_buffer, "file: mdk/%s", file_str);
    18d6:	ee440713          	addi	a4,s0,-284
    18da:	fec42603          	lw	a2,-20(s0)
    18de:	67a5                	lui	a5,0x9
    18e0:	4ac78593          	addi	a1,a5,1196 # 94ac <_sbrk+0xbe>
    18e4:	853a                	mv	a0,a4
    18e6:	0b8050ef          	jal	ra,699e <siprintf>
    18ea:	a819                	j	1900 <debug_output+0x192>
C:/Users/86158/Desktop/IEECS-Design/Hardware/Reference/CHV307_Library-master/Example/libraries/zf_common/zf_common_debug.c:108
                else
                    sprintf(output_buffer, "file: %s", file_str);
    18ec:	ee440713          	addi	a4,s0,-284
    18f0:	fec42603          	lw	a2,-20(s0)
    18f4:	67a5                	lui	a5,0x9
    18f6:	4a078593          	addi	a1,a5,1184 # 94a0 <_sbrk+0xb2>
    18fa:	853a                	mv	a0,a4
    18fc:	0a2050ef          	jal	ra,699e <siprintf>
C:/Users/86158/Desktop/IEECS-Design/Hardware/Reference/CHV307_Library-master/Example/libraries/zf_common/zf_common_debug.c:112
            }

            // 屏幕显示路径
            for(i = 0; i < ((strlen(output_buffer) / show_len) + 1); i ++)
    1900:	fe041523          	sh	zero,-22(s0)
    1904:	a201                	j	1a04 <debug_output+0x296>
C:/Users/86158/Desktop/IEECS-Design/Hardware/Reference/CHV307_Library-master/Example/libraries/zf_common/zf_common_debug.c:114
            {
                for(j = 0; j < show_len; j ++)
    1906:	fe041423          	sh	zero,-24(s0)
    190a:	a059                	j	1990 <debug_output+0x222>
C:/Users/86158/Desktop/IEECS-Design/Hardware/Reference/CHV307_Library-master/Example/libraries/zf_common/zf_common_debug.c:116
                {
                    if(strlen(output_buffer) < (j + i * show_len))
    190c:	ee440793          	addi	a5,s0,-284
    1910:	853e                	mv	a0,a5
    1912:	0d2050ef          	jal	ra,69e4 <strlen>
    1916:	872a                	mv	a4,a0
    1918:	fe845783          	lhu	a5,-24(s0)
    191c:	07c2                	slli	a5,a5,0x10
    191e:	83c1                	srli	a5,a5,0x10
    1920:	86be                	mv	a3,a5
    1922:	fea45783          	lhu	a5,-22(s0)
    1926:	07c2                	slli	a5,a5,0x10
    1928:	83c1                	srli	a5,a5,0x10
    192a:	863e                	mv	a2,a5
    192c:	fe445783          	lhu	a5,-28(s0)
    1930:	07c2                	slli	a5,a5,0x10
    1932:	87c1                	srai	a5,a5,0x10
    1934:	02f607b3          	mul	a5,a2,a5
    1938:	97b6                	add	a5,a5,a3
    193a:	06f76763          	bltu	a4,a5,19a8 <debug_output+0x23a>
C:/Users/86158/Desktop/IEECS-Design/Hardware/Reference/CHV307_Library-master/Example/libraries/zf_common/zf_common_debug.c:118 (discriminator 2)
                        break;
                    file_path_buffer[j] = output_buffer[j + i * show_len];
    193e:	fe845783          	lhu	a5,-24(s0)
    1942:	07c2                	slli	a5,a5,0x10
    1944:	83c1                	srli	a5,a5,0x10
    1946:	873e                	mv	a4,a5
    1948:	fea45783          	lhu	a5,-22(s0)
    194c:	07c2                	slli	a5,a5,0x10
    194e:	83c1                	srli	a5,a5,0x10
    1950:	86be                	mv	a3,a5
    1952:	fe445783          	lhu	a5,-28(s0)
    1956:	07c2                	slli	a5,a5,0x10
    1958:	87c1                	srai	a5,a5,0x10
    195a:	02f687b3          	mul	a5,a3,a5
    195e:	97ba                	add	a5,a5,a4
    1960:	fe845703          	lhu	a4,-24(s0)
    1964:	0742                	slli	a4,a4,0x10
    1966:	8341                	srli	a4,a4,0x10
    1968:	86ba                	mv	a3,a4
    196a:	ff040713          	addi	a4,s0,-16
    196e:	97ba                	add	a5,a5,a4
    1970:	ef478703          	lb	a4,-268(a5)
    1974:	ff040793          	addi	a5,s0,-16
    1978:	97b6                	add	a5,a5,a3
    197a:	eae78a23          	sb	a4,-332(a5)
C:/Users/86158/Desktop/IEECS-Design/Hardware/Reference/CHV307_Library-master/Example/libraries/zf_common/zf_common_debug.c:114 (discriminator 2)
                for(j = 0; j < show_len; j ++)
    197e:	fe845783          	lhu	a5,-24(s0)
    1982:	07c2                	slli	a5,a5,0x10
    1984:	83c1                	srli	a5,a5,0x10
    1986:	0785                	addi	a5,a5,1
    1988:	07c2                	slli	a5,a5,0x10
    198a:	83c1                	srli	a5,a5,0x10
    198c:	fef41423          	sh	a5,-24(s0)
C:/Users/86158/Desktop/IEECS-Design/Hardware/Reference/CHV307_Library-master/Example/libraries/zf_common/zf_common_debug.c:114 (discriminator 1)
    1990:	fe845783          	lhu	a5,-24(s0)
    1994:	07c2                	slli	a5,a5,0x10
    1996:	83c1                	srli	a5,a5,0x10
    1998:	873e                	mv	a4,a5
    199a:	fe445783          	lhu	a5,-28(s0)
    199e:	07c2                	slli	a5,a5,0x10
    19a0:	87c1                	srai	a5,a5,0x10
    19a2:	f6f745e3          	blt	a4,a5,190c <debug_output+0x19e>
    19a6:	a011                	j	19aa <debug_output+0x23c>
C:/Users/86158/Desktop/IEECS-Design/Hardware/Reference/CHV307_Library-master/Example/libraries/zf_common/zf_common_debug.c:117
                        break;
    19a8:	0001                	nop
C:/Users/86158/Desktop/IEECS-Design/Hardware/Reference/CHV307_Library-master/Example/libraries/zf_common/zf_common_debug.c:121 (discriminator 2)
                }

                file_path_buffer[j] = '\0';                                 // 末尾添加\0
    19aa:	fe845783          	lhu	a5,-24(s0)
    19ae:	07c2                	slli	a5,a5,0x10
    19b0:	83c1                	srli	a5,a5,0x10
    19b2:	ff040713          	addi	a4,s0,-16
    19b6:	97ba                	add	a5,a5,a4
    19b8:	ea078a23          	sb	zero,-332(a5)
C:/Users/86158/Desktop/IEECS-Design/Hardware/Reference/CHV307_Library-master/Example/libraries/zf_common/zf_common_debug.c:123 (discriminator 2)

                debug_output_info.output_screen(0, debug_output_info.font_y_size * (i + 1), file_path_buffer);
    19bc:	8f418793          	addi	a5,gp,-1804 # 20000324 <debug_output_info>
    19c0:	47d4                	lw	a3,12(a5)
    19c2:	8f418793          	addi	a5,gp,-1804 # 20000324 <debug_output_info>
    19c6:	0077c783          	lbu	a5,7(a5)
    19ca:	01079713          	slli	a4,a5,0x10
    19ce:	8341                	srli	a4,a4,0x10
    19d0:	fea45783          	lhu	a5,-22(s0)
    19d4:	07c2                	slli	a5,a5,0x10
    19d6:	83c1                	srli	a5,a5,0x10
    19d8:	0785                	addi	a5,a5,1
    19da:	07c2                	slli	a5,a5,0x10
    19dc:	83c1                	srli	a5,a5,0x10
    19de:	02f707b3          	mul	a5,a4,a5
    19e2:	07c2                	slli	a5,a5,0x10
    19e4:	83c1                	srli	a5,a5,0x10
    19e6:	ea440713          	addi	a4,s0,-348
    19ea:	863a                	mv	a2,a4
    19ec:	85be                	mv	a1,a5
    19ee:	4501                	li	a0,0
    19f0:	9682                	jalr	a3
C:/Users/86158/Desktop/IEECS-Design/Hardware/Reference/CHV307_Library-master/Example/libraries/zf_common/zf_common_debug.c:112 (discriminator 2)
            for(i = 0; i < ((strlen(output_buffer) / show_len) + 1); i ++)
    19f2:	fea45783          	lhu	a5,-22(s0)
    19f6:	07c2                	slli	a5,a5,0x10
    19f8:	83c1                	srli	a5,a5,0x10
    19fa:	0785                	addi	a5,a5,1
    19fc:	07c2                	slli	a5,a5,0x10
    19fe:	83c1                	srli	a5,a5,0x10
    1a00:	fef41523          	sh	a5,-22(s0)
C:/Users/86158/Desktop/IEECS-Design/Hardware/Reference/CHV307_Library-master/Example/libraries/zf_common/zf_common_debug.c:112 (discriminator 1)
    1a04:	fea45783          	lhu	a5,-22(s0)
    1a08:	07c2                	slli	a5,a5,0x10
    1a0a:	83c1                	srli	a5,a5,0x10
    1a0c:	84be                	mv	s1,a5
    1a0e:	ee440793          	addi	a5,s0,-284
    1a12:	853e                	mv	a0,a5
    1a14:	7d1040ef          	jal	ra,69e4 <strlen>
    1a18:	872a                	mv	a4,a0
    1a1a:	fe445783          	lhu	a5,-28(s0)
    1a1e:	07c2                	slli	a5,a5,0x10
    1a20:	87c1                	srai	a5,a5,0x10
    1a22:	02f757b3          	divu	a5,a4,a5
    1a26:	0785                	addi	a5,a5,1
    1a28:	ecf4efe3          	bltu	s1,a5,1906 <debug_output+0x198>
C:/Users/86158/Desktop/IEECS-Design/Hardware/Reference/CHV307_Library-master/Example/libraries/zf_common/zf_common_debug.c:127
            }

            // 屏幕显示行号
            sprintf(output_buffer, "line: %d", line);
    1a2c:	ee440713          	addi	a4,s0,-284
    1a30:	e1842603          	lw	a2,-488(s0)
    1a34:	67a5                	lui	a5,0x9
    1a36:	4bc78593          	addi	a1,a5,1212 # 94bc <_sbrk+0xce>
    1a3a:	853a                	mv	a0,a4
    1a3c:	763040ef          	jal	ra,699e <siprintf>
C:/Users/86158/Desktop/IEECS-Design/Hardware/Reference/CHV307_Library-master/Example/libraries/zf_common/zf_common_debug.c:128
            debug_output_info.output_screen(0, debug_output_info.font_y_size * (i + 1), output_buffer);
    1a40:	8f418793          	addi	a5,gp,-1804 # 20000324 <debug_output_info>
    1a44:	47d4                	lw	a3,12(a5)
    1a46:	8f418793          	addi	a5,gp,-1804 # 20000324 <debug_output_info>
    1a4a:	0077c783          	lbu	a5,7(a5)
    1a4e:	01079713          	slli	a4,a5,0x10
    1a52:	8341                	srli	a4,a4,0x10
    1a54:	fea45783          	lhu	a5,-22(s0)
    1a58:	07c2                	slli	a5,a5,0x10
    1a5a:	83c1                	srli	a5,a5,0x10
    1a5c:	0785                	addi	a5,a5,1
    1a5e:	07c2                	slli	a5,a5,0x10
    1a60:	83c1                	srli	a5,a5,0x10
    1a62:	02f707b3          	mul	a5,a4,a5
    1a66:	07c2                	slli	a5,a5,0x10
    1a68:	83c1                	srli	a5,a5,0x10
    1a6a:	ee440713          	addi	a4,s0,-284
    1a6e:	863a                	mv	a2,a4
    1a70:	85be                	mv	a1,a5
    1a72:	4501                	li	a0,0
    1a74:	9682                	jalr	a3
C:/Users/86158/Desktop/IEECS-Design/Hardware/Reference/CHV307_Library-master/Example/libraries/zf_common/zf_common_debug.c:138
            memset(output_buffer, 0, 128);
            sprintf(output_buffer, "Assert error in %s line %d.\r\n", file, line);
            debug_output_info.output_uart(output_buffer);
        }
    }
}
    1a76:	a825                	j	1aae <debug_output+0x340>
C:/Users/86158/Desktop/IEECS-Design/Hardware/Reference/CHV307_Library-master/Example/libraries/zf_common/zf_common_debug.c:133
            memset(output_buffer, 0, 128);
    1a78:	e2440793          	addi	a5,s0,-476
    1a7c:	08000613          	li	a2,128
    1a80:	4581                	li	a1,0
    1a82:	853e                	mv	a0,a5
    1a84:	f90fe0ef          	jal	ra,214 <memset>
C:/Users/86158/Desktop/IEECS-Design/Hardware/Reference/CHV307_Library-master/Example/libraries/zf_common/zf_common_debug.c:134
            sprintf(output_buffer, "Assert error in %s line %d.\r\n", file, line);
    1a88:	e2440713          	addi	a4,s0,-476
    1a8c:	e1842683          	lw	a3,-488(s0)
    1a90:	e1c42603          	lw	a2,-484(s0)
    1a94:	67a5                	lui	a5,0x9
    1a96:	4c878593          	addi	a1,a5,1224 # 94c8 <_sbrk+0xda>
    1a9a:	853a                	mv	a0,a4
    1a9c:	703040ef          	jal	ra,699e <siprintf>
C:/Users/86158/Desktop/IEECS-Design/Hardware/Reference/CHV307_Library-master/Example/libraries/zf_common/zf_common_debug.c:135
            debug_output_info.output_uart(output_buffer);
    1aa0:	8f418793          	addi	a5,gp,-1804 # 20000324 <debug_output_info>
    1aa4:	4798                	lw	a4,8(a5)
    1aa6:	e2440793          	addi	a5,s0,-476
    1aaa:	853e                	mv	a0,a5
    1aac:	9702                	jalr	a4
C:/Users/86158/Desktop/IEECS-Design/Hardware/Reference/CHV307_Library-master/Example/libraries/zf_common/zf_common_debug.c:138
}
    1aae:	0001                	nop
    1ab0:	1ec12083          	lw	ra,492(sp)
    1ab4:	1e812403          	lw	s0,488(sp)
    1ab8:	1e412483          	lw	s1,484(sp)
    1abc:	617d                	addi	sp,sp,496
    1abe:	8082                	ret

00001ac0 <_write>:
_write():
C:/Users/86158/Desktop/IEECS-Design/Hardware/Reference/CHV307_Library-master/Example/libraries/zf_common/zf_common_debug.c:185
//  @since      v1.0
//  Sample usage:              重定向printf到DEBUG串口上
//-------------------------------------------------------------------------------------------------------------------
#if (1 == PRINTF_ENABLE)
int _write(int fd, char *buf, int size)
{
    1ac0:	7179                	addi	sp,sp,-48
    1ac2:	d606                	sw	ra,44(sp)
    1ac4:	d422                	sw	s0,40(sp)
    1ac6:	1800                	addi	s0,sp,48
    1ac8:	fca42e23          	sw	a0,-36(s0)
    1acc:	fcb42c23          	sw	a1,-40(s0)
    1ad0:	fcc42a23          	sw	a2,-44(s0)
C:/Users/86158/Desktop/IEECS-Design/Hardware/Reference/CHV307_Library-master/Example/libraries/zf_common/zf_common_debug.c:187
    int i;
    for(i=0; i<size; i++)
    1ad4:	fe042623          	sw	zero,-20(s0)
    1ad8:	a0a9                	j	1b22 <_write+0x62>
C:/Users/86158/Desktop/IEECS-Design/Hardware/Reference/CHV307_Library-master/Example/libraries/zf_common/zf_common_debug.c:189
    {
        while (USART_GetFlagStatus((USART_TypeDef*)uart_index[DEBUG_UART_INDEX], USART_FLAG_TC) == RESET);
    1ada:	0001                	nop
C:/Users/86158/Desktop/IEECS-Design/Hardware/Reference/CHV307_Library-master/Example/libraries/zf_common/zf_common_debug.c:189 (discriminator 1)
    1adc:	67a5                	lui	a5,0x9
    1ade:	5b078793          	addi	a5,a5,1456 # 95b0 <uart_index>
    1ae2:	479c                	lw	a5,8(a5)
    1ae4:	04000593          	li	a1,64
    1ae8:	853e                	mv	a0,a5
    1aea:	13b010ef          	jal	ra,3424 <USART_GetFlagStatus>
    1aee:	87aa                	mv	a5,a0
    1af0:	d7f5                	beqz	a5,1adc <_write+0x1c>
C:/Users/86158/Desktop/IEECS-Design/Hardware/Reference/CHV307_Library-master/Example/libraries/zf_common/zf_common_debug.c:190 (discriminator 2)
        USART_SendData((USART_TypeDef*)uart_index[DEBUG_UART_INDEX], *buf++);
    1af2:	67a5                	lui	a5,0x9
    1af4:	5b078793          	addi	a5,a5,1456 # 95b0 <uart_index>
    1af8:	479c                	lw	a5,8(a5)
    1afa:	86be                	mv	a3,a5
    1afc:	fd842783          	lw	a5,-40(s0)
    1b00:	00178713          	addi	a4,a5,1
    1b04:	fce42c23          	sw	a4,-40(s0)
    1b08:	00078783          	lb	a5,0(a5)
    1b0c:	07c2                	slli	a5,a5,0x10
    1b0e:	83c1                	srli	a5,a5,0x10
    1b10:	85be                	mv	a1,a5
    1b12:	8536                	mv	a0,a3
    1b14:	0e3010ef          	jal	ra,33f6 <USART_SendData>
C:/Users/86158/Desktop/IEECS-Design/Hardware/Reference/CHV307_Library-master/Example/libraries/zf_common/zf_common_debug.c:187 (discriminator 2)
    for(i=0; i<size; i++)
    1b18:	fec42783          	lw	a5,-20(s0)
    1b1c:	0785                	addi	a5,a5,1
    1b1e:	fef42623          	sw	a5,-20(s0)
C:/Users/86158/Desktop/IEECS-Design/Hardware/Reference/CHV307_Library-master/Example/libraries/zf_common/zf_common_debug.c:187 (discriminator 1)
    1b22:	fec42703          	lw	a4,-20(s0)
    1b26:	fd442783          	lw	a5,-44(s0)
    1b2a:	faf748e3          	blt	a4,a5,1ada <_write+0x1a>
C:/Users/86158/Desktop/IEECS-Design/Hardware/Reference/CHV307_Library-master/Example/libraries/zf_common/zf_common_debug.c:192
    }
    return size;
    1b2e:	fd442783          	lw	a5,-44(s0)
C:/Users/86158/Desktop/IEECS-Design/Hardware/Reference/CHV307_Library-master/Example/libraries/zf_common/zf_common_debug.c:193
}
    1b32:	853e                	mv	a0,a5
    1b34:	50b2                	lw	ra,44(sp)
    1b36:	5422                	lw	s0,40(sp)
    1b38:	6145                	addi	sp,sp,48
    1b3a:	8082                	ret

00001b3c <debug_assert_handler>:
debug_assert_handler():
C:/Users/86158/Desktop/IEECS-Design/Hardware/Reference/CHV307_Library-master/Example/libraries/zf_common/zf_common_debug.c:228
// @param       line        目标行数
// @return      void
// Sample usage:            这个函数不是直接调用的 使用 zf_commmon_debug.h 中的 zf_assert(x) 接口
//-------------------------------------------------------------------------------------------------------------------
void debug_assert_handler (uint8 pass, char *file, int line)
{
    1b3c:	1101                	addi	sp,sp,-32
    1b3e:	ce06                	sw	ra,28(sp)
    1b40:	cc22                	sw	s0,24(sp)
    1b42:	1000                	addi	s0,sp,32
    1b44:	87aa                	mv	a5,a0
    1b46:	feb42423          	sw	a1,-24(s0)
    1b4a:	fec42223          	sw	a2,-28(s0)
    1b4e:	fef407a3          	sb	a5,-17(s0)
C:/Users/86158/Desktop/IEECS-Design/Hardware/Reference/CHV307_Library-master/Example/libraries/zf_common/zf_common_debug.c:229
    if(pass || !zf_debug_assert_enable)
    1b52:	fef44783          	lbu	a5,-17(s0)
    1b56:	ef85                	bnez	a5,1b8e <debug_assert_handler+0x52>
C:/Users/86158/Desktop/IEECS-Design/Hardware/Reference/CHV307_Library-master/Example/libraries/zf_common/zf_common_debug.c:229 (discriminator 1)
    1b58:	200007b7          	lui	a5,0x20000
    1b5c:	2307c783          	lbu	a5,560(a5) # 20000230 <zf_debug_assert_enable>
    1b60:	0ff7f793          	andi	a5,a5,255
    1b64:	c78d                	beqz	a5,1b8e <debug_assert_handler+0x52>
C:/Users/86158/Desktop/IEECS-Design/Hardware/Reference/CHV307_Library-master/Example/libraries/zf_common/zf_common_debug.c:234
        return;

    static uint8 assert_nest_index = 0;

    if(0 != assert_nest_index)
    1b66:	8451c783          	lbu	a5,-1979(gp) # 20000275 <assert_nest_index.4237>
    1b6a:	c391                	beqz	a5,1b6e <debug_assert_handler+0x32>
C:/Users/86158/Desktop/IEECS-Design/Hardware/Reference/CHV307_Library-master/Example/libraries/zf_common/zf_common_debug.c:236 (discriminator 1)
    {
        while(1);
    1b6c:	a001                	j	1b6c <debug_assert_handler+0x30>
C:/Users/86158/Desktop/IEECS-Design/Hardware/Reference/CHV307_Library-master/Example/libraries/zf_common/zf_common_debug.c:238
    }
    assert_nest_index ++;
    1b6e:	8451c783          	lbu	a5,-1979(gp) # 20000275 <assert_nest_index.4237>
    1b72:	0785                	addi	a5,a5,1
    1b74:	0ff7f713          	andi	a4,a5,255
    1b78:	84e182a3          	sb	a4,-1979(gp) # 20000275 <assert_nest_index.4237>
C:/Users/86158/Desktop/IEECS-Design/Hardware/Reference/CHV307_Library-master/Example/libraries/zf_common/zf_common_debug.c:240

    interrupt_global_disable();
    1b7c:	24e9                	jal	1e46 <interrupt_global_disable>
C:/Users/86158/Desktop/IEECS-Design/Hardware/Reference/CHV307_Library-master/Example/libraries/zf_common/zf_common_debug.c:258 (discriminator 1)
        // 那代表报错的文件路径名称和对应报错行数

        // 再去调试看看是为什么参数出错
//        __NOP();

        debug_output(file, line);
    1b7e:	fe442583          	lw	a1,-28(s0)
    1b82:	fe842503          	lw	a0,-24(s0)
    1b86:	36e5                	jal	176e <debug_output>
C:/Users/86158/Desktop/IEECS-Design/Hardware/Reference/CHV307_Library-master/Example/libraries/zf_common/zf_common_debug.c:259 (discriminator 1)
        debug_delay();
    1b88:	b75ff0ef          	jal	ra,16fc <debug_delay>
C:/Users/86158/Desktop/IEECS-Design/Hardware/Reference/CHV307_Library-master/Example/libraries/zf_common/zf_common_debug.c:258 (discriminator 1)
        debug_output(file, line);
    1b8c:	bfcd                	j	1b7e <debug_assert_handler+0x42>
C:/Users/86158/Desktop/IEECS-Design/Hardware/Reference/CHV307_Library-master/Example/libraries/zf_common/zf_common_debug.c:230
        return;
    1b8e:	0001                	nop
C:/Users/86158/Desktop/IEECS-Design/Hardware/Reference/CHV307_Library-master/Example/libraries/zf_common/zf_common_debug.c:261
    }
}
    1b90:	40f2                	lw	ra,28(sp)
    1b92:	4462                	lw	s0,24(sp)
    1b94:	6105                	addi	sp,sp,32
    1b96:	8082                	ret

00001b98 <debug_output_struct_init>:
debug_output_struct_init():
C:/Users/86158/Desktop/IEECS-Design/Hardware/Reference/CHV307_Library-master/Example/libraries/zf_common/zf_common_debug.c:289
// @param       *info       debug 输出的信息结构体
// @return      void
// Sample usage:            debug_output_struct_init(info);
//-------------------------------------------------------------------------------------------------------------------
void debug_output_struct_init (debug_output_struct *info)
{
    1b98:	1101                	addi	sp,sp,-32
    1b9a:	ce22                	sw	s0,28(sp)
    1b9c:	1000                	addi	s0,sp,32
    1b9e:	fea42623          	sw	a0,-20(s0)
C:/Users/86158/Desktop/IEECS-Design/Hardware/Reference/CHV307_Library-master/Example/libraries/zf_common/zf_common_debug.c:290
    info->type_index            = 0;
    1ba2:	fec42783          	lw	a5,-20(s0)
    1ba6:	00079023          	sh	zero,0(a5)
C:/Users/86158/Desktop/IEECS-Design/Hardware/Reference/CHV307_Library-master/Example/libraries/zf_common/zf_common_debug.c:292

    info->display_x_max         = 0xFFFF;
    1baa:	fec42783          	lw	a5,-20(s0)
    1bae:	577d                	li	a4,-1
    1bb0:	00e79123          	sh	a4,2(a5)
C:/Users/86158/Desktop/IEECS-Design/Hardware/Reference/CHV307_Library-master/Example/libraries/zf_common/zf_common_debug.c:293
    info->display_y_max         = 0xFFFF;
    1bb4:	fec42783          	lw	a5,-20(s0)
    1bb8:	577d                	li	a4,-1
    1bba:	00e79223          	sh	a4,4(a5)
C:/Users/86158/Desktop/IEECS-Design/Hardware/Reference/CHV307_Library-master/Example/libraries/zf_common/zf_common_debug.c:295

    info->font_x_size           = 0xFF;
    1bbe:	fec42783          	lw	a5,-20(s0)
    1bc2:	577d                	li	a4,-1
    1bc4:	00e78323          	sb	a4,6(a5)
C:/Users/86158/Desktop/IEECS-Design/Hardware/Reference/CHV307_Library-master/Example/libraries/zf_common/zf_common_debug.c:296
    info->font_y_size           = 0xFF;
    1bc8:	fec42783          	lw	a5,-20(s0)
    1bcc:	577d                	li	a4,-1
    1bce:	00e783a3          	sb	a4,7(a5)
C:/Users/86158/Desktop/IEECS-Design/Hardware/Reference/CHV307_Library-master/Example/libraries/zf_common/zf_common_debug.c:298

    info->output_uart           = NULL;
    1bd2:	fec42783          	lw	a5,-20(s0)
    1bd6:	0007a423          	sw	zero,8(a5)
C:/Users/86158/Desktop/IEECS-Design/Hardware/Reference/CHV307_Library-master/Example/libraries/zf_common/zf_common_debug.c:299
    info->output_screen         = NULL;
    1bda:	fec42783          	lw	a5,-20(s0)
    1bde:	0007a623          	sw	zero,12(a5)
C:/Users/86158/Desktop/IEECS-Design/Hardware/Reference/CHV307_Library-master/Example/libraries/zf_common/zf_common_debug.c:300
    info->output_screen_clear   = NULL;
    1be2:	fec42783          	lw	a5,-20(s0)
    1be6:	0007a823          	sw	zero,16(a5)
C:/Users/86158/Desktop/IEECS-Design/Hardware/Reference/CHV307_Library-master/Example/libraries/zf_common/zf_common_debug.c:301
}
    1bea:	0001                	nop
    1bec:	4472                	lw	s0,28(sp)
    1bee:	6105                	addi	sp,sp,32
    1bf0:	8082                	ret

00001bf2 <debug_output_init>:
debug_output_init():
C:/Users/86158/Desktop/IEECS-Design/Hardware/Reference/CHV307_Library-master/Example/libraries/zf_common/zf_common_debug.c:310
// @param       *info       debug 输出的信息结构体
// @return      void
// Sample usage:            debug_output_init(info);
//-------------------------------------------------------------------------------------------------------------------
void debug_output_init (debug_output_struct *info)
{
    1bf2:	1101                	addi	sp,sp,-32
    1bf4:	ce22                	sw	s0,28(sp)
    1bf6:	1000                	addi	s0,sp,32
    1bf8:	fea42623          	sw	a0,-20(s0)
C:/Users/86158/Desktop/IEECS-Design/Hardware/Reference/CHV307_Library-master/Example/libraries/zf_common/zf_common_debug.c:311
    debug_output_info.type_index            = info->type_index;
    1bfc:	fec42783          	lw	a5,-20(s0)
    1c00:	0007d703          	lhu	a4,0(a5)
    1c04:	8ee19a23          	sh	a4,-1804(gp) # 20000324 <debug_output_info>
C:/Users/86158/Desktop/IEECS-Design/Hardware/Reference/CHV307_Library-master/Example/libraries/zf_common/zf_common_debug.c:313

    debug_output_info.display_x_max         = info->display_x_max;
    1c08:	fec42783          	lw	a5,-20(s0)
    1c0c:	0027d703          	lhu	a4,2(a5)
    1c10:	8f418793          	addi	a5,gp,-1804 # 20000324 <debug_output_info>
    1c14:	00e79123          	sh	a4,2(a5)
C:/Users/86158/Desktop/IEECS-Design/Hardware/Reference/CHV307_Library-master/Example/libraries/zf_common/zf_common_debug.c:314
    debug_output_info.display_y_max         = info->display_y_max;
    1c18:	fec42783          	lw	a5,-20(s0)
    1c1c:	0047d703          	lhu	a4,4(a5)
    1c20:	8f418793          	addi	a5,gp,-1804 # 20000324 <debug_output_info>
    1c24:	00e79223          	sh	a4,4(a5)
C:/Users/86158/Desktop/IEECS-Design/Hardware/Reference/CHV307_Library-master/Example/libraries/zf_common/zf_common_debug.c:316

    debug_output_info.font_x_size           = info->font_x_size;
    1c28:	fec42783          	lw	a5,-20(s0)
    1c2c:	0067c703          	lbu	a4,6(a5)
    1c30:	8f418793          	addi	a5,gp,-1804 # 20000324 <debug_output_info>
    1c34:	00e78323          	sb	a4,6(a5)
C:/Users/86158/Desktop/IEECS-Design/Hardware/Reference/CHV307_Library-master/Example/libraries/zf_common/zf_common_debug.c:317
    debug_output_info.font_y_size           = info->font_y_size;
    1c38:	fec42783          	lw	a5,-20(s0)
    1c3c:	0077c703          	lbu	a4,7(a5)
    1c40:	8f418793          	addi	a5,gp,-1804 # 20000324 <debug_output_info>
    1c44:	00e783a3          	sb	a4,7(a5)
C:/Users/86158/Desktop/IEECS-Design/Hardware/Reference/CHV307_Library-master/Example/libraries/zf_common/zf_common_debug.c:319

    debug_output_info.output_uart           = info->output_uart;
    1c48:	fec42783          	lw	a5,-20(s0)
    1c4c:	4798                	lw	a4,8(a5)
    1c4e:	8f418793          	addi	a5,gp,-1804 # 20000324 <debug_output_info>
    1c52:	c798                	sw	a4,8(a5)
C:/Users/86158/Desktop/IEECS-Design/Hardware/Reference/CHV307_Library-master/Example/libraries/zf_common/zf_common_debug.c:320
    debug_output_info.output_screen         = info->output_screen;
    1c54:	fec42783          	lw	a5,-20(s0)
    1c58:	47d8                	lw	a4,12(a5)
    1c5a:	8f418793          	addi	a5,gp,-1804 # 20000324 <debug_output_info>
    1c5e:	c7d8                	sw	a4,12(a5)
C:/Users/86158/Desktop/IEECS-Design/Hardware/Reference/CHV307_Library-master/Example/libraries/zf_common/zf_common_debug.c:321
    debug_output_info.output_screen_clear   = info->output_screen_clear;
    1c60:	fec42783          	lw	a5,-20(s0)
    1c64:	4b98                	lw	a4,16(a5)
    1c66:	8f418793          	addi	a5,gp,-1804 # 20000324 <debug_output_info>
    1c6a:	cb98                	sw	a4,16(a5)
C:/Users/86158/Desktop/IEECS-Design/Hardware/Reference/CHV307_Library-master/Example/libraries/zf_common/zf_common_debug.c:323

    zf_debug_init_flag = 1;
    1c6c:	4705                	li	a4,1
    1c6e:	84e18223          	sb	a4,-1980(gp) # 20000274 <zf_debug_init_flag>
C:/Users/86158/Desktop/IEECS-Design/Hardware/Reference/CHV307_Library-master/Example/libraries/zf_common/zf_common_debug.c:324
}
    1c72:	0001                	nop
    1c74:	4472                	lw	s0,28(sp)
    1c76:	6105                	addi	sp,sp,32
    1c78:	8082                	ret

00001c7a <debug_init>:
debug_init():
C:/Users/86158/Desktop/IEECS-Design/Hardware/Reference/CHV307_Library-master/Example/libraries/zf_common/zf_common_debug.c:333
// @param       void
// @return      void
// Sample usage:            debug_init();
//-------------------------------------------------------------------------------------------------------------------
void debug_init (void)
{
    1c7a:	7179                	addi	sp,sp,-48
    1c7c:	d606                	sw	ra,44(sp)
    1c7e:	d422                	sw	s0,40(sp)
    1c80:	1800                	addi	s0,sp,48
C:/Users/86158/Desktop/IEECS-Design/Hardware/Reference/CHV307_Library-master/Example/libraries/zf_common/zf_common_debug.c:335
    debug_output_struct info;
    debug_output_struct_init(&info);
    1c82:	fdc40793          	addi	a5,s0,-36
    1c86:	853e                	mv	a0,a5
    1c88:	3f01                	jal	1b98 <debug_output_struct_init>
C:/Users/86158/Desktop/IEECS-Design/Hardware/Reference/CHV307_Library-master/Example/libraries/zf_common/zf_common_debug.c:336
    info.output_uart = debug_uart_str_output;
    1c8a:	000017b7          	lui	a5,0x1
    1c8e:	74e78793          	addi	a5,a5,1870 # 174e <debug_uart_str_output>
    1c92:	fef42223          	sw	a5,-28(s0)
C:/Users/86158/Desktop/IEECS-Design/Hardware/Reference/CHV307_Library-master/Example/libraries/zf_common/zf_common_debug.c:337
    debug_output_init(&info);
    1c96:	fdc40793          	addi	a5,s0,-36
    1c9a:	853e                	mv	a0,a5
    1c9c:	3f99                	jal	1bf2 <debug_output_init>
C:/Users/86158/Desktop/IEECS-Design/Hardware/Reference/CHV307_Library-master/Example/libraries/zf_common/zf_common_debug.c:339

    uart_init(
    1c9e:	02100693          	li	a3,33
    1ca2:	02000613          	li	a2,32
    1ca6:	67f1                	lui	a5,0x1c
    1ca8:	20078593          	addi	a1,a5,512 # 1c200 <_data_lma+0x12624>
    1cac:	4509                	li	a0,2
    1cae:	a7cff0ef          	jal	ra,f2a <uart_init>
C:/Users/86158/Desktop/IEECS-Design/Hardware/Reference/CHV307_Library-master/Example/libraries/zf_common/zf_common_debug.c:349

    if(DEBUG_UART_USE_INTERRUPT)                                                // 如果启用串口中断
    {
        uart_rx_interrupt(DEBUG_UART_INDEX, 1);                                 // 使能对应串口接收中断
    }
}
    1cb2:	0001                	nop
    1cb4:	50b2                	lw	ra,44(sp)
    1cb6:	5422                	lw	s0,40(sp)
    1cb8:	6145                	addi	sp,sp,48
    1cba:	8082                	ret

00001cbc <fifo_head_offset>:
fifo_head_offset():
C:/Users/86158/Desktop/IEECS-Design/Hardware/Reference/CHV307_Library-master/Example/libraries/zf_common/zf_common_fifo.c:53
// @param       offset          偏移量
// @return      void
// Sample usage:
//-------------------------------------------------------------------------------------------------------------------
void fifo_head_offset (fifo_struct *fifo, uint32 offset)
{
    1cbc:	1101                	addi	sp,sp,-32
    1cbe:	ce22                	sw	s0,28(sp)
    1cc0:	1000                	addi	s0,sp,32
    1cc2:	fea42623          	sw	a0,-20(s0)
    1cc6:	feb42423          	sw	a1,-24(s0)
C:/Users/86158/Desktop/IEECS-Design/Hardware/Reference/CHV307_Library-master/Example/libraries/zf_common/zf_common_fifo.c:54
    fifo->head += offset;
    1cca:	fec42783          	lw	a5,-20(s0)
    1cce:	43d8                	lw	a4,4(a5)
    1cd0:	fe842783          	lw	a5,-24(s0)
    1cd4:	973e                	add	a4,a4,a5
    1cd6:	fec42783          	lw	a5,-20(s0)
    1cda:	c3d8                	sw	a4,4(a5)
C:/Users/86158/Desktop/IEECS-Design/Hardware/Reference/CHV307_Library-master/Example/libraries/zf_common/zf_common_fifo.c:56
    
    while(fifo->max <= fifo->head)                                              // 如果范围超过则减缓冲区大小 直到小于最大缓冲区大小
    1cdc:	a819                	j	1cf2 <fifo_head_offset+0x36>
C:/Users/86158/Desktop/IEECS-Design/Hardware/Reference/CHV307_Library-master/Example/libraries/zf_common/zf_common_fifo.c:58
    {
        fifo->head -= fifo->max;
    1cde:	fec42783          	lw	a5,-20(s0)
    1ce2:	43d8                	lw	a4,4(a5)
    1ce4:	fec42783          	lw	a5,-20(s0)
    1ce8:	4b9c                	lw	a5,16(a5)
    1cea:	8f1d                	sub	a4,a4,a5
    1cec:	fec42783          	lw	a5,-20(s0)
    1cf0:	c3d8                	sw	a4,4(a5)
C:/Users/86158/Desktop/IEECS-Design/Hardware/Reference/CHV307_Library-master/Example/libraries/zf_common/zf_common_fifo.c:56
    while(fifo->max <= fifo->head)                                              // 如果范围超过则减缓冲区大小 直到小于最大缓冲区大小
    1cf2:	fec42783          	lw	a5,-20(s0)
    1cf6:	4b98                	lw	a4,16(a5)
    1cf8:	fec42783          	lw	a5,-20(s0)
    1cfc:	43dc                	lw	a5,4(a5)
    1cfe:	fee7f0e3          	bgeu	a5,a4,1cde <fifo_head_offset+0x22>
C:/Users/86158/Desktop/IEECS-Design/Hardware/Reference/CHV307_Library-master/Example/libraries/zf_common/zf_common_fifo.c:60
    }
}
    1d02:	0001                	nop
    1d04:	4472                	lw	s0,28(sp)
    1d06:	6105                	addi	sp,sp,32
    1d08:	8082                	ret

00001d0a <fifo_write_buffer>:
fifo_write_buffer():
C:/Users/86158/Desktop/IEECS-Design/Hardware/Reference/CHV307_Library-master/Example/libraries/zf_common/zf_common_fifo.c:112
// @param       length          需要写入的数据长度
// @return      fifo_state_enum 操作状态
// Sample usage:                if(fifo_write(&fifo,data,32)!=FIFO_SUCCESS) while(1);
//-------------------------------------------------------------------------------------------------------------------
fifo_state_enum fifo_write_buffer (fifo_struct *fifo, uint8 *dat, uint32 length)
{
    1d0a:	7179                	addi	sp,sp,-48
    1d0c:	d606                	sw	ra,44(sp)
    1d0e:	d422                	sw	s0,40(sp)
    1d10:	1800                	addi	s0,sp,48
    1d12:	fca42e23          	sw	a0,-36(s0)
    1d16:	fcb42c23          	sw	a1,-40(s0)
    1d1a:	fcc42a23          	sw	a2,-44(s0)
C:/Users/86158/Desktop/IEECS-Design/Hardware/Reference/CHV307_Library-master/Example/libraries/zf_common/zf_common_fifo.c:115
    uint32 temp_length;
    
    if(length < fifo->size)                                                     // 剩余空间足够装下本次数据
    1d1e:	fdc42783          	lw	a5,-36(s0)
    1d22:	47dc                	lw	a5,12(a5)
    1d24:	fd442703          	lw	a4,-44(s0)
    1d28:	0cf77b63          	bgeu	a4,a5,1dfe <fifo_write_buffer+0xf4>
C:/Users/86158/Desktop/IEECS-Design/Hardware/Reference/CHV307_Library-master/Example/libraries/zf_common/zf_common_fifo.c:117
    {
        interrupt_global_disable();
    1d2c:	2a29                	jal	1e46 <interrupt_global_disable>
C:/Users/86158/Desktop/IEECS-Design/Hardware/Reference/CHV307_Library-master/Example/libraries/zf_common/zf_common_fifo.c:118
        temp_length = fifo->max - fifo->head;                                   // 计算头指针距离缓冲区尾还有多少空间
    1d2e:	fdc42783          	lw	a5,-36(s0)
    1d32:	4b98                	lw	a4,16(a5)
    1d34:	fdc42783          	lw	a5,-36(s0)
    1d38:	43dc                	lw	a5,4(a5)
    1d3a:	40f707b3          	sub	a5,a4,a5
    1d3e:	fef42623          	sw	a5,-20(s0)
C:/Users/86158/Desktop/IEECS-Design/Hardware/Reference/CHV307_Library-master/Example/libraries/zf_common/zf_common_fifo.c:120

        if(length > temp_length)                                                // 距离缓冲区尾长度不足写入数据 环形缓冲区分段操作
    1d42:	fd442703          	lw	a4,-44(s0)
    1d46:	fec42783          	lw	a5,-20(s0)
    1d4a:	06e7fb63          	bgeu	a5,a4,1dc0 <fifo_write_buffer+0xb6>
C:/Users/86158/Desktop/IEECS-Design/Hardware/Reference/CHV307_Library-master/Example/libraries/zf_common/zf_common_fifo.c:122
        {
            memcpy(&fifo->buffer[fifo->head], dat, temp_length);                // 拷贝第一段数据
    1d4e:	fdc42783          	lw	a5,-36(s0)
    1d52:	4398                	lw	a4,0(a5)
    1d54:	fdc42783          	lw	a5,-36(s0)
    1d58:	43dc                	lw	a5,4(a5)
    1d5a:	97ba                	add	a5,a5,a4
    1d5c:	fec42603          	lw	a2,-20(s0)
    1d60:	fd842583          	lw	a1,-40(s0)
    1d64:	853e                	mv	a0,a5
    1d66:	150040ef          	jal	ra,5eb6 <memcpy>
C:/Users/86158/Desktop/IEECS-Design/Hardware/Reference/CHV307_Library-master/Example/libraries/zf_common/zf_common_fifo.c:123
            fifo_head_offset(fifo, temp_length);                                // 头指针偏移
    1d6a:	fec42583          	lw	a1,-20(s0)
    1d6e:	fdc42503          	lw	a0,-36(s0)
    1d72:	37a9                	jal	1cbc <fifo_head_offset>
C:/Users/86158/Desktop/IEECS-Design/Hardware/Reference/CHV307_Library-master/Example/libraries/zf_common/zf_common_fifo.c:124
            dat += temp_length;                                                 // 读取缓冲偏移
    1d74:	fd842703          	lw	a4,-40(s0)
    1d78:	fec42783          	lw	a5,-20(s0)
    1d7c:	97ba                	add	a5,a5,a4
    1d7e:	fcf42c23          	sw	a5,-40(s0)
C:/Users/86158/Desktop/IEECS-Design/Hardware/Reference/CHV307_Library-master/Example/libraries/zf_common/zf_common_fifo.c:125
            memcpy(&fifo->buffer[fifo->head], dat, length - temp_length);       // 拷贝第一段数据
    1d82:	fdc42783          	lw	a5,-36(s0)
    1d86:	4398                	lw	a4,0(a5)
    1d88:	fdc42783          	lw	a5,-36(s0)
    1d8c:	43dc                	lw	a5,4(a5)
    1d8e:	00f706b3          	add	a3,a4,a5
    1d92:	fd442703          	lw	a4,-44(s0)
    1d96:	fec42783          	lw	a5,-20(s0)
    1d9a:	40f707b3          	sub	a5,a4,a5
    1d9e:	863e                	mv	a2,a5
    1da0:	fd842583          	lw	a1,-40(s0)
    1da4:	8536                	mv	a0,a3
    1da6:	110040ef          	jal	ra,5eb6 <memcpy>
C:/Users/86158/Desktop/IEECS-Design/Hardware/Reference/CHV307_Library-master/Example/libraries/zf_common/zf_common_fifo.c:126
            fifo_head_offset(fifo, length - temp_length);                       // 头指针偏移
    1daa:	fd442703          	lw	a4,-44(s0)
    1dae:	fec42783          	lw	a5,-20(s0)
    1db2:	40f707b3          	sub	a5,a4,a5
    1db6:	85be                	mv	a1,a5
    1db8:	fdc42503          	lw	a0,-36(s0)
    1dbc:	3701                	jal	1cbc <fifo_head_offset>
    1dbe:	a025                	j	1de6 <fifo_write_buffer+0xdc>
C:/Users/86158/Desktop/IEECS-Design/Hardware/Reference/CHV307_Library-master/Example/libraries/zf_common/zf_common_fifo.c:130
        }
        else
        {
            memcpy(&fifo->buffer[fifo->head], dat, length);                     // 一次完整写入
    1dc0:	fdc42783          	lw	a5,-36(s0)
    1dc4:	4398                	lw	a4,0(a5)
    1dc6:	fdc42783          	lw	a5,-36(s0)
    1dca:	43dc                	lw	a5,4(a5)
    1dcc:	97ba                	add	a5,a5,a4
    1dce:	fd442603          	lw	a2,-44(s0)
    1dd2:	fd842583          	lw	a1,-40(s0)
    1dd6:	853e                	mv	a0,a5
    1dd8:	0de040ef          	jal	ra,5eb6 <memcpy>
C:/Users/86158/Desktop/IEECS-Design/Hardware/Reference/CHV307_Library-master/Example/libraries/zf_common/zf_common_fifo.c:131
            fifo_head_offset(fifo, length);                                     // 头指针偏移
    1ddc:	fd442583          	lw	a1,-44(s0)
    1de0:	fdc42503          	lw	a0,-36(s0)
    1de4:	3de1                	jal	1cbc <fifo_head_offset>
C:/Users/86158/Desktop/IEECS-Design/Hardware/Reference/CHV307_Library-master/Example/libraries/zf_common/zf_common_fifo.c:134
        }

        fifo->size -= length;                                                   // 缓冲区剩余长度减小
    1de6:	fdc42783          	lw	a5,-36(s0)
    1dea:	47d8                	lw	a4,12(a5)
    1dec:	fd442783          	lw	a5,-44(s0)
    1df0:	8f1d                	sub	a4,a4,a5
    1df2:	fdc42783          	lw	a5,-36(s0)
    1df6:	c7d8                	sw	a4,12(a5)
C:/Users/86158/Desktop/IEECS-Design/Hardware/Reference/CHV307_Library-master/Example/libraries/zf_common/zf_common_fifo.c:135
        interrupt_global_enable();
    1df8:	2005                	jal	1e18 <interrupt_global_enable>
C:/Users/86158/Desktop/IEECS-Design/Hardware/Reference/CHV307_Library-master/Example/libraries/zf_common/zf_common_fifo.c:142
    else
    {
        return FIFO_SPACE_NO_ENOUGH;
    }
    
    return FIFO_SUCCESS;
    1dfa:	4781                	li	a5,0
    1dfc:	a011                	j	1e00 <fifo_write_buffer+0xf6>
C:/Users/86158/Desktop/IEECS-Design/Hardware/Reference/CHV307_Library-master/Example/libraries/zf_common/zf_common_fifo.c:139
        return FIFO_SPACE_NO_ENOUGH;
    1dfe:	4789                	li	a5,2
C:/Users/86158/Desktop/IEECS-Design/Hardware/Reference/CHV307_Library-master/Example/libraries/zf_common/zf_common_fifo.c:143
}
    1e00:	853e                	mv	a0,a5
    1e02:	50b2                	lw	ra,44(sp)
    1e04:	5422                	lw	s0,40(sp)
    1e06:	6145                	addi	sp,sp,48
    1e08:	8082                	ret

00001e0a <interrupt_init>:
interrupt_init():
C:/Users/86158/Desktop/IEECS-Design/Hardware/Reference/CHV307_Library-master/Example/libraries/zf_common/zf_common_interrupt.c:69
// @param       void
// @return      void
// Sample usage:                interrupt_init();
//-------------------------------------------------------------------------------------------------------------------
void interrupt_init (void)
{
    1e0a:	1141                	addi	sp,sp,-16
    1e0c:	c622                	sw	s0,12(sp)
    1e0e:	0800                	addi	s0,sp,16
C:/Users/86158/Desktop/IEECS-Design/Hardware/Reference/CHV307_Library-master/Example/libraries/zf_common/zf_common_interrupt.c:72
    //NVIC_SetPriorityGrouping(4);

}
    1e10:	0001                	nop
    1e12:	4432                	lw	s0,12(sp)
    1e14:	0141                	addi	sp,sp,16
    1e16:	8082                	ret

00001e18 <interrupt_global_enable>:
interrupt_global_enable():
C:/Users/86158/Desktop/IEECS-Design/Hardware/Reference/CHV307_Library-master/Example/libraries/zf_common/zf_common_interrupt.c:81
// @param       void            还原的嵌套层 如果传入 0 则直接清空嵌套层数开启总中断
// @return      void
// Sample usage:                interrupt_global_enable();
//-------------------------------------------------------------------------------------------------------------------
void interrupt_global_enable (void)
{
    1e18:	1141                	addi	sp,sp,-16
    1e1a:	c606                	sw	ra,12(sp)
    1e1c:	c422                	sw	s0,8(sp)
    1e1e:	0800                	addi	s0,sp,16
C:/Users/86158/Desktop/IEECS-Design/Hardware/Reference/CHV307_Library-master/Example/libraries/zf_common/zf_common_interrupt.c:82
    if(interrupt_nest_count)
    1e20:	8481a783          	lw	a5,-1976(gp) # 20000278 <interrupt_nest_count>
    1e24:	c799                	beqz	a5,1e32 <interrupt_global_enable+0x1a>
C:/Users/86158/Desktop/IEECS-Design/Hardware/Reference/CHV307_Library-master/Example/libraries/zf_common/zf_common_interrupt.c:83
        interrupt_nest_count--;
    1e26:	8481a783          	lw	a5,-1976(gp) # 20000278 <interrupt_nest_count>
    1e2a:	fff78713          	addi	a4,a5,-1
    1e2e:	84e1a423          	sw	a4,-1976(gp) # 20000278 <interrupt_nest_count>
C:/Users/86158/Desktop/IEECS-Design/Hardware/Reference/CHV307_Library-master/Example/libraries/zf_common/zf_common_interrupt.c:85

    if(interrupt_nest_count == 0)
    1e32:	8481a783          	lw	a5,-1976(gp) # 20000278 <interrupt_nest_count>
    1e36:	e399                	bnez	a5,1e3c <interrupt_global_enable+0x24>
C:/Users/86158/Desktop/IEECS-Design/Hardware/Reference/CHV307_Library-master/Example/libraries/zf_common/zf_common_interrupt.c:88
    {
        extern void en_interrupt();
        en_interrupt();
    1e38:	bcefe0ef          	jal	ra,206 <en_interrupt>
C:/Users/86158/Desktop/IEECS-Design/Hardware/Reference/CHV307_Library-master/Example/libraries/zf_common/zf_common_interrupt.c:90
    }
}
    1e3c:	0001                	nop
    1e3e:	40b2                	lw	ra,12(sp)
    1e40:	4422                	lw	s0,8(sp)
    1e42:	0141                	addi	sp,sp,16
    1e44:	8082                	ret

00001e46 <interrupt_global_disable>:
interrupt_global_disable():
C:/Users/86158/Desktop/IEECS-Design/Hardware/Reference/CHV307_Library-master/Example/libraries/zf_common/zf_common_interrupt.c:99
// @param       void
// @return      void
// Sample usage:                interrupt_disable_all();
//-------------------------------------------------------------------------------------------------------------------
void interrupt_global_disable (void)
{
    1e46:	1141                	addi	sp,sp,-16
    1e48:	c606                	sw	ra,12(sp)
    1e4a:	c422                	sw	s0,8(sp)
    1e4c:	0800                	addi	s0,sp,16
C:/Users/86158/Desktop/IEECS-Design/Hardware/Reference/CHV307_Library-master/Example/libraries/zf_common/zf_common_interrupt.c:100
    if(!interrupt_nest_count)
    1e4e:	8481a783          	lw	a5,-1976(gp) # 20000278 <interrupt_nest_count>
    1e52:	e399                	bnez	a5,1e58 <interrupt_global_disable+0x12>
C:/Users/86158/Desktop/IEECS-Design/Hardware/Reference/CHV307_Library-master/Example/libraries/zf_common/zf_common_interrupt.c:103
    {
        extern void dis_interrupt();
        dis_interrupt();
    1e54:	bacfe0ef          	jal	ra,200 <dis_interrupt>
C:/Users/86158/Desktop/IEECS-Design/Hardware/Reference/CHV307_Library-master/Example/libraries/zf_common/zf_common_interrupt.c:105
    }
    interrupt_nest_count++;
    1e58:	8481a783          	lw	a5,-1976(gp) # 20000278 <interrupt_nest_count>
    1e5c:	00178713          	addi	a4,a5,1
    1e60:	84e1a423          	sw	a4,-1976(gp) # 20000278 <interrupt_nest_count>
C:/Users/86158/Desktop/IEECS-Design/Hardware/Reference/CHV307_Library-master/Example/libraries/zf_common/zf_common_interrupt.c:110
    //返回当前mstatus寄存器的值
//    uint32 temp;
//    temp = __get_MSTATUS();
//    return temp;
}
    1e64:	0001                	nop
    1e66:	40b2                	lw	ra,12(sp)
    1e68:	4422                	lw	s0,8(sp)
    1e6a:	0141                	addi	sp,sp,16
    1e6c:	8082                	ret

00001e6e <USART1_IRQHandler>:
USART1_IRQHandler():
C:/Users/86158/Desktop/IEECS-Design/Hardware/Reference/CHV307_Library-master/Example/4-Encoder Demo/user/src/isr.c:65
void EXTI4_IRQHandler(void) __attribute__((interrupt("WCH-Interrupt-fast")));
void EXTI9_5_IRQHandler(void) __attribute__((interrupt("WCH-Interrupt-fast")));
void EXTI15_10_IRQHandler(void) __attribute__((interrupt("WCH-Interrupt-fast")));

void USART1_IRQHandler(void)
{
    1e6e:	1141                	addi	sp,sp,-16
    1e70:	c622                	sw	s0,12(sp)
    1e72:	0800                	addi	s0,sp,16
C:/Users/86158/Desktop/IEECS-Design/Hardware/Reference/CHV307_Library-master/Example/4-Encoder Demo/user/src/isr.c:66
    if(USART_GetITStatus(USART1, USART_IT_RXNE) != RESET)
    1e74:	52500593          	li	a1,1317
    1e78:	400147b7          	lui	a5,0x40014
    1e7c:	80078513          	addi	a0,a5,-2048 # 40013800 <_eusrstack+0x20003800>
    1e80:	5ea010ef          	jal	ra,346a <USART_GetITStatus>
    1e84:	87aa                	mv	a5,a0
    1e86:	cb89                	beqz	a5,1e98 <USART1_IRQHandler+0x2a>
C:/Users/86158/Desktop/IEECS-Design/Hardware/Reference/CHV307_Library-master/Example/4-Encoder Demo/user/src/isr.c:69
    {

        USART_ClearITPendingBit(USART1, USART_IT_RXNE);
    1e88:	52500593          	li	a1,1317
    1e8c:	400147b7          	lui	a5,0x40014
    1e90:	80078513          	addi	a0,a5,-2048 # 40013800 <_eusrstack+0x20003800>
    1e94:	6d8010ef          	jal	ra,356c <USART_ClearITPendingBit>
C:/Users/86158/Desktop/IEECS-Design/Hardware/Reference/CHV307_Library-master/Example/4-Encoder Demo/user/src/isr.c:71
    }
}
    1e98:	0001                	nop
    1e9a:	4432                	lw	s0,12(sp)
    1e9c:	0141                	addi	sp,sp,16
    1e9e:	30200073          	mret

00001ea2 <USART2_IRQHandler>:
USART2_IRQHandler():
C:/Users/86158/Desktop/IEECS-Design/Hardware/Reference/CHV307_Library-master/Example/4-Encoder Demo/user/src/isr.c:73
void USART2_IRQHandler(void)
{
    1ea2:	1141                	addi	sp,sp,-16
    1ea4:	c622                	sw	s0,12(sp)
    1ea6:	0800                	addi	s0,sp,16
C:/Users/86158/Desktop/IEECS-Design/Hardware/Reference/CHV307_Library-master/Example/4-Encoder Demo/user/src/isr.c:74
    if(USART_GetITStatus(USART2, USART_IT_RXNE) != RESET)
    1ea8:	52500593          	li	a1,1317
    1eac:	400047b7          	lui	a5,0x40004
    1eb0:	40078513          	addi	a0,a5,1024 # 40004400 <_eusrstack+0x1fff4400>
    1eb4:	5b6010ef          	jal	ra,346a <USART_GetITStatus>
    1eb8:	87aa                	mv	a5,a0
    1eba:	c3a1                	beqz	a5,1efa <USART2_IRQHandler+0x58>
C:/Users/86158/Desktop/IEECS-Design/Hardware/Reference/CHV307_Library-master/Example/4-Encoder Demo/user/src/isr.c:76
    {
        if(wireless_type == WIRELESS_UART)
    1ebc:	8381a703          	lw	a4,-1992(gp) # 20000268 <wireless_type>
    1ec0:	4785                	li	a5,1
    1ec2:	00f71563          	bne	a4,a5,1ecc <USART2_IRQHandler+0x2a>
C:/Users/86158/Desktop/IEECS-Design/Hardware/Reference/CHV307_Library-master/Example/4-Encoder Demo/user/src/isr.c:78
        {
            wireless_uart_callback();
    1ec6:	cfeff0ef          	jal	ra,13c4 <wireless_uart_callback>
    1eca:	a005                	j	1eea <USART2_IRQHandler+0x48>
C:/Users/86158/Desktop/IEECS-Design/Hardware/Reference/CHV307_Library-master/Example/4-Encoder Demo/user/src/isr.c:80
        }
        else if(wireless_type == BLUETOOTH_CH9141)
    1ecc:	8381a703          	lw	a4,-1992(gp) # 20000268 <wireless_type>
    1ed0:	4789                	li	a5,2
    1ed2:	00f71563          	bne	a4,a5,1edc <USART2_IRQHandler+0x3a>
C:/Users/86158/Desktop/IEECS-Design/Hardware/Reference/CHV307_Library-master/Example/4-Encoder Demo/user/src/isr.c:82
        {
            bluetooth_ch9141_uart_callback_ch2();
    1ed6:	b4cff0ef          	jal	ra,1222 <bluetooth_ch9141_uart_callback_ch2>
    1eda:	a801                	j	1eea <USART2_IRQHandler+0x48>
C:/Users/86158/Desktop/IEECS-Design/Hardware/Reference/CHV307_Library-master/Example/4-Encoder Demo/user/src/isr.c:84
        }
        else if(wireless_type == WIRELESS_CH573)
    1edc:	8381a703          	lw	a4,-1992(gp) # 20000268 <wireless_type>
    1ee0:	478d                	li	a5,3
    1ee2:	00f71463          	bne	a4,a5,1eea <USART2_IRQHandler+0x48>
C:/Users/86158/Desktop/IEECS-Design/Hardware/Reference/CHV307_Library-master/Example/4-Encoder Demo/user/src/isr.c:86
        {
            wireless_ch573_callback();
    1ee6:	cb6ff0ef          	jal	ra,139c <wireless_ch573_callback>
C:/Users/86158/Desktop/IEECS-Design/Hardware/Reference/CHV307_Library-master/Example/4-Encoder Demo/user/src/isr.c:88
        }
        USART_ClearITPendingBit(USART2, USART_IT_RXNE);
    1eea:	52500593          	li	a1,1317
    1eee:	400047b7          	lui	a5,0x40004
    1ef2:	40078513          	addi	a0,a5,1024 # 40004400 <_eusrstack+0x1fff4400>
    1ef6:	676010ef          	jal	ra,356c <USART_ClearITPendingBit>
C:/Users/86158/Desktop/IEECS-Design/Hardware/Reference/CHV307_Library-master/Example/4-Encoder Demo/user/src/isr.c:90
    }
}
    1efa:	0001                	nop
    1efc:	4432                	lw	s0,12(sp)
    1efe:	0141                	addi	sp,sp,16
    1f00:	30200073          	mret

00001f04 <USART3_IRQHandler>:
USART3_IRQHandler():
C:/Users/86158/Desktop/IEECS-Design/Hardware/Reference/CHV307_Library-master/Example/4-Encoder Demo/user/src/isr.c:92
void USART3_IRQHandler(void)
{
    1f04:	1141                	addi	sp,sp,-16
    1f06:	c622                	sw	s0,12(sp)
    1f08:	0800                	addi	s0,sp,16
C:/Users/86158/Desktop/IEECS-Design/Hardware/Reference/CHV307_Library-master/Example/4-Encoder Demo/user/src/isr.c:93
    if(USART_GetITStatus(USART3, USART_IT_RXNE) != RESET)
    1f0a:	52500593          	li	a1,1317
    1f0e:	400057b7          	lui	a5,0x40005
    1f12:	80078513          	addi	a0,a5,-2048 # 40004800 <_eusrstack+0x1fff4800>
    1f16:	554010ef          	jal	ra,346a <USART_GetITStatus>
    1f1a:	87aa                	mv	a5,a0
    1f1c:	cb89                	beqz	a5,1f2e <USART3_IRQHandler+0x2a>
C:/Users/86158/Desktop/IEECS-Design/Hardware/Reference/CHV307_Library-master/Example/4-Encoder Demo/user/src/isr.c:96
    {

        USART_ClearITPendingBit(USART3, USART_IT_RXNE);
    1f1e:	52500593          	li	a1,1317
    1f22:	400057b7          	lui	a5,0x40005
    1f26:	80078513          	addi	a0,a5,-2048 # 40004800 <_eusrstack+0x1fff4800>
    1f2a:	642010ef          	jal	ra,356c <USART_ClearITPendingBit>
C:/Users/86158/Desktop/IEECS-Design/Hardware/Reference/CHV307_Library-master/Example/4-Encoder Demo/user/src/isr.c:98
    }
}
    1f2e:	0001                	nop
    1f30:	4432                	lw	s0,12(sp)
    1f32:	0141                	addi	sp,sp,16
    1f34:	30200073          	mret

00001f38 <UART4_IRQHandler>:
UART4_IRQHandler():
C:/Users/86158/Desktop/IEECS-Design/Hardware/Reference/CHV307_Library-master/Example/4-Encoder Demo/user/src/isr.c:100
void UART4_IRQHandler (void)
{
    1f38:	1141                	addi	sp,sp,-16
    1f3a:	c622                	sw	s0,12(sp)
    1f3c:	0800                	addi	s0,sp,16
C:/Users/86158/Desktop/IEECS-Design/Hardware/Reference/CHV307_Library-master/Example/4-Encoder Demo/user/src/isr.c:101
    if(USART_GetITStatus(UART4, USART_IT_RXNE) != RESET)
    1f3e:	52500593          	li	a1,1317
    1f42:	400057b7          	lui	a5,0x40005
    1f46:	c0078513          	addi	a0,a5,-1024 # 40004c00 <_eusrstack+0x1fff4c00>
    1f4a:	520010ef          	jal	ra,346a <USART_GetITStatus>
    1f4e:	87aa                	mv	a5,a0
    1f50:	cb89                	beqz	a5,1f62 <UART4_IRQHandler+0x2a>
C:/Users/86158/Desktop/IEECS-Design/Hardware/Reference/CHV307_Library-master/Example/4-Encoder Demo/user/src/isr.c:104
    {

        USART_ClearITPendingBit(UART4, USART_IT_RXNE);
    1f52:	52500593          	li	a1,1317
    1f56:	400057b7          	lui	a5,0x40005
    1f5a:	c0078513          	addi	a0,a5,-1024 # 40004c00 <_eusrstack+0x1fff4c00>
    1f5e:	60e010ef          	jal	ra,356c <USART_ClearITPendingBit>
C:/Users/86158/Desktop/IEECS-Design/Hardware/Reference/CHV307_Library-master/Example/4-Encoder Demo/user/src/isr.c:106
    }
}
    1f62:	0001                	nop
    1f64:	4432                	lw	s0,12(sp)
    1f66:	0141                	addi	sp,sp,16
    1f68:	30200073          	mret

00001f6c <UART5_IRQHandler>:
UART5_IRQHandler():
C:/Users/86158/Desktop/IEECS-Design/Hardware/Reference/CHV307_Library-master/Example/4-Encoder Demo/user/src/isr.c:108
void UART5_IRQHandler (void)
{
    1f6c:	1141                	addi	sp,sp,-16
    1f6e:	c622                	sw	s0,12(sp)
    1f70:	0800                	addi	s0,sp,16
C:/Users/86158/Desktop/IEECS-Design/Hardware/Reference/CHV307_Library-master/Example/4-Encoder Demo/user/src/isr.c:109
    if(USART_GetITStatus(UART5, USART_IT_RXNE) != RESET)
    1f72:	52500593          	li	a1,1317
    1f76:	40005537          	lui	a0,0x40005
    1f7a:	4f0010ef          	jal	ra,346a <USART_GetITStatus>
    1f7e:	87aa                	mv	a5,a0
    1f80:	cb89                	beqz	a5,1f92 <UART5_IRQHandler+0x26>
C:/Users/86158/Desktop/IEECS-Design/Hardware/Reference/CHV307_Library-master/Example/4-Encoder Demo/user/src/isr.c:111
    {
        camera_uart_handler();
    1f82:	ac8ff0ef          	jal	ra,124a <camera_uart_handler>
C:/Users/86158/Desktop/IEECS-Design/Hardware/Reference/CHV307_Library-master/Example/4-Encoder Demo/user/src/isr.c:112
        USART_ClearITPendingBit(UART5, USART_IT_RXNE);
    1f86:	52500593          	li	a1,1317
    1f8a:	40005537          	lui	a0,0x40005
    1f8e:	5de010ef          	jal	ra,356c <USART_ClearITPendingBit>
C:/Users/86158/Desktop/IEECS-Design/Hardware/Reference/CHV307_Library-master/Example/4-Encoder Demo/user/src/isr.c:114
    }
}
    1f92:	0001                	nop
    1f94:	4432                	lw	s0,12(sp)
    1f96:	0141                	addi	sp,sp,16
    1f98:	30200073          	mret

00001f9c <UART6_IRQHandler>:
UART6_IRQHandler():
C:/Users/86158/Desktop/IEECS-Design/Hardware/Reference/CHV307_Library-master/Example/4-Encoder Demo/user/src/isr.c:116
void UART6_IRQHandler (void)
{
    1f9c:	1141                	addi	sp,sp,-16
    1f9e:	c622                	sw	s0,12(sp)
    1fa0:	0800                	addi	s0,sp,16
C:/Users/86158/Desktop/IEECS-Design/Hardware/Reference/CHV307_Library-master/Example/4-Encoder Demo/user/src/isr.c:117
    if(USART_GetITStatus(UART6, USART_IT_RXNE) != RESET)
    1fa2:	52500593          	li	a1,1317
    1fa6:	400027b7          	lui	a5,0x40002
    1faa:	80078513          	addi	a0,a5,-2048 # 40001800 <_eusrstack+0x1fff1800>
    1fae:	4bc010ef          	jal	ra,346a <USART_GetITStatus>
    1fb2:	87aa                	mv	a5,a0
    1fb4:	cb89                	beqz	a5,1fc6 <UART6_IRQHandler+0x2a>
C:/Users/86158/Desktop/IEECS-Design/Hardware/Reference/CHV307_Library-master/Example/4-Encoder Demo/user/src/isr.c:120
    {

        USART_ClearITPendingBit(UART6, USART_IT_RXNE);
    1fb6:	52500593          	li	a1,1317
    1fba:	400027b7          	lui	a5,0x40002
    1fbe:	80078513          	addi	a0,a5,-2048 # 40001800 <_eusrstack+0x1fff1800>
    1fc2:	5aa010ef          	jal	ra,356c <USART_ClearITPendingBit>
C:/Users/86158/Desktop/IEECS-Design/Hardware/Reference/CHV307_Library-master/Example/4-Encoder Demo/user/src/isr.c:122
    }
}
    1fc6:	0001                	nop
    1fc8:	4432                	lw	s0,12(sp)
    1fca:	0141                	addi	sp,sp,16
    1fcc:	30200073          	mret

00001fd0 <UART7_IRQHandler>:
UART7_IRQHandler():
C:/Users/86158/Desktop/IEECS-Design/Hardware/Reference/CHV307_Library-master/Example/4-Encoder Demo/user/src/isr.c:124
void UART7_IRQHandler (void)
{
    1fd0:	1141                	addi	sp,sp,-16
    1fd2:	c622                	sw	s0,12(sp)
    1fd4:	0800                	addi	s0,sp,16
C:/Users/86158/Desktop/IEECS-Design/Hardware/Reference/CHV307_Library-master/Example/4-Encoder Demo/user/src/isr.c:125
    if(USART_GetITStatus(UART7, USART_IT_RXNE) != RESET)
    1fd6:	52500593          	li	a1,1317
    1fda:	400027b7          	lui	a5,0x40002
    1fde:	c0078513          	addi	a0,a5,-1024 # 40001c00 <_eusrstack+0x1fff1c00>
    1fe2:	488010ef          	jal	ra,346a <USART_GetITStatus>
    1fe6:	87aa                	mv	a5,a0
    1fe8:	c78d                	beqz	a5,2012 <UART7_IRQHandler+0x42>
C:/Users/86158/Desktop/IEECS-Design/Hardware/Reference/CHV307_Library-master/Example/4-Encoder Demo/user/src/isr.c:127
    {
        if(wireless_type == WIRELESS_UART)
    1fea:	8381a703          	lw	a4,-1992(gp) # 20000268 <wireless_type>
    1fee:	4785                	li	a5,1
    1ff0:	00f70963          	beq	a4,a5,2002 <UART7_IRQHandler+0x32>
C:/Users/86158/Desktop/IEECS-Design/Hardware/Reference/CHV307_Library-master/Example/4-Encoder Demo/user/src/isr.c:131
        {

        }
        else if(wireless_type == BLUETOOTH_CH9141)
    1ff4:	8381a703          	lw	a4,-1992(gp) # 20000268 <wireless_type>
    1ff8:	4789                	li	a5,2
    1ffa:	00f71463          	bne	a4,a5,2002 <UART7_IRQHandler+0x32>
C:/Users/86158/Desktop/IEECS-Design/Hardware/Reference/CHV307_Library-master/Example/4-Encoder Demo/user/src/isr.c:133
        {
            bluetooth_ch9141_uart_callback_ch1();
    1ffe:	9fcff0ef          	jal	ra,11fa <bluetooth_ch9141_uart_callback_ch1>
C:/Users/86158/Desktop/IEECS-Design/Hardware/Reference/CHV307_Library-master/Example/4-Encoder Demo/user/src/isr.c:135
        }
        USART_ClearITPendingBit(UART7, USART_IT_RXNE);
    2002:	52500593          	li	a1,1317
    2006:	400027b7          	lui	a5,0x40002
    200a:	c0078513          	addi	a0,a5,-1024 # 40001c00 <_eusrstack+0x1fff1c00>
    200e:	55e010ef          	jal	ra,356c <USART_ClearITPendingBit>
C:/Users/86158/Desktop/IEECS-Design/Hardware/Reference/CHV307_Library-master/Example/4-Encoder Demo/user/src/isr.c:137
    }
}
    2012:	0001                	nop
    2014:	4432                	lw	s0,12(sp)
    2016:	0141                	addi	sp,sp,16
    2018:	30200073          	mret

0000201c <UART8_IRQHandler>:
UART8_IRQHandler():
C:/Users/86158/Desktop/IEECS-Design/Hardware/Reference/CHV307_Library-master/Example/4-Encoder Demo/user/src/isr.c:139
void UART8_IRQHandler (void)
{
    201c:	1141                	addi	sp,sp,-16
    201e:	c622                	sw	s0,12(sp)
    2020:	0800                	addi	s0,sp,16
C:/Users/86158/Desktop/IEECS-Design/Hardware/Reference/CHV307_Library-master/Example/4-Encoder Demo/user/src/isr.c:140
    if(USART_GetITStatus(UART8, USART_IT_RXNE) != RESET)
    2022:	52500593          	li	a1,1317
    2026:	40002537          	lui	a0,0x40002
    202a:	440010ef          	jal	ra,346a <USART_GetITStatus>
    202e:	87aa                	mv	a5,a0
    2030:	c799                	beqz	a5,203e <UART8_IRQHandler+0x22>
C:/Users/86158/Desktop/IEECS-Design/Hardware/Reference/CHV307_Library-master/Example/4-Encoder Demo/user/src/isr.c:144
    {
//        extern void uart_handler (void);
//        uart_handler();
        USART_ClearITPendingBit(UART8, USART_IT_RXNE);
    2032:	52500593          	li	a1,1317
    2036:	40002537          	lui	a0,0x40002
    203a:	532010ef          	jal	ra,356c <USART_ClearITPendingBit>
C:/Users/86158/Desktop/IEECS-Design/Hardware/Reference/CHV307_Library-master/Example/4-Encoder Demo/user/src/isr.c:146
    }
}
    203e:	0001                	nop
    2040:	4432                	lw	s0,12(sp)
    2042:	0141                	addi	sp,sp,16
    2044:	30200073          	mret

00002048 <DVP_IRQHandler>:
DVP_IRQHandler():
C:/Users/86158/Desktop/IEECS-Design/Hardware/Reference/CHV307_Library-master/Example/4-Encoder Demo/user/src/isr.c:151



void DVP_IRQHandler(void)
{
    2048:	1141                	addi	sp,sp,-16
    204a:	c622                	sw	s0,12(sp)
    204c:	0800                	addi	s0,sp,16
C:/Users/86158/Desktop/IEECS-Design/Hardware/Reference/CHV307_Library-master/Example/4-Encoder Demo/user/src/isr.c:152
    if (DVP->IFR & RB_DVP_IF_FRM_DONE)
    204e:	500507b7          	lui	a5,0x50050
    2052:	0107c783          	lbu	a5,16(a5) # 50050010 <_eusrstack+0x30040010>
    2056:	0ff7f793          	andi	a5,a5,255
    205a:	8b91                	andi	a5,a5,4
    205c:	c385                	beqz	a5,207c <DVP_IRQHandler+0x34>
C:/Users/86158/Desktop/IEECS-Design/Hardware/Reference/CHV307_Library-master/Example/4-Encoder Demo/user/src/isr.c:154
    {
        camera_dvp_handler();
    205e:	a22ff0ef          	jal	ra,1280 <camera_dvp_handler>
C:/Users/86158/Desktop/IEECS-Design/Hardware/Reference/CHV307_Library-master/Example/4-Encoder Demo/user/src/isr.c:155
        DVP->IFR &= ~RB_DVP_IF_FRM_DONE;
    2062:	500507b7          	lui	a5,0x50050
    2066:	0107c783          	lbu	a5,16(a5) # 50050010 <_eusrstack+0x30040010>
    206a:	0ff7f713          	andi	a4,a5,255
    206e:	500507b7          	lui	a5,0x50050
    2072:	9b6d                	andi	a4,a4,-5
    2074:	0ff77713          	andi	a4,a4,255
    2078:	00e78823          	sb	a4,16(a5) # 50050010 <_eusrstack+0x30040010>
C:/Users/86158/Desktop/IEECS-Design/Hardware/Reference/CHV307_Library-master/Example/4-Encoder Demo/user/src/isr.c:157
    }
}
    207c:	0001                	nop
    207e:	4432                	lw	s0,12(sp)
    2080:	0141                	addi	sp,sp,16
    2082:	30200073          	mret

00002086 <EXTI0_IRQHandler>:
EXTI0_IRQHandler():
C:/Users/86158/Desktop/IEECS-Design/Hardware/Reference/CHV307_Library-master/Example/4-Encoder Demo/user/src/isr.c:159
void EXTI0_IRQHandler(void)
{
    2086:	1141                	addi	sp,sp,-16
    2088:	c622                	sw	s0,12(sp)
    208a:	0800                	addi	s0,sp,16
C:/Users/86158/Desktop/IEECS-Design/Hardware/Reference/CHV307_Library-master/Example/4-Encoder Demo/user/src/isr.c:160
    if(SET == EXTI_GetITStatus(EXTI_Line0))
    208c:	4505                	li	a0,1
    208e:	23b9                	jal	25dc <EXTI_GetITStatus>
    2090:	872a                	mv	a4,a0
    2092:	4785                	li	a5,1
    2094:	00f71463          	bne	a4,a5,209c <EXTI0_IRQHandler+0x16>
C:/Users/86158/Desktop/IEECS-Design/Hardware/Reference/CHV307_Library-master/Example/4-Encoder Demo/user/src/isr.c:162
    {
        EXTI_ClearITPendingBit(EXTI_Line0);
    2098:	4505                	li	a0,1
    209a:	2b61                	jal	2632 <EXTI_ClearITPendingBit>
C:/Users/86158/Desktop/IEECS-Design/Hardware/Reference/CHV307_Library-master/Example/4-Encoder Demo/user/src/isr.c:165

    }
}
    209c:	0001                	nop
    209e:	4432                	lw	s0,12(sp)
    20a0:	0141                	addi	sp,sp,16
    20a2:	30200073          	mret

000020a6 <EXTI1_IRQHandler>:
EXTI1_IRQHandler():
C:/Users/86158/Desktop/IEECS-Design/Hardware/Reference/CHV307_Library-master/Example/4-Encoder Demo/user/src/isr.c:168

void EXTI1_IRQHandler(void)
{
    20a6:	1141                	addi	sp,sp,-16
    20a8:	c622                	sw	s0,12(sp)
    20aa:	0800                	addi	s0,sp,16
C:/Users/86158/Desktop/IEECS-Design/Hardware/Reference/CHV307_Library-master/Example/4-Encoder Demo/user/src/isr.c:169
    if(SET == EXTI_GetITStatus(EXTI_Line1))
    20ac:	4509                	li	a0,2
    20ae:	233d                	jal	25dc <EXTI_GetITStatus>
    20b0:	872a                	mv	a4,a0
    20b2:	4785                	li	a5,1
    20b4:	00f71463          	bne	a4,a5,20bc <EXTI1_IRQHandler+0x16>
C:/Users/86158/Desktop/IEECS-Design/Hardware/Reference/CHV307_Library-master/Example/4-Encoder Demo/user/src/isr.c:171
    {
        EXTI_ClearITPendingBit(EXTI_Line1);
    20b8:	4509                	li	a0,2
    20ba:	2ba5                	jal	2632 <EXTI_ClearITPendingBit>
C:/Users/86158/Desktop/IEECS-Design/Hardware/Reference/CHV307_Library-master/Example/4-Encoder Demo/user/src/isr.c:174

    }
}
    20bc:	0001                	nop
    20be:	4432                	lw	s0,12(sp)
    20c0:	0141                	addi	sp,sp,16
    20c2:	30200073          	mret

000020c6 <EXTI2_IRQHandler>:
EXTI2_IRQHandler():
C:/Users/86158/Desktop/IEECS-Design/Hardware/Reference/CHV307_Library-master/Example/4-Encoder Demo/user/src/isr.c:177

void EXTI2_IRQHandler(void)
{
    20c6:	1141                	addi	sp,sp,-16
    20c8:	c622                	sw	s0,12(sp)
    20ca:	0800                	addi	s0,sp,16
C:/Users/86158/Desktop/IEECS-Design/Hardware/Reference/CHV307_Library-master/Example/4-Encoder Demo/user/src/isr.c:178
    if(SET == EXTI_GetITStatus(EXTI_Line2))
    20cc:	4511                	li	a0,4
    20ce:	2339                	jal	25dc <EXTI_GetITStatus>
    20d0:	872a                	mv	a4,a0
    20d2:	4785                	li	a5,1
    20d4:	00f71463          	bne	a4,a5,20dc <EXTI2_IRQHandler+0x16>
C:/Users/86158/Desktop/IEECS-Design/Hardware/Reference/CHV307_Library-master/Example/4-Encoder Demo/user/src/isr.c:180
    {
        EXTI_ClearITPendingBit(EXTI_Line2);
    20d8:	4511                	li	a0,4
    20da:	2ba1                	jal	2632 <EXTI_ClearITPendingBit>
C:/Users/86158/Desktop/IEECS-Design/Hardware/Reference/CHV307_Library-master/Example/4-Encoder Demo/user/src/isr.c:183

    }
}
    20dc:	0001                	nop
    20de:	4432                	lw	s0,12(sp)
    20e0:	0141                	addi	sp,sp,16
    20e2:	30200073          	mret

000020e6 <EXTI3_IRQHandler>:
EXTI3_IRQHandler():
C:/Users/86158/Desktop/IEECS-Design/Hardware/Reference/CHV307_Library-master/Example/4-Encoder Demo/user/src/isr.c:186

void EXTI3_IRQHandler(void)
{
    20e6:	1141                	addi	sp,sp,-16
    20e8:	c622                	sw	s0,12(sp)
    20ea:	0800                	addi	s0,sp,16
C:/Users/86158/Desktop/IEECS-Design/Hardware/Reference/CHV307_Library-master/Example/4-Encoder Demo/user/src/isr.c:187
    if(SET == EXTI_GetITStatus(EXTI_Line3))
    20ec:	4521                	li	a0,8
    20ee:	21fd                	jal	25dc <EXTI_GetITStatus>
    20f0:	872a                	mv	a4,a0
    20f2:	4785                	li	a5,1
    20f4:	00f71463          	bne	a4,a5,20fc <EXTI3_IRQHandler+0x16>
C:/Users/86158/Desktop/IEECS-Design/Hardware/Reference/CHV307_Library-master/Example/4-Encoder Demo/user/src/isr.c:189
    {
        EXTI_ClearITPendingBit(EXTI_Line3);
    20f8:	4521                	li	a0,8
    20fa:	2b25                	jal	2632 <EXTI_ClearITPendingBit>
C:/Users/86158/Desktop/IEECS-Design/Hardware/Reference/CHV307_Library-master/Example/4-Encoder Demo/user/src/isr.c:192

    }
}
    20fc:	0001                	nop
    20fe:	4432                	lw	s0,12(sp)
    2100:	0141                	addi	sp,sp,16
    2102:	30200073          	mret

00002106 <EXTI4_IRQHandler>:
EXTI4_IRQHandler():
C:/Users/86158/Desktop/IEECS-Design/Hardware/Reference/CHV307_Library-master/Example/4-Encoder Demo/user/src/isr.c:195

void EXTI4_IRQHandler(void)
{
    2106:	1141                	addi	sp,sp,-16
    2108:	c622                	sw	s0,12(sp)
    210a:	0800                	addi	s0,sp,16
C:/Users/86158/Desktop/IEECS-Design/Hardware/Reference/CHV307_Library-master/Example/4-Encoder Demo/user/src/isr.c:196
    if(SET == EXTI_GetITStatus(EXTI_Line4))
    210c:	4541                	li	a0,16
    210e:	21f9                	jal	25dc <EXTI_GetITStatus>
    2110:	872a                	mv	a4,a0
    2112:	4785                	li	a5,1
    2114:	00f71463          	bne	a4,a5,211c <EXTI4_IRQHandler+0x16>
C:/Users/86158/Desktop/IEECS-Design/Hardware/Reference/CHV307_Library-master/Example/4-Encoder Demo/user/src/isr.c:198
    {
        EXTI_ClearITPendingBit(EXTI_Line4);
    2118:	4541                	li	a0,16
    211a:	2b21                	jal	2632 <EXTI_ClearITPendingBit>
C:/Users/86158/Desktop/IEECS-Design/Hardware/Reference/CHV307_Library-master/Example/4-Encoder Demo/user/src/isr.c:201

    }
}
    211c:	0001                	nop
    211e:	4432                	lw	s0,12(sp)
    2120:	0141                	addi	sp,sp,16
    2122:	30200073          	mret

00002126 <EXTI9_5_IRQHandler>:
EXTI9_5_IRQHandler():
C:/Users/86158/Desktop/IEECS-Design/Hardware/Reference/CHV307_Library-master/Example/4-Encoder Demo/user/src/isr.c:203
void EXTI9_5_IRQHandler(void)
{
    2126:	1141                	addi	sp,sp,-16
    2128:	c622                	sw	s0,12(sp)
    212a:	0800                	addi	s0,sp,16
C:/Users/86158/Desktop/IEECS-Design/Hardware/Reference/CHV307_Library-master/Example/4-Encoder Demo/user/src/isr.c:204
    if(SET == EXTI_GetITStatus(EXTI_Line5))
    212c:	02000513          	li	a0,32
    2130:	2175                	jal	25dc <EXTI_GetITStatus>
    2132:	872a                	mv	a4,a0
    2134:	4785                	li	a5,1
    2136:	00f71563          	bne	a4,a5,2140 <EXTI9_5_IRQHandler+0x1a>
C:/Users/86158/Desktop/IEECS-Design/Hardware/Reference/CHV307_Library-master/Example/4-Encoder Demo/user/src/isr.c:206
    {
        EXTI_ClearITPendingBit(EXTI_Line5);
    213a:	02000513          	li	a0,32
    213e:	29d5                	jal	2632 <EXTI_ClearITPendingBit>
C:/Users/86158/Desktop/IEECS-Design/Hardware/Reference/CHV307_Library-master/Example/4-Encoder Demo/user/src/isr.c:209

    }
    if(SET == EXTI_GetITStatus(EXTI_Line6))
    2140:	04000513          	li	a0,64
    2144:	2961                	jal	25dc <EXTI_GetITStatus>
    2146:	872a                	mv	a4,a0
    2148:	4785                	li	a5,1
    214a:	00f71563          	bne	a4,a5,2154 <EXTI9_5_IRQHandler+0x2e>
C:/Users/86158/Desktop/IEECS-Design/Hardware/Reference/CHV307_Library-master/Example/4-Encoder Demo/user/src/isr.c:211
    {
        EXTI_ClearITPendingBit(EXTI_Line6);
    214e:	04000513          	li	a0,64
    2152:	21c5                	jal	2632 <EXTI_ClearITPendingBit>
C:/Users/86158/Desktop/IEECS-Design/Hardware/Reference/CHV307_Library-master/Example/4-Encoder Demo/user/src/isr.c:214

    }
    if(SET == EXTI_GetITStatus(EXTI_Line7))
    2154:	08000513          	li	a0,128
    2158:	2151                	jal	25dc <EXTI_GetITStatus>
    215a:	872a                	mv	a4,a0
    215c:	4785                	li	a5,1
    215e:	00f71563          	bne	a4,a5,2168 <EXTI9_5_IRQHandler+0x42>
C:/Users/86158/Desktop/IEECS-Design/Hardware/Reference/CHV307_Library-master/Example/4-Encoder Demo/user/src/isr.c:216
    {
        EXTI_ClearITPendingBit(EXTI_Line7);
    2162:	08000513          	li	a0,128
    2166:	21f1                	jal	2632 <EXTI_ClearITPendingBit>
C:/Users/86158/Desktop/IEECS-Design/Hardware/Reference/CHV307_Library-master/Example/4-Encoder Demo/user/src/isr.c:219

    }
    if(SET == EXTI_GetITStatus(EXTI_Line8))
    2168:	10000513          	li	a0,256
    216c:	2985                	jal	25dc <EXTI_GetITStatus>
    216e:	872a                	mv	a4,a0
    2170:	4785                	li	a5,1
    2172:	00f71563          	bne	a4,a5,217c <EXTI9_5_IRQHandler+0x56>
C:/Users/86158/Desktop/IEECS-Design/Hardware/Reference/CHV307_Library-master/Example/4-Encoder Demo/user/src/isr.c:221
    {
        EXTI_ClearITPendingBit(EXTI_Line8);
    2176:	10000513          	li	a0,256
    217a:	2965                	jal	2632 <EXTI_ClearITPendingBit>
C:/Users/86158/Desktop/IEECS-Design/Hardware/Reference/CHV307_Library-master/Example/4-Encoder Demo/user/src/isr.c:224

    }
    if(SET == EXTI_GetITStatus(EXTI_Line9))
    217c:	20000513          	li	a0,512
    2180:	29b1                	jal	25dc <EXTI_GetITStatus>
    2182:	872a                	mv	a4,a0
    2184:	4785                	li	a5,1
    2186:	00f71563          	bne	a4,a5,2190 <EXTI9_5_IRQHandler+0x6a>
C:/Users/86158/Desktop/IEECS-Design/Hardware/Reference/CHV307_Library-master/Example/4-Encoder Demo/user/src/isr.c:226
    {
        EXTI_ClearITPendingBit(EXTI_Line9);
    218a:	20000513          	li	a0,512
    218e:	2155                	jal	2632 <EXTI_ClearITPendingBit>
C:/Users/86158/Desktop/IEECS-Design/Hardware/Reference/CHV307_Library-master/Example/4-Encoder Demo/user/src/isr.c:230

    }

}
    2190:	0001                	nop
    2192:	4432                	lw	s0,12(sp)
    2194:	0141                	addi	sp,sp,16
    2196:	30200073          	mret

0000219a <EXTI15_10_IRQHandler>:
EXTI15_10_IRQHandler():
C:/Users/86158/Desktop/IEECS-Design/Hardware/Reference/CHV307_Library-master/Example/4-Encoder Demo/user/src/isr.c:233

void EXTI15_10_IRQHandler(void)
{
    219a:	1141                	addi	sp,sp,-16
    219c:	c622                	sw	s0,12(sp)
    219e:	0800                	addi	s0,sp,16
C:/Users/86158/Desktop/IEECS-Design/Hardware/Reference/CHV307_Library-master/Example/4-Encoder Demo/user/src/isr.c:234
    if(SET == EXTI_GetITStatus(EXTI_Line10))
    21a0:	40000513          	li	a0,1024
    21a4:	2925                	jal	25dc <EXTI_GetITStatus>
    21a6:	872a                	mv	a4,a0
    21a8:	4785                	li	a5,1
    21aa:	00f71563          	bne	a4,a5,21b4 <EXTI15_10_IRQHandler+0x1a>
C:/Users/86158/Desktop/IEECS-Design/Hardware/Reference/CHV307_Library-master/Example/4-Encoder Demo/user/src/isr.c:236
    {
        EXTI_ClearITPendingBit(EXTI_Line10);
    21ae:	40000513          	li	a0,1024
    21b2:	2141                	jal	2632 <EXTI_ClearITPendingBit>
C:/Users/86158/Desktop/IEECS-Design/Hardware/Reference/CHV307_Library-master/Example/4-Encoder Demo/user/src/isr.c:239

    }
    if(SET == EXTI_GetITStatus(EXTI_Line11))
    21b4:	6785                	lui	a5,0x1
    21b6:	80078513          	addi	a0,a5,-2048 # 800 <__stack_size>
    21ba:	210d                	jal	25dc <EXTI_GetITStatus>
    21bc:	872a                	mv	a4,a0
    21be:	4785                	li	a5,1
    21c0:	00f71663          	bne	a4,a5,21cc <EXTI15_10_IRQHandler+0x32>
C:/Users/86158/Desktop/IEECS-Design/Hardware/Reference/CHV307_Library-master/Example/4-Encoder Demo/user/src/isr.c:241
    {
        EXTI_ClearITPendingBit(EXTI_Line11);
    21c4:	6785                	lui	a5,0x1
    21c6:	80078513          	addi	a0,a5,-2048 # 800 <__stack_size>
    21ca:	21a5                	jal	2632 <EXTI_ClearITPendingBit>
C:/Users/86158/Desktop/IEECS-Design/Hardware/Reference/CHV307_Library-master/Example/4-Encoder Demo/user/src/isr.c:244

    }
    if(SET == EXTI_GetITStatus(EXTI_Line12))
    21cc:	6505                	lui	a0,0x1
    21ce:	2139                	jal	25dc <EXTI_GetITStatus>
    21d0:	872a                	mv	a4,a0
    21d2:	4785                	li	a5,1
    21d4:	00f71463          	bne	a4,a5,21dc <EXTI15_10_IRQHandler+0x42>
C:/Users/86158/Desktop/IEECS-Design/Hardware/Reference/CHV307_Library-master/Example/4-Encoder Demo/user/src/isr.c:246
    {
        EXTI_ClearITPendingBit(EXTI_Line12);
    21d8:	6505                	lui	a0,0x1
    21da:	29a1                	jal	2632 <EXTI_ClearITPendingBit>
C:/Users/86158/Desktop/IEECS-Design/Hardware/Reference/CHV307_Library-master/Example/4-Encoder Demo/user/src/isr.c:249

    }
    if(SET == EXTI_GetITStatus(EXTI_Line13))
    21dc:	6509                	lui	a0,0x2
    21de:	2efd                	jal	25dc <EXTI_GetITStatus>
    21e0:	872a                	mv	a4,a0
    21e2:	4785                	li	a5,1
    21e4:	00f71463          	bne	a4,a5,21ec <EXTI15_10_IRQHandler+0x52>
C:/Users/86158/Desktop/IEECS-Design/Hardware/Reference/CHV307_Library-master/Example/4-Encoder Demo/user/src/isr.c:251
    {
        EXTI_ClearITPendingBit(EXTI_Line13);
    21e8:	6509                	lui	a0,0x2
    21ea:	21a1                	jal	2632 <EXTI_ClearITPendingBit>
C:/Users/86158/Desktop/IEECS-Design/Hardware/Reference/CHV307_Library-master/Example/4-Encoder Demo/user/src/isr.c:254

    }
    if(SET == EXTI_GetITStatus(EXTI_Line14))
    21ec:	6511                	lui	a0,0x4
    21ee:	26fd                	jal	25dc <EXTI_GetITStatus>
    21f0:	872a                	mv	a4,a0
    21f2:	4785                	li	a5,1
    21f4:	00f71463          	bne	a4,a5,21fc <EXTI15_10_IRQHandler+0x62>
C:/Users/86158/Desktop/IEECS-Design/Hardware/Reference/CHV307_Library-master/Example/4-Encoder Demo/user/src/isr.c:256
    {
        EXTI_ClearITPendingBit(EXTI_Line14);
    21f8:	6511                	lui	a0,0x4
    21fa:	2925                	jal	2632 <EXTI_ClearITPendingBit>
C:/Users/86158/Desktop/IEECS-Design/Hardware/Reference/CHV307_Library-master/Example/4-Encoder Demo/user/src/isr.c:259

    }
    if(SET == EXTI_GetITStatus(EXTI_Line15))
    21fc:	6521                	lui	a0,0x8
    21fe:	2ef9                	jal	25dc <EXTI_GetITStatus>
    2200:	872a                	mv	a4,a0
    2202:	4785                	li	a5,1
    2204:	00f71463          	bne	a4,a5,220c <EXTI15_10_IRQHandler+0x72>
C:/Users/86158/Desktop/IEECS-Design/Hardware/Reference/CHV307_Library-master/Example/4-Encoder Demo/user/src/isr.c:261
    {
        EXTI_ClearITPendingBit(EXTI_Line15);
    2208:	6521                	lui	a0,0x8
    220a:	2125                	jal	2632 <EXTI_ClearITPendingBit>
C:/Users/86158/Desktop/IEECS-Design/Hardware/Reference/CHV307_Library-master/Example/4-Encoder Demo/user/src/isr.c:264

    }
}
    220c:	0001                	nop
    220e:	4432                	lw	s0,12(sp)
    2210:	0141                	addi	sp,sp,16
    2212:	30200073          	mret

00002216 <TIM1_UP_IRQHandler>:
TIM1_UP_IRQHandler():
C:/Users/86158/Desktop/IEECS-Design/Hardware/Reference/CHV307_Library-master/Example/4-Encoder Demo/user/src/isr.c:267

void TIM1_UP_IRQHandler(void)
{
    2216:	1141                	addi	sp,sp,-16
    2218:	c622                	sw	s0,12(sp)
    221a:	0800                	addi	s0,sp,16
C:/Users/86158/Desktop/IEECS-Design/Hardware/Reference/CHV307_Library-master/Example/4-Encoder Demo/user/src/isr.c:268
    if(TIM_GetITStatus(TIM1, TIM_IT_Update) != RESET)
    221c:	4585                	li	a1,1
    221e:	400137b7          	lui	a5,0x40013
    2222:	c0078513          	addi	a0,a5,-1024 # 40012c00 <_eusrstack+0x20002c00>
    2226:	69f000ef          	jal	ra,30c4 <TIM_GetITStatus>
    222a:	87aa                	mv	a5,a0
    222c:	cb81                	beqz	a5,223c <TIM1_UP_IRQHandler+0x26>
C:/Users/86158/Desktop/IEECS-Design/Hardware/Reference/CHV307_Library-master/Example/4-Encoder Demo/user/src/isr.c:270
    {
        TIM_ClearITPendingBit(TIM1, TIM_IT_Update);
    222e:	4585                	li	a1,1
    2230:	400137b7          	lui	a5,0x40013
    2234:	c0078513          	addi	a0,a5,-1024 # 40012c00 <_eusrstack+0x20002c00>
    2238:	6fd000ef          	jal	ra,3134 <TIM_ClearITPendingBit>
C:/Users/86158/Desktop/IEECS-Design/Hardware/Reference/CHV307_Library-master/Example/4-Encoder Demo/user/src/isr.c:273

    }
}
    223c:	0001                	nop
    223e:	4432                	lw	s0,12(sp)
    2240:	0141                	addi	sp,sp,16
    2242:	30200073          	mret

00002246 <TIM2_IRQHandler>:
TIM2_IRQHandler():
C:/Users/86158/Desktop/IEECS-Design/Hardware/Reference/CHV307_Library-master/Example/4-Encoder Demo/user/src/isr.c:277


void TIM2_IRQHandler(void)
{
    2246:	1141                	addi	sp,sp,-16
    2248:	c622                	sw	s0,12(sp)
    224a:	0800                	addi	s0,sp,16
C:/Users/86158/Desktop/IEECS-Design/Hardware/Reference/CHV307_Library-master/Example/4-Encoder Demo/user/src/isr.c:278
    if(TIM_GetITStatus(TIM2, TIM_IT_Update) != RESET)
    224c:	4585                	li	a1,1
    224e:	40000537          	lui	a0,0x40000
    2252:	673000ef          	jal	ra,30c4 <TIM_GetITStatus>
    2256:	87aa                	mv	a5,a0
    2258:	c791                	beqz	a5,2264 <TIM2_IRQHandler+0x1e>
C:/Users/86158/Desktop/IEECS-Design/Hardware/Reference/CHV307_Library-master/Example/4-Encoder Demo/user/src/isr.c:280
    {
       TIM_ClearITPendingBit(TIM2, TIM_IT_Update );
    225a:	4585                	li	a1,1
    225c:	40000537          	lui	a0,0x40000
    2260:	6d5000ef          	jal	ra,3134 <TIM_ClearITPendingBit>
C:/Users/86158/Desktop/IEECS-Design/Hardware/Reference/CHV307_Library-master/Example/4-Encoder Demo/user/src/isr.c:284


    }
}
    2264:	0001                	nop
    2266:	4432                	lw	s0,12(sp)
    2268:	0141                	addi	sp,sp,16
    226a:	30200073          	mret

0000226e <TIM3_IRQHandler>:
TIM3_IRQHandler():
C:/Users/86158/Desktop/IEECS-Design/Hardware/Reference/CHV307_Library-master/Example/4-Encoder Demo/user/src/isr.c:287

void TIM3_IRQHandler(void)
{
    226e:	1141                	addi	sp,sp,-16
    2270:	c622                	sw	s0,12(sp)
    2272:	0800                	addi	s0,sp,16
C:/Users/86158/Desktop/IEECS-Design/Hardware/Reference/CHV307_Library-master/Example/4-Encoder Demo/user/src/isr.c:288
    if(TIM_GetITStatus(TIM3, TIM_IT_Update) != RESET)
    2274:	4585                	li	a1,1
    2276:	400007b7          	lui	a5,0x40000
    227a:	40078513          	addi	a0,a5,1024 # 40000400 <_eusrstack+0x1fff0400>
    227e:	647000ef          	jal	ra,30c4 <TIM_GetITStatus>
    2282:	87aa                	mv	a5,a0
    2284:	cb81                	beqz	a5,2294 <TIM3_IRQHandler+0x26>
C:/Users/86158/Desktop/IEECS-Design/Hardware/Reference/CHV307_Library-master/Example/4-Encoder Demo/user/src/isr.c:290
    {
       TIM_ClearITPendingBit(TIM3, TIM_IT_Update );
    2286:	4585                	li	a1,1
    2288:	400007b7          	lui	a5,0x40000
    228c:	40078513          	addi	a0,a5,1024 # 40000400 <_eusrstack+0x1fff0400>
    2290:	6a5000ef          	jal	ra,3134 <TIM_ClearITPendingBit>
C:/Users/86158/Desktop/IEECS-Design/Hardware/Reference/CHV307_Library-master/Example/4-Encoder Demo/user/src/isr.c:294


    }
}
    2294:	0001                	nop
    2296:	4432                	lw	s0,12(sp)
    2298:	0141                	addi	sp,sp,16
    229a:	30200073          	mret

0000229e <TIM4_IRQHandler>:
TIM4_IRQHandler():
C:/Users/86158/Desktop/IEECS-Design/Hardware/Reference/CHV307_Library-master/Example/4-Encoder Demo/user/src/isr.c:297

void TIM4_IRQHandler(void)
{
    229e:	1141                	addi	sp,sp,-16
    22a0:	c622                	sw	s0,12(sp)
    22a2:	0800                	addi	s0,sp,16
C:/Users/86158/Desktop/IEECS-Design/Hardware/Reference/CHV307_Library-master/Example/4-Encoder Demo/user/src/isr.c:298
    if(TIM_GetITStatus(TIM4, TIM_IT_Update) != RESET)
    22a4:	4585                	li	a1,1
    22a6:	400017b7          	lui	a5,0x40001
    22aa:	80078513          	addi	a0,a5,-2048 # 40000800 <_eusrstack+0x1fff0800>
    22ae:	617000ef          	jal	ra,30c4 <TIM_GetITStatus>
    22b2:	87aa                	mv	a5,a0
    22b4:	cb81                	beqz	a5,22c4 <TIM4_IRQHandler+0x26>
C:/Users/86158/Desktop/IEECS-Design/Hardware/Reference/CHV307_Library-master/Example/4-Encoder Demo/user/src/isr.c:300
    {
       TIM_ClearITPendingBit(TIM4, TIM_IT_Update );
    22b6:	4585                	li	a1,1
    22b8:	400017b7          	lui	a5,0x40001
    22bc:	80078513          	addi	a0,a5,-2048 # 40000800 <_eusrstack+0x1fff0800>
    22c0:	675000ef          	jal	ra,3134 <TIM_ClearITPendingBit>
C:/Users/86158/Desktop/IEECS-Design/Hardware/Reference/CHV307_Library-master/Example/4-Encoder Demo/user/src/isr.c:304


    }
}
    22c4:	0001                	nop
    22c6:	4432                	lw	s0,12(sp)
    22c8:	0141                	addi	sp,sp,16
    22ca:	30200073          	mret

000022ce <TIM5_IRQHandler>:
TIM5_IRQHandler():
C:/Users/86158/Desktop/IEECS-Design/Hardware/Reference/CHV307_Library-master/Example/4-Encoder Demo/user/src/isr.c:307

void TIM5_IRQHandler(void)
{
    22ce:	1141                	addi	sp,sp,-16
    22d0:	c622                	sw	s0,12(sp)
    22d2:	0800                	addi	s0,sp,16
C:/Users/86158/Desktop/IEECS-Design/Hardware/Reference/CHV307_Library-master/Example/4-Encoder Demo/user/src/isr.c:308
    if(TIM_GetITStatus(TIM5, TIM_IT_Update) != RESET)
    22d4:	4585                	li	a1,1
    22d6:	400017b7          	lui	a5,0x40001
    22da:	c0078513          	addi	a0,a5,-1024 # 40000c00 <_eusrstack+0x1fff0c00>
    22de:	5e7000ef          	jal	ra,30c4 <TIM_GetITStatus>
    22e2:	87aa                	mv	a5,a0
    22e4:	cb81                	beqz	a5,22f4 <TIM5_IRQHandler+0x26>
C:/Users/86158/Desktop/IEECS-Design/Hardware/Reference/CHV307_Library-master/Example/4-Encoder Demo/user/src/isr.c:310
    {
       TIM_ClearITPendingBit(TIM5, TIM_IT_Update );
    22e6:	4585                	li	a1,1
    22e8:	400017b7          	lui	a5,0x40001
    22ec:	c0078513          	addi	a0,a5,-1024 # 40000c00 <_eusrstack+0x1fff0c00>
    22f0:	645000ef          	jal	ra,3134 <TIM_ClearITPendingBit>
C:/Users/86158/Desktop/IEECS-Design/Hardware/Reference/CHV307_Library-master/Example/4-Encoder Demo/user/src/isr.c:314


    }
}
    22f4:	0001                	nop
    22f6:	4432                	lw	s0,12(sp)
    22f8:	0141                	addi	sp,sp,16
    22fa:	30200073          	mret

000022fe <TIM6_IRQHandler>:
TIM6_IRQHandler():
C:/Users/86158/Desktop/IEECS-Design/Hardware/Reference/CHV307_Library-master/Example/4-Encoder Demo/user/src/isr.c:317

void TIM6_IRQHandler(void)
{
    22fe:	1141                	addi	sp,sp,-16
    2300:	c622                	sw	s0,12(sp)
    2302:	0800                	addi	s0,sp,16
C:/Users/86158/Desktop/IEECS-Design/Hardware/Reference/CHV307_Library-master/Example/4-Encoder Demo/user/src/isr.c:318
    if(TIM_GetITStatus(TIM6, TIM_IT_Update) != RESET)
    2304:	4585                	li	a1,1
    2306:	40001537          	lui	a0,0x40001
    230a:	5bb000ef          	jal	ra,30c4 <TIM_GetITStatus>
    230e:	87aa                	mv	a5,a0
    2310:	c791                	beqz	a5,231c <TIM6_IRQHandler+0x1e>
C:/Users/86158/Desktop/IEECS-Design/Hardware/Reference/CHV307_Library-master/Example/4-Encoder Demo/user/src/isr.c:320
    {
       TIM_ClearITPendingBit(TIM6, TIM_IT_Update );
    2312:	4585                	li	a1,1
    2314:	40001537          	lui	a0,0x40001
    2318:	61d000ef          	jal	ra,3134 <TIM_ClearITPendingBit>
C:/Users/86158/Desktop/IEECS-Design/Hardware/Reference/CHV307_Library-master/Example/4-Encoder Demo/user/src/isr.c:324


    }
}
    231c:	0001                	nop
    231e:	4432                	lw	s0,12(sp)
    2320:	0141                	addi	sp,sp,16
    2322:	30200073          	mret

00002326 <TIM7_IRQHandler>:
TIM7_IRQHandler():
C:/Users/86158/Desktop/IEECS-Design/Hardware/Reference/CHV307_Library-master/Example/4-Encoder Demo/user/src/isr.c:327

void TIM7_IRQHandler(void)
{
    2326:	1141                	addi	sp,sp,-16
    2328:	c622                	sw	s0,12(sp)
    232a:	0800                	addi	s0,sp,16
C:/Users/86158/Desktop/IEECS-Design/Hardware/Reference/CHV307_Library-master/Example/4-Encoder Demo/user/src/isr.c:328
    if(TIM_GetITStatus(TIM7, TIM_IT_Update) != RESET)
    232c:	4585                	li	a1,1
    232e:	400017b7          	lui	a5,0x40001
    2332:	40078513          	addi	a0,a5,1024 # 40001400 <_eusrstack+0x1fff1400>
    2336:	58f000ef          	jal	ra,30c4 <TIM_GetITStatus>
    233a:	87aa                	mv	a5,a0
    233c:	cb81                	beqz	a5,234c <TIM7_IRQHandler+0x26>
C:/Users/86158/Desktop/IEECS-Design/Hardware/Reference/CHV307_Library-master/Example/4-Encoder Demo/user/src/isr.c:330
    {
       TIM_ClearITPendingBit(TIM7, TIM_IT_Update );
    233e:	4585                	li	a1,1
    2340:	400017b7          	lui	a5,0x40001
    2344:	40078513          	addi	a0,a5,1024 # 40001400 <_eusrstack+0x1fff1400>
    2348:	5ed000ef          	jal	ra,3134 <TIM_ClearITPendingBit>
C:/Users/86158/Desktop/IEECS-Design/Hardware/Reference/CHV307_Library-master/Example/4-Encoder Demo/user/src/isr.c:334


    }
}
    234c:	0001                	nop
    234e:	4432                	lw	s0,12(sp)
    2350:	0141                	addi	sp,sp,16
    2352:	30200073          	mret

00002356 <TIM8_UP_IRQHandler>:
TIM8_UP_IRQHandler():
C:/Users/86158/Desktop/IEECS-Design/Hardware/Reference/CHV307_Library-master/Example/4-Encoder Demo/user/src/isr.c:338


void TIM8_UP_IRQHandler(void)
{
    2356:	1141                	addi	sp,sp,-16
    2358:	c622                	sw	s0,12(sp)
    235a:	0800                	addi	s0,sp,16
C:/Users/86158/Desktop/IEECS-Design/Hardware/Reference/CHV307_Library-master/Example/4-Encoder Demo/user/src/isr.c:339
    if(TIM_GetITStatus(TIM8, TIM_IT_Update) != RESET)
    235c:	4585                	li	a1,1
    235e:	400137b7          	lui	a5,0x40013
    2362:	40078513          	addi	a0,a5,1024 # 40013400 <_eusrstack+0x20003400>
    2366:	55f000ef          	jal	ra,30c4 <TIM_GetITStatus>
    236a:	87aa                	mv	a5,a0
    236c:	cb81                	beqz	a5,237c <TIM8_UP_IRQHandler+0x26>
C:/Users/86158/Desktop/IEECS-Design/Hardware/Reference/CHV307_Library-master/Example/4-Encoder Demo/user/src/isr.c:341
    {
        TIM_ClearITPendingBit(TIM8, TIM_IT_Update);
    236e:	4585                	li	a1,1
    2370:	400137b7          	lui	a5,0x40013
    2374:	40078513          	addi	a0,a5,1024 # 40013400 <_eusrstack+0x20003400>
    2378:	5bd000ef          	jal	ra,3134 <TIM_ClearITPendingBit>
C:/Users/86158/Desktop/IEECS-Design/Hardware/Reference/CHV307_Library-master/Example/4-Encoder Demo/user/src/isr.c:344

    }
}
    237c:	0001                	nop
    237e:	4432                	lw	s0,12(sp)
    2380:	0141                	addi	sp,sp,16
    2382:	30200073          	mret

00002386 <TIM9_UP_IRQHandler>:
TIM9_UP_IRQHandler():
C:/Users/86158/Desktop/IEECS-Design/Hardware/Reference/CHV307_Library-master/Example/4-Encoder Demo/user/src/isr.c:348


void TIM9_UP_IRQHandler(void)
{
    2386:	1141                	addi	sp,sp,-16
    2388:	c622                	sw	s0,12(sp)
    238a:	0800                	addi	s0,sp,16
C:/Users/86158/Desktop/IEECS-Design/Hardware/Reference/CHV307_Library-master/Example/4-Encoder Demo/user/src/isr.c:349
    if(TIM_GetITStatus(TIM9, TIM_IT_Update) != RESET)
    238c:	4585                	li	a1,1
    238e:	400157b7          	lui	a5,0x40015
    2392:	c0078513          	addi	a0,a5,-1024 # 40014c00 <_eusrstack+0x20004c00>
    2396:	52f000ef          	jal	ra,30c4 <TIM_GetITStatus>
    239a:	87aa                	mv	a5,a0
    239c:	cb81                	beqz	a5,23ac <TIM9_UP_IRQHandler+0x26>
C:/Users/86158/Desktop/IEECS-Design/Hardware/Reference/CHV307_Library-master/Example/4-Encoder Demo/user/src/isr.c:351
    {
        TIM_ClearITPendingBit(TIM9, TIM_IT_Update);
    239e:	4585                	li	a1,1
    23a0:	400157b7          	lui	a5,0x40015
    23a4:	c0078513          	addi	a0,a5,-1024 # 40014c00 <_eusrstack+0x20004c00>
    23a8:	58d000ef          	jal	ra,3134 <TIM_ClearITPendingBit>
C:/Users/86158/Desktop/IEECS-Design/Hardware/Reference/CHV307_Library-master/Example/4-Encoder Demo/user/src/isr.c:354

    }
}
    23ac:	0001                	nop
    23ae:	4432                	lw	s0,12(sp)
    23b0:	0141                	addi	sp,sp,16
    23b2:	30200073          	mret

000023b6 <TIM10_UP_IRQHandler>:
TIM10_UP_IRQHandler():
C:/Users/86158/Desktop/IEECS-Design/Hardware/Reference/CHV307_Library-master/Example/4-Encoder Demo/user/src/isr.c:358


void TIM10_UP_IRQHandler(void)
{
    23b6:	1141                	addi	sp,sp,-16
    23b8:	c622                	sw	s0,12(sp)
    23ba:	0800                	addi	s0,sp,16
C:/Users/86158/Desktop/IEECS-Design/Hardware/Reference/CHV307_Library-master/Example/4-Encoder Demo/user/src/isr.c:359
    if(TIM_GetITStatus(TIM10, TIM_IT_Update) != RESET)
    23bc:	4585                	li	a1,1
    23be:	40015537          	lui	a0,0x40015
    23c2:	503000ef          	jal	ra,30c4 <TIM_GetITStatus>
    23c6:	87aa                	mv	a5,a0
    23c8:	c791                	beqz	a5,23d4 <TIM10_UP_IRQHandler+0x1e>
C:/Users/86158/Desktop/IEECS-Design/Hardware/Reference/CHV307_Library-master/Example/4-Encoder Demo/user/src/isr.c:361
    {
        TIM_ClearITPendingBit(TIM10, TIM_IT_Update);
    23ca:	4585                	li	a1,1
    23cc:	40015537          	lui	a0,0x40015
    23d0:	565000ef          	jal	ra,3134 <TIM_ClearITPendingBit>
C:/Users/86158/Desktop/IEECS-Design/Hardware/Reference/CHV307_Library-master/Example/4-Encoder Demo/user/src/isr.c:364

    }
}
    23d4:	0001                	nop
    23d6:	4432                	lw	s0,12(sp)
    23d8:	0141                	addi	sp,sp,16
    23da:	30200073          	mret

000023de <NMI_Handler>:
NMI_Handler():
C:/Users/86158/Desktop/IEECS-Design/Hardware/Reference/CHV307_Library-master/Example/4-Encoder Demo/user/src/isr.c:460
* Description    : This function handles NMI exception.
* Input          : None
* Return         : None
*******************************************************************************/
void NMI_Handler(void)
{
    23de:	1141                	addi	sp,sp,-16
    23e0:	c622                	sw	s0,12(sp)
    23e2:	0800                	addi	s0,sp,16
C:/Users/86158/Desktop/IEECS-Design/Hardware/Reference/CHV307_Library-master/Example/4-Encoder Demo/user/src/isr.c:461
}
    23e4:	0001                	nop
    23e6:	4432                	lw	s0,12(sp)
    23e8:	0141                	addi	sp,sp,16
    23ea:	30200073          	mret

000023ee <HardFault_Handler>:
HardFault_Handler():
C:/Users/86158/Desktop/IEECS-Design/Hardware/Reference/CHV307_Library-master/Example/4-Encoder Demo/user/src/isr.c:470
* Description    : This function handles Hard Fault exception.
* Input          : None
* Return         : None
*******************************************************************************/
void HardFault_Handler(void)
{
    23ee:	1141                	addi	sp,sp,-16
    23f0:	c622                	sw	s0,12(sp)
    23f2:	0800                	addi	s0,sp,16
C:/Users/86158/Desktop/IEECS-Design/Hardware/Reference/CHV307_Library-master/Example/4-Encoder Demo/user/src/isr.c:471 (discriminator 1)
  while (1)
    23f4:	a001                	j	23f4 <HardFault_Handler+0x6>

000023f6 <main>:
main():
C:/Users/86158/Desktop/IEECS-Design/Hardware/Reference/CHV307_Library-master/Example/4-Encoder Demo/user/src/main.c:67
#include "zf_common_headfile.h"

int16 encoder_data = 0;

int main(void)
{
    23f6:	1141                	addi	sp,sp,-16
    23f8:	c606                	sw	ra,12(sp)
    23fa:	c422                	sw	s0,8(sp)
    23fc:	c24a                	sw	s2,4(sp)
    23fe:	c04e                	sw	s3,0(sp)
    2400:	0800                	addi	s0,sp,16
C:/Users/86158/Desktop/IEECS-Design/Hardware/Reference/CHV307_Library-master/Example/4-Encoder Demo/user/src/main.c:68
    interrupt_global_disable();             // 关闭总中断
    2402:	a45ff0ef          	jal	ra,1e46 <interrupt_global_disable>
C:/Users/86158/Desktop/IEECS-Design/Hardware/Reference/CHV307_Library-master/Example/4-Encoder Demo/user/src/main.c:69
    clock_init(SYSTEM_CLOCK_144M);          // 务必保留，设置系统时钟。
    2406:	089547b7          	lui	a5,0x8954
    240a:	40078513          	addi	a0,a5,1024 # 8954400 <_data_lma+0x894a824>
    240e:	fdffe0ef          	jal	ra,13ec <clock_init>
C:/Users/86158/Desktop/IEECS-Design/Hardware/Reference/CHV307_Library-master/Example/4-Encoder Demo/user/src/main.c:70
    debug_init();                           // 务必保留，本函数用于初始化MPU 时钟 调试串口
    2412:	869ff0ef          	jal	ra,1c7a <debug_init>
C:/Users/86158/Desktop/IEECS-Design/Hardware/Reference/CHV307_Library-master/Example/4-Encoder Demo/user/src/main.c:74

    // 定时器编码器模式采集初始化
	// 使用定时器1，E9 和 E11作为输入引脚
    encoder_init_dir(ENCODER_DIR, ENCODER_DIR_DIR, ENCODER_DIR_PULSE);          // 初始化编码器模块与引脚 带方向增量编码器模式
    2416:	08b00613          	li	a2,139
    241a:	18900593          	li	a1,393
    241e:	4501                	li	a0,0
    2420:	972fe0ef          	jal	ra,592 <encoder_init_dir>
C:/Users/86158/Desktop/IEECS-Design/Hardware/Reference/CHV307_Library-master/Example/4-Encoder Demo/user/src/main.c:75
    encoder_init_quad(ENCODER_QUADDEC, ENCODER_QUADDEC_A, ENCODER_QUADDEC_B);   // 初始化编码器模块与引脚 正交解码编码器模式
    2424:	06b00613          	li	a2,107
    2428:	67a1                	lui	a5,0x8
    242a:	16978593          	addi	a1,a5,361 # 8169 <__multiply+0x101>
    242e:	4521                	li	a0,8
    2430:	f77fd0ef          	jal	ra,3a6 <encoder_init_quad>
C:/Users/86158/Desktop/IEECS-Design/Hardware/Reference/CHV307_Library-master/Example/4-Encoder Demo/user/src/main.c:78


    interrupt_global_enable();            // 总中断最后开启
    2434:	9e5ff0ef          	jal	ra,1e18 <interrupt_global_enable>
C:/Users/86158/Desktop/IEECS-Design/Hardware/Reference/CHV307_Library-master/Example/4-Encoder Demo/user/src/main.c:81 (discriminator 1)
    while(1)
    {
        encoder_data = encoder_get_count(ENCODER_QUADDEC);                      // 获取编码器计数
    2438:	4521                	li	a0,8
    243a:	f15fd0ef          	jal	ra,34e <encoder_get_count>
    243e:	87aa                	mv	a5,a0
    2440:	873e                	mv	a4,a5
    2442:	84e19623          	sh	a4,-1972(gp) # 2000027c <encoder_data>
C:/Users/86158/Desktop/IEECS-Design/Hardware/Reference/CHV307_Library-master/Example/4-Encoder Demo/user/src/main.c:82 (discriminator 1)
        encoder_clear_count(ENCODER_QUADDEC);                                   // 清空编码器计数
    2446:	4521                	li	a0,8
    2448:	f39fd0ef          	jal	ra,380 <encoder_clear_count>
C:/Users/86158/Desktop/IEECS-Design/Hardware/Reference/CHV307_Library-master/Example/4-Encoder Demo/user/src/main.c:83 (discriminator 1)
        printf("ENCODER_QUADDEC counter \t%d .\r\n", encoder_data);             // 输出编码器计数信息
    244c:	84c19783          	lh	a5,-1972(gp) # 2000027c <encoder_data>
    2450:	85be                	mv	a1,a5
    2452:	67a5                	lui	a5,0x9
    2454:	51078513          	addi	a0,a5,1296 # 9510 <_sbrk+0x122>
    2458:	504040ef          	jal	ra,695c <iprintf>
C:/Users/86158/Desktop/IEECS-Design/Hardware/Reference/CHV307_Library-master/Example/4-Encoder Demo/user/src/main.c:89 (discriminator 1)

//        encoder_data = encoder_get_count(ENCODER_DIR);                          // 获取编码器计数
//        encoder_clear_count(ENCODER_DIR);                                       // 清空编码器计数
//        printf("ENCODER_DIR counter \t\t%d .\r\n", encoder_data);               // 输出编码器计数信息

        system_delay_ms(100);
    245c:	8401a703          	lw	a4,-1984(gp) # 20000270 <system_clock>
    2460:	6789                	lui	a5,0x2
    2462:	f4078793          	addi	a5,a5,-192 # 1f40 <UART4_IRQHandler+0x8>
    2466:	02f75733          	divu	a4,a4,a5
    246a:	06400793          	li	a5,100
    246e:	02f707b3          	mul	a5,a4,a5
    2472:	893e                	mv	s2,a5
    2474:	4981                	li	s3,0
    2476:	854a                	mv	a0,s2
    2478:	85ce                	mv	a1,s3
    247a:	e43fd0ef          	jal	ra,2bc <system_delay>
C:/Users/86158/Desktop/IEECS-Design/Hardware/Reference/CHV307_Library-master/Example/4-Encoder Demo/user/src/main.c:81 (discriminator 1)
        encoder_data = encoder_get_count(ENCODER_QUADDEC);                      // 获取编码器计数
    247e:	bf6d                	j	2438 <main+0x42>
C:/Users/86158/Desktop/IEECS-Design/Hardware/Reference/CHV307_Library-master/Example/libraries/sdk/Startup/startup_ch32v30x.S:236
    .weak   DMA2_Channel8_IRQHandler   /* DMA2 Channel 8 */
    .weak   DMA2_Channel9_IRQHandler   /* DMA2 Channel 9 */
    .weak   DMA2_Channel10_IRQHandler  /* DMA2 Channel 10 */
    .weak   DMA2_Channel11_IRQHandler  /* DMA2 Channel 11 */

NMI_Handler:  1:  j 1b
    2480:	a001                	j	2480 <main+0x8a>
C:/Users/86158/Desktop/IEECS-Design/Hardware/Reference/CHV307_Library-master/Example/libraries/sdk/Startup/startup_ch32v30x.S:237
HardFault_Handler:  1:  j 1b
    2482:	a001                	j	2482 <main+0x8c>

00002484 <Ecall_M_Mode_Handler>:
Ecall_M_Mode_Handler():
C:/Users/86158/Desktop/IEECS-Design/Hardware/Reference/CHV307_Library-master/Example/libraries/sdk/Startup/startup_ch32v30x.S:238
Ecall_M_Mode_Handler:  1:  j 1b
    2484:	a001                	j	2484 <Ecall_M_Mode_Handler>

00002486 <Ecall_U_Mode_Handler>:
Ecall_U_Mode_Handler():
C:/Users/86158/Desktop/IEECS-Design/Hardware/Reference/CHV307_Library-master/Example/libraries/sdk/Startup/startup_ch32v30x.S:239
Ecall_U_Mode_Handler:  1:  j 1b
    2486:	a001                	j	2486 <Ecall_U_Mode_Handler>

00002488 <Break_Point_Handler>:
Break_Point_Handler():
C:/Users/86158/Desktop/IEECS-Design/Hardware/Reference/CHV307_Library-master/Example/libraries/sdk/Startup/startup_ch32v30x.S:240
Break_Point_Handler:  1:  j 1b
    2488:	a001                	j	2488 <Break_Point_Handler>

0000248a <SysTick_Handler>:
SysTick_Handler():
C:/Users/86158/Desktop/IEECS-Design/Hardware/Reference/CHV307_Library-master/Example/libraries/sdk/Startup/startup_ch32v30x.S:241
SysTick_Handler:  1:  j 1b
    248a:	a001                	j	248a <SysTick_Handler>

0000248c <SW_Handler>:
SW_Handler():
C:/Users/86158/Desktop/IEECS-Design/Hardware/Reference/CHV307_Library-master/Example/libraries/sdk/Startup/startup_ch32v30x.S:242
SW_Handler:  1:  j 1b
    248c:	a001                	j	248c <SW_Handler>

0000248e <WWDG_IRQHandler>:
WWDG_IRQHandler():
C:/Users/86158/Desktop/IEECS-Design/Hardware/Reference/CHV307_Library-master/Example/libraries/sdk/Startup/startup_ch32v30x.S:243
WWDG_IRQHandler:  1:  j 1b
    248e:	a001                	j	248e <WWDG_IRQHandler>

00002490 <PVD_IRQHandler>:
PVD_IRQHandler():
C:/Users/86158/Desktop/IEECS-Design/Hardware/Reference/CHV307_Library-master/Example/libraries/sdk/Startup/startup_ch32v30x.S:244
PVD_IRQHandler:  1:  j 1b
    2490:	a001                	j	2490 <PVD_IRQHandler>

00002492 <TAMPER_IRQHandler>:
TAMPER_IRQHandler():
C:/Users/86158/Desktop/IEECS-Design/Hardware/Reference/CHV307_Library-master/Example/libraries/sdk/Startup/startup_ch32v30x.S:245
TAMPER_IRQHandler:  1:  j 1b
    2492:	a001                	j	2492 <TAMPER_IRQHandler>

00002494 <RTC_IRQHandler>:
RTC_IRQHandler():
C:/Users/86158/Desktop/IEECS-Design/Hardware/Reference/CHV307_Library-master/Example/libraries/sdk/Startup/startup_ch32v30x.S:246
RTC_IRQHandler:  1:  j 1b
    2494:	a001                	j	2494 <RTC_IRQHandler>

00002496 <FLASH_IRQHandler>:
FLASH_IRQHandler():
C:/Users/86158/Desktop/IEECS-Design/Hardware/Reference/CHV307_Library-master/Example/libraries/sdk/Startup/startup_ch32v30x.S:247
FLASH_IRQHandler:  1:  j 1b
    2496:	a001                	j	2496 <FLASH_IRQHandler>

00002498 <RCC_IRQHandler>:
RCC_IRQHandler():
C:/Users/86158/Desktop/IEECS-Design/Hardware/Reference/CHV307_Library-master/Example/libraries/sdk/Startup/startup_ch32v30x.S:248
RCC_IRQHandler:  1:  j 1b
    2498:	a001                	j	2498 <RCC_IRQHandler>
C:/Users/86158/Desktop/IEECS-Design/Hardware/Reference/CHV307_Library-master/Example/libraries/sdk/Startup/startup_ch32v30x.S:249
EXTI0_IRQHandler:  1:  j 1b
    249a:	a001                	j	249a <RCC_IRQHandler+0x2>
C:/Users/86158/Desktop/IEECS-Design/Hardware/Reference/CHV307_Library-master/Example/libraries/sdk/Startup/startup_ch32v30x.S:250
EXTI1_IRQHandler:  1:  j 1b
    249c:	a001                	j	249c <RCC_IRQHandler+0x4>
C:/Users/86158/Desktop/IEECS-Design/Hardware/Reference/CHV307_Library-master/Example/libraries/sdk/Startup/startup_ch32v30x.S:251
EXTI2_IRQHandler:  1:  j 1b
    249e:	a001                	j	249e <RCC_IRQHandler+0x6>
C:/Users/86158/Desktop/IEECS-Design/Hardware/Reference/CHV307_Library-master/Example/libraries/sdk/Startup/startup_ch32v30x.S:252
EXTI3_IRQHandler:  1:  j 1b
    24a0:	a001                	j	24a0 <RCC_IRQHandler+0x8>
C:/Users/86158/Desktop/IEECS-Design/Hardware/Reference/CHV307_Library-master/Example/libraries/sdk/Startup/startup_ch32v30x.S:253
EXTI4_IRQHandler:  1:  j 1b
    24a2:	a001                	j	24a2 <RCC_IRQHandler+0xa>

000024a4 <DMA1_Channel1_IRQHandler>:
DMA1_Channel1_IRQHandler():
C:/Users/86158/Desktop/IEECS-Design/Hardware/Reference/CHV307_Library-master/Example/libraries/sdk/Startup/startup_ch32v30x.S:254
DMA1_Channel1_IRQHandler:  1:  j 1b
    24a4:	a001                	j	24a4 <DMA1_Channel1_IRQHandler>

000024a6 <DMA1_Channel2_IRQHandler>:
DMA1_Channel2_IRQHandler():
C:/Users/86158/Desktop/IEECS-Design/Hardware/Reference/CHV307_Library-master/Example/libraries/sdk/Startup/startup_ch32v30x.S:255
DMA1_Channel2_IRQHandler:  1:  j 1b
    24a6:	a001                	j	24a6 <DMA1_Channel2_IRQHandler>

000024a8 <DMA1_Channel3_IRQHandler>:
DMA1_Channel3_IRQHandler():
C:/Users/86158/Desktop/IEECS-Design/Hardware/Reference/CHV307_Library-master/Example/libraries/sdk/Startup/startup_ch32v30x.S:256
DMA1_Channel3_IRQHandler:  1:  j 1b
    24a8:	a001                	j	24a8 <DMA1_Channel3_IRQHandler>

000024aa <DMA1_Channel4_IRQHandler>:
DMA1_Channel4_IRQHandler():
C:/Users/86158/Desktop/IEECS-Design/Hardware/Reference/CHV307_Library-master/Example/libraries/sdk/Startup/startup_ch32v30x.S:257
DMA1_Channel4_IRQHandler:  1:  j 1b
    24aa:	a001                	j	24aa <DMA1_Channel4_IRQHandler>

000024ac <DMA1_Channel5_IRQHandler>:
DMA1_Channel5_IRQHandler():
C:/Users/86158/Desktop/IEECS-Design/Hardware/Reference/CHV307_Library-master/Example/libraries/sdk/Startup/startup_ch32v30x.S:258
DMA1_Channel5_IRQHandler:  1:  j 1b
    24ac:	a001                	j	24ac <DMA1_Channel5_IRQHandler>

000024ae <DMA1_Channel6_IRQHandler>:
DMA1_Channel6_IRQHandler():
C:/Users/86158/Desktop/IEECS-Design/Hardware/Reference/CHV307_Library-master/Example/libraries/sdk/Startup/startup_ch32v30x.S:259
DMA1_Channel6_IRQHandler:  1:  j 1b
    24ae:	a001                	j	24ae <DMA1_Channel6_IRQHandler>

000024b0 <DMA1_Channel7_IRQHandler>:
DMA1_Channel7_IRQHandler():
C:/Users/86158/Desktop/IEECS-Design/Hardware/Reference/CHV307_Library-master/Example/libraries/sdk/Startup/startup_ch32v30x.S:260
DMA1_Channel7_IRQHandler:  1:  j 1b
    24b0:	a001                	j	24b0 <DMA1_Channel7_IRQHandler>

000024b2 <ADC1_2_IRQHandler>:
ADC1_2_IRQHandler():
C:/Users/86158/Desktop/IEECS-Design/Hardware/Reference/CHV307_Library-master/Example/libraries/sdk/Startup/startup_ch32v30x.S:261
ADC1_2_IRQHandler:  1:  j 1b
    24b2:	a001                	j	24b2 <ADC1_2_IRQHandler>

000024b4 <USB_HP_CAN1_TX_IRQHandler>:
USB_HP_CAN1_TX_IRQHandler():
C:/Users/86158/Desktop/IEECS-Design/Hardware/Reference/CHV307_Library-master/Example/libraries/sdk/Startup/startup_ch32v30x.S:262
USB_HP_CAN1_TX_IRQHandler:  1:  j 1b
    24b4:	a001                	j	24b4 <USB_HP_CAN1_TX_IRQHandler>

000024b6 <USB_LP_CAN1_RX0_IRQHandler>:
USB_LP_CAN1_RX0_IRQHandler():
C:/Users/86158/Desktop/IEECS-Design/Hardware/Reference/CHV307_Library-master/Example/libraries/sdk/Startup/startup_ch32v30x.S:263
USB_LP_CAN1_RX0_IRQHandler:  1:  j 1b
    24b6:	a001                	j	24b6 <USB_LP_CAN1_RX0_IRQHandler>

000024b8 <CAN1_RX1_IRQHandler>:
CAN1_RX1_IRQHandler():
C:/Users/86158/Desktop/IEECS-Design/Hardware/Reference/CHV307_Library-master/Example/libraries/sdk/Startup/startup_ch32v30x.S:264
CAN1_RX1_IRQHandler:  1:  j 1b
    24b8:	a001                	j	24b8 <CAN1_RX1_IRQHandler>

000024ba <CAN1_SCE_IRQHandler>:
CAN1_SCE_IRQHandler():
C:/Users/86158/Desktop/IEECS-Design/Hardware/Reference/CHV307_Library-master/Example/libraries/sdk/Startup/startup_ch32v30x.S:265
CAN1_SCE_IRQHandler:  1:  j 1b
    24ba:	a001                	j	24ba <CAN1_SCE_IRQHandler>
C:/Users/86158/Desktop/IEECS-Design/Hardware/Reference/CHV307_Library-master/Example/libraries/sdk/Startup/startup_ch32v30x.S:266
EXTI9_5_IRQHandler:  1:  j 1b
    24bc:	a001                	j	24bc <CAN1_SCE_IRQHandler+0x2>

000024be <TIM1_BRK_IRQHandler>:
TIM1_BRK_IRQHandler():
C:/Users/86158/Desktop/IEECS-Design/Hardware/Reference/CHV307_Library-master/Example/libraries/sdk/Startup/startup_ch32v30x.S:267
TIM1_BRK_IRQHandler:  1:  j 1b
    24be:	a001                	j	24be <TIM1_BRK_IRQHandler>
C:/Users/86158/Desktop/IEECS-Design/Hardware/Reference/CHV307_Library-master/Example/libraries/sdk/Startup/startup_ch32v30x.S:268
TIM1_UP_IRQHandler:  1:  j 1b
    24c0:	a001                	j	24c0 <TIM1_BRK_IRQHandler+0x2>

000024c2 <TIM1_TRG_COM_IRQHandler>:
TIM1_TRG_COM_IRQHandler():
C:/Users/86158/Desktop/IEECS-Design/Hardware/Reference/CHV307_Library-master/Example/libraries/sdk/Startup/startup_ch32v30x.S:269
TIM1_TRG_COM_IRQHandler:  1:  j 1b
    24c2:	a001                	j	24c2 <TIM1_TRG_COM_IRQHandler>

000024c4 <TIM1_CC_IRQHandler>:
TIM1_CC_IRQHandler():
C:/Users/86158/Desktop/IEECS-Design/Hardware/Reference/CHV307_Library-master/Example/libraries/sdk/Startup/startup_ch32v30x.S:270
TIM1_CC_IRQHandler:  1:  j 1b
    24c4:	a001                	j	24c4 <TIM1_CC_IRQHandler>
C:/Users/86158/Desktop/IEECS-Design/Hardware/Reference/CHV307_Library-master/Example/libraries/sdk/Startup/startup_ch32v30x.S:271
TIM2_IRQHandler:  1:  j 1b
    24c6:	a001                	j	24c6 <TIM1_CC_IRQHandler+0x2>
C:/Users/86158/Desktop/IEECS-Design/Hardware/Reference/CHV307_Library-master/Example/libraries/sdk/Startup/startup_ch32v30x.S:272
TIM3_IRQHandler:  1:  j 1b
    24c8:	a001                	j	24c8 <TIM1_CC_IRQHandler+0x4>
C:/Users/86158/Desktop/IEECS-Design/Hardware/Reference/CHV307_Library-master/Example/libraries/sdk/Startup/startup_ch32v30x.S:273
TIM4_IRQHandler:  1:  j 1b
    24ca:	a001                	j	24ca <TIM1_CC_IRQHandler+0x6>

000024cc <I2C1_EV_IRQHandler>:
I2C1_EV_IRQHandler():
C:/Users/86158/Desktop/IEECS-Design/Hardware/Reference/CHV307_Library-master/Example/libraries/sdk/Startup/startup_ch32v30x.S:274
I2C1_EV_IRQHandler:  1:  j 1b
    24cc:	a001                	j	24cc <I2C1_EV_IRQHandler>

000024ce <I2C1_ER_IRQHandler>:
I2C1_ER_IRQHandler():
C:/Users/86158/Desktop/IEECS-Design/Hardware/Reference/CHV307_Library-master/Example/libraries/sdk/Startup/startup_ch32v30x.S:275
I2C1_ER_IRQHandler:  1:  j 1b
    24ce:	a001                	j	24ce <I2C1_ER_IRQHandler>

000024d0 <I2C2_EV_IRQHandler>:
I2C2_EV_IRQHandler():
C:/Users/86158/Desktop/IEECS-Design/Hardware/Reference/CHV307_Library-master/Example/libraries/sdk/Startup/startup_ch32v30x.S:276
I2C2_EV_IRQHandler:  1:  j 1b
    24d0:	a001                	j	24d0 <I2C2_EV_IRQHandler>

000024d2 <I2C2_ER_IRQHandler>:
I2C2_ER_IRQHandler():
C:/Users/86158/Desktop/IEECS-Design/Hardware/Reference/CHV307_Library-master/Example/libraries/sdk/Startup/startup_ch32v30x.S:277
I2C2_ER_IRQHandler:  1:  j 1b
    24d2:	a001                	j	24d2 <I2C2_ER_IRQHandler>

000024d4 <SPI1_IRQHandler>:
SPI1_IRQHandler():
C:/Users/86158/Desktop/IEECS-Design/Hardware/Reference/CHV307_Library-master/Example/libraries/sdk/Startup/startup_ch32v30x.S:278
SPI1_IRQHandler:  1:  j 1b
    24d4:	a001                	j	24d4 <SPI1_IRQHandler>

000024d6 <SPI2_IRQHandler>:
SPI2_IRQHandler():
C:/Users/86158/Desktop/IEECS-Design/Hardware/Reference/CHV307_Library-master/Example/libraries/sdk/Startup/startup_ch32v30x.S:279
SPI2_IRQHandler:  1:  j 1b
    24d6:	a001                	j	24d6 <SPI2_IRQHandler>
C:/Users/86158/Desktop/IEECS-Design/Hardware/Reference/CHV307_Library-master/Example/libraries/sdk/Startup/startup_ch32v30x.S:280
USART1_IRQHandler:  1:  j 1b
    24d8:	a001                	j	24d8 <SPI2_IRQHandler+0x2>
C:/Users/86158/Desktop/IEECS-Design/Hardware/Reference/CHV307_Library-master/Example/libraries/sdk/Startup/startup_ch32v30x.S:281
USART2_IRQHandler:  1:  j 1b
    24da:	a001                	j	24da <SPI2_IRQHandler+0x4>
C:/Users/86158/Desktop/IEECS-Design/Hardware/Reference/CHV307_Library-master/Example/libraries/sdk/Startup/startup_ch32v30x.S:282
USART3_IRQHandler:  1:  j 1b
    24dc:	a001                	j	24dc <SPI2_IRQHandler+0x6>
C:/Users/86158/Desktop/IEECS-Design/Hardware/Reference/CHV307_Library-master/Example/libraries/sdk/Startup/startup_ch32v30x.S:283
EXTI15_10_IRQHandler:  1:  j 1b
    24de:	a001                	j	24de <SPI2_IRQHandler+0x8>

000024e0 <RTCAlarm_IRQHandler>:
RTCAlarm_IRQHandler():
C:/Users/86158/Desktop/IEECS-Design/Hardware/Reference/CHV307_Library-master/Example/libraries/sdk/Startup/startup_ch32v30x.S:284
RTCAlarm_IRQHandler:  1:  j 1b
    24e0:	a001                	j	24e0 <RTCAlarm_IRQHandler>

000024e2 <USBWakeUp_IRQHandler>:
USBWakeUp_IRQHandler():
C:/Users/86158/Desktop/IEECS-Design/Hardware/Reference/CHV307_Library-master/Example/libraries/sdk/Startup/startup_ch32v30x.S:285
USBWakeUp_IRQHandler:  1:  j 1b
    24e2:	a001                	j	24e2 <USBWakeUp_IRQHandler>

000024e4 <TIM8_BRK_IRQHandler>:
TIM8_BRK_IRQHandler():
C:/Users/86158/Desktop/IEECS-Design/Hardware/Reference/CHV307_Library-master/Example/libraries/sdk/Startup/startup_ch32v30x.S:286
TIM8_BRK_IRQHandler:  1:  j 1b
    24e4:	a001                	j	24e4 <TIM8_BRK_IRQHandler>
C:/Users/86158/Desktop/IEECS-Design/Hardware/Reference/CHV307_Library-master/Example/libraries/sdk/Startup/startup_ch32v30x.S:287
TIM8_UP_IRQHandler:  1:  j 1b
    24e6:	a001                	j	24e6 <TIM8_BRK_IRQHandler+0x2>

000024e8 <TIM8_TRG_COM_IRQHandler>:
TIM8_TRG_COM_IRQHandler():
C:/Users/86158/Desktop/IEECS-Design/Hardware/Reference/CHV307_Library-master/Example/libraries/sdk/Startup/startup_ch32v30x.S:288
TIM8_TRG_COM_IRQHandler:  1:  j 1b
    24e8:	a001                	j	24e8 <TIM8_TRG_COM_IRQHandler>

000024ea <TIM8_CC_IRQHandler>:
TIM8_CC_IRQHandler():
C:/Users/86158/Desktop/IEECS-Design/Hardware/Reference/CHV307_Library-master/Example/libraries/sdk/Startup/startup_ch32v30x.S:289
TIM8_CC_IRQHandler:  1:  j 1b
    24ea:	a001                	j	24ea <TIM8_CC_IRQHandler>

000024ec <RNG_IRQHandler>:
RNG_IRQHandler():
C:/Users/86158/Desktop/IEECS-Design/Hardware/Reference/CHV307_Library-master/Example/libraries/sdk/Startup/startup_ch32v30x.S:290
RNG_IRQHandler:  1:  j 1b
    24ec:	a001                	j	24ec <RNG_IRQHandler>

000024ee <FSMC_IRQHandler>:
FSMC_IRQHandler():
C:/Users/86158/Desktop/IEECS-Design/Hardware/Reference/CHV307_Library-master/Example/libraries/sdk/Startup/startup_ch32v30x.S:291
FSMC_IRQHandler:  1:  j 1b
    24ee:	a001                	j	24ee <FSMC_IRQHandler>

000024f0 <SDIO_IRQHandler>:
SDIO_IRQHandler():
C:/Users/86158/Desktop/IEECS-Design/Hardware/Reference/CHV307_Library-master/Example/libraries/sdk/Startup/startup_ch32v30x.S:292
SDIO_IRQHandler:  1:  j 1b
    24f0:	a001                	j	24f0 <SDIO_IRQHandler>
C:/Users/86158/Desktop/IEECS-Design/Hardware/Reference/CHV307_Library-master/Example/libraries/sdk/Startup/startup_ch32v30x.S:293
TIM5_IRQHandler:  1:  j 1b
    24f2:	a001                	j	24f2 <SDIO_IRQHandler+0x2>

000024f4 <SPI3_IRQHandler>:
SPI3_IRQHandler():
C:/Users/86158/Desktop/IEECS-Design/Hardware/Reference/CHV307_Library-master/Example/libraries/sdk/Startup/startup_ch32v30x.S:294
SPI3_IRQHandler:  1:  j 1b
    24f4:	a001                	j	24f4 <SPI3_IRQHandler>
C:/Users/86158/Desktop/IEECS-Design/Hardware/Reference/CHV307_Library-master/Example/libraries/sdk/Startup/startup_ch32v30x.S:295
UART4_IRQHandler:  1:  j 1b
    24f6:	a001                	j	24f6 <SPI3_IRQHandler+0x2>
C:/Users/86158/Desktop/IEECS-Design/Hardware/Reference/CHV307_Library-master/Example/libraries/sdk/Startup/startup_ch32v30x.S:296
UART5_IRQHandler:  1:  j 1b
    24f8:	a001                	j	24f8 <SPI3_IRQHandler+0x4>
C:/Users/86158/Desktop/IEECS-Design/Hardware/Reference/CHV307_Library-master/Example/libraries/sdk/Startup/startup_ch32v30x.S:297
TIM6_IRQHandler:  1:  j 1b
    24fa:	a001                	j	24fa <SPI3_IRQHandler+0x6>
C:/Users/86158/Desktop/IEECS-Design/Hardware/Reference/CHV307_Library-master/Example/libraries/sdk/Startup/startup_ch32v30x.S:298
TIM7_IRQHandler:  1:  j 1b
    24fc:	a001                	j	24fc <SPI3_IRQHandler+0x8>

000024fe <DMA2_Channel1_IRQHandler>:
DMA2_Channel1_IRQHandler():
C:/Users/86158/Desktop/IEECS-Design/Hardware/Reference/CHV307_Library-master/Example/libraries/sdk/Startup/startup_ch32v30x.S:299
DMA2_Channel1_IRQHandler:  1:  j 1b
    24fe:	a001                	j	24fe <DMA2_Channel1_IRQHandler>

00002500 <DMA2_Channel2_IRQHandler>:
DMA2_Channel2_IRQHandler():
C:/Users/86158/Desktop/IEECS-Design/Hardware/Reference/CHV307_Library-master/Example/libraries/sdk/Startup/startup_ch32v30x.S:300
DMA2_Channel2_IRQHandler:  1:  j 1b
    2500:	a001                	j	2500 <DMA2_Channel2_IRQHandler>

00002502 <DMA2_Channel3_IRQHandler>:
DMA2_Channel3_IRQHandler():
C:/Users/86158/Desktop/IEECS-Design/Hardware/Reference/CHV307_Library-master/Example/libraries/sdk/Startup/startup_ch32v30x.S:301
DMA2_Channel3_IRQHandler:  1:  j 1b
    2502:	a001                	j	2502 <DMA2_Channel3_IRQHandler>

00002504 <DMA2_Channel4_IRQHandler>:
DMA2_Channel4_IRQHandler():
C:/Users/86158/Desktop/IEECS-Design/Hardware/Reference/CHV307_Library-master/Example/libraries/sdk/Startup/startup_ch32v30x.S:302
DMA2_Channel4_IRQHandler:  1:  j 1b
    2504:	a001                	j	2504 <DMA2_Channel4_IRQHandler>

00002506 <DMA2_Channel5_IRQHandler>:
DMA2_Channel5_IRQHandler():
C:/Users/86158/Desktop/IEECS-Design/Hardware/Reference/CHV307_Library-master/Example/libraries/sdk/Startup/startup_ch32v30x.S:303
DMA2_Channel5_IRQHandler:  1:  j 1b
    2506:	a001                	j	2506 <DMA2_Channel5_IRQHandler>

00002508 <ETH_IRQHandler>:
ETH_IRQHandler():
C:/Users/86158/Desktop/IEECS-Design/Hardware/Reference/CHV307_Library-master/Example/libraries/sdk/Startup/startup_ch32v30x.S:304
ETH_IRQHandler:  1:  j 1b
    2508:	a001                	j	2508 <ETH_IRQHandler>

0000250a <ETH_WKUP_IRQHandler>:
ETH_WKUP_IRQHandler():
C:/Users/86158/Desktop/IEECS-Design/Hardware/Reference/CHV307_Library-master/Example/libraries/sdk/Startup/startup_ch32v30x.S:305
ETH_WKUP_IRQHandler:  1:  j 1b
    250a:	a001                	j	250a <ETH_WKUP_IRQHandler>

0000250c <CAN2_TX_IRQHandler>:
CAN2_TX_IRQHandler():
C:/Users/86158/Desktop/IEECS-Design/Hardware/Reference/CHV307_Library-master/Example/libraries/sdk/Startup/startup_ch32v30x.S:306
CAN2_TX_IRQHandler:  1:  j 1b
    250c:	a001                	j	250c <CAN2_TX_IRQHandler>

0000250e <CAN2_RX0_IRQHandler>:
CAN2_RX0_IRQHandler():
C:/Users/86158/Desktop/IEECS-Design/Hardware/Reference/CHV307_Library-master/Example/libraries/sdk/Startup/startup_ch32v30x.S:307
CAN2_RX0_IRQHandler:  1:  j 1b
    250e:	a001                	j	250e <CAN2_RX0_IRQHandler>

00002510 <CAN2_RX1_IRQHandler>:
CAN2_RX1_IRQHandler():
C:/Users/86158/Desktop/IEECS-Design/Hardware/Reference/CHV307_Library-master/Example/libraries/sdk/Startup/startup_ch32v30x.S:308
CAN2_RX1_IRQHandler:  1:  j 1b
    2510:	a001                	j	2510 <CAN2_RX1_IRQHandler>

00002512 <CAN2_SCE_IRQHandler>:
CAN2_SCE_IRQHandler():
C:/Users/86158/Desktop/IEECS-Design/Hardware/Reference/CHV307_Library-master/Example/libraries/sdk/Startup/startup_ch32v30x.S:309
CAN2_SCE_IRQHandler:  1:  j 1b
    2512:	a001                	j	2512 <CAN2_SCE_IRQHandler>
C:/Users/86158/Desktop/IEECS-Design/Hardware/Reference/CHV307_Library-master/Example/libraries/sdk/Startup/startup_ch32v30x.S:310
OTG_FS_IRQHandler:  1:  j 1b
    2514:	a001                	j	2514 <CAN2_SCE_IRQHandler+0x2>

00002516 <USBHSWakeup_IRQHandler>:
USBHSWakeup_IRQHandler():
C:/Users/86158/Desktop/IEECS-Design/Hardware/Reference/CHV307_Library-master/Example/libraries/sdk/Startup/startup_ch32v30x.S:311
USBHSWakeup_IRQHandler:  1:  j 1b
    2516:	a001                	j	2516 <USBHSWakeup_IRQHandler>

00002518 <USBHS_IRQHandler>:
USBHS_IRQHandler():
C:/Users/86158/Desktop/IEECS-Design/Hardware/Reference/CHV307_Library-master/Example/libraries/sdk/Startup/startup_ch32v30x.S:312
USBHS_IRQHandler:  1:  j 1b
    2518:	a001                	j	2518 <USBHS_IRQHandler>
C:/Users/86158/Desktop/IEECS-Design/Hardware/Reference/CHV307_Library-master/Example/libraries/sdk/Startup/startup_ch32v30x.S:313
DVP_IRQHandler:  1:  j 1b
    251a:	a001                	j	251a <USBHS_IRQHandler+0x2>
C:/Users/86158/Desktop/IEECS-Design/Hardware/Reference/CHV307_Library-master/Example/libraries/sdk/Startup/startup_ch32v30x.S:314
UART6_IRQHandler:  1:  j 1b
    251c:	a001                	j	251c <USBHS_IRQHandler+0x4>
C:/Users/86158/Desktop/IEECS-Design/Hardware/Reference/CHV307_Library-master/Example/libraries/sdk/Startup/startup_ch32v30x.S:315
UART7_IRQHandler:  1:  j 1b
    251e:	a001                	j	251e <USBHS_IRQHandler+0x6>
C:/Users/86158/Desktop/IEECS-Design/Hardware/Reference/CHV307_Library-master/Example/libraries/sdk/Startup/startup_ch32v30x.S:316
UART8_IRQHandler:  1:  j 1b
    2520:	a001                	j	2520 <USBHS_IRQHandler+0x8>

00002522 <TIM9_BRK_IRQHandler>:
TIM9_BRK_IRQHandler():
C:/Users/86158/Desktop/IEECS-Design/Hardware/Reference/CHV307_Library-master/Example/libraries/sdk/Startup/startup_ch32v30x.S:317
TIM9_BRK_IRQHandler:  1:  j 1b
    2522:	a001                	j	2522 <TIM9_BRK_IRQHandler>
C:/Users/86158/Desktop/IEECS-Design/Hardware/Reference/CHV307_Library-master/Example/libraries/sdk/Startup/startup_ch32v30x.S:318
TIM9_UP_IRQHandler:  1:  j 1b
    2524:	a001                	j	2524 <TIM9_BRK_IRQHandler+0x2>

00002526 <TIM9_TRG_COM_IRQHandler>:
TIM9_TRG_COM_IRQHandler():
C:/Users/86158/Desktop/IEECS-Design/Hardware/Reference/CHV307_Library-master/Example/libraries/sdk/Startup/startup_ch32v30x.S:319
TIM9_TRG_COM_IRQHandler:  1:  j 1b
    2526:	a001                	j	2526 <TIM9_TRG_COM_IRQHandler>

00002528 <TIM9_CC_IRQHandler>:
TIM9_CC_IRQHandler():
C:/Users/86158/Desktop/IEECS-Design/Hardware/Reference/CHV307_Library-master/Example/libraries/sdk/Startup/startup_ch32v30x.S:320
TIM9_CC_IRQHandler:  1:  j 1b
    2528:	a001                	j	2528 <TIM9_CC_IRQHandler>

0000252a <TIM10_BRK_IRQHandler>:
TIM10_BRK_IRQHandler():
C:/Users/86158/Desktop/IEECS-Design/Hardware/Reference/CHV307_Library-master/Example/libraries/sdk/Startup/startup_ch32v30x.S:321
TIM10_BRK_IRQHandler:  1:  j 1b
    252a:	a001                	j	252a <TIM10_BRK_IRQHandler>
C:/Users/86158/Desktop/IEECS-Design/Hardware/Reference/CHV307_Library-master/Example/libraries/sdk/Startup/startup_ch32v30x.S:322
TIM10_UP_IRQHandler:  1:  j 1b
    252c:	a001                	j	252c <TIM10_BRK_IRQHandler+0x2>

0000252e <TIM10_TRG_COM_IRQHandler>:
TIM10_TRG_COM_IRQHandler():
C:/Users/86158/Desktop/IEECS-Design/Hardware/Reference/CHV307_Library-master/Example/libraries/sdk/Startup/startup_ch32v30x.S:323
TIM10_TRG_COM_IRQHandler:  1:  j 1b
    252e:	a001                	j	252e <TIM10_TRG_COM_IRQHandler>

00002530 <TIM10_CC_IRQHandler>:
TIM10_CC_IRQHandler():
C:/Users/86158/Desktop/IEECS-Design/Hardware/Reference/CHV307_Library-master/Example/libraries/sdk/Startup/startup_ch32v30x.S:324
TIM10_CC_IRQHandler:  1:  j 1b
    2530:	a001                	j	2530 <TIM10_CC_IRQHandler>

00002532 <DMA2_Channel6_IRQHandler>:
DMA2_Channel6_IRQHandler():
C:/Users/86158/Desktop/IEECS-Design/Hardware/Reference/CHV307_Library-master/Example/libraries/sdk/Startup/startup_ch32v30x.S:325
DMA2_Channel6_IRQHandler:  1:  j 1b
    2532:	a001                	j	2532 <DMA2_Channel6_IRQHandler>

00002534 <DMA2_Channel7_IRQHandler>:
DMA2_Channel7_IRQHandler():
C:/Users/86158/Desktop/IEECS-Design/Hardware/Reference/CHV307_Library-master/Example/libraries/sdk/Startup/startup_ch32v30x.S:326
DMA2_Channel7_IRQHandler:  1:  j 1b
    2534:	a001                	j	2534 <DMA2_Channel7_IRQHandler>

00002536 <DMA2_Channel8_IRQHandler>:
DMA2_Channel8_IRQHandler():
C:/Users/86158/Desktop/IEECS-Design/Hardware/Reference/CHV307_Library-master/Example/libraries/sdk/Startup/startup_ch32v30x.S:327
DMA2_Channel8_IRQHandler:  1:  j 1b
    2536:	a001                	j	2536 <DMA2_Channel8_IRQHandler>

00002538 <DMA2_Channel9_IRQHandler>:
DMA2_Channel9_IRQHandler():
C:/Users/86158/Desktop/IEECS-Design/Hardware/Reference/CHV307_Library-master/Example/libraries/sdk/Startup/startup_ch32v30x.S:328
DMA2_Channel9_IRQHandler:  1:  j 1b
    2538:	a001                	j	2538 <DMA2_Channel9_IRQHandler>

0000253a <DMA2_Channel10_IRQHandler>:
DMA2_Channel10_IRQHandler():
C:/Users/86158/Desktop/IEECS-Design/Hardware/Reference/CHV307_Library-master/Example/libraries/sdk/Startup/startup_ch32v30x.S:329
DMA2_Channel10_IRQHandler:  1:  j 1b
    253a:	a001                	j	253a <DMA2_Channel10_IRQHandler>

0000253c <DMA2_Channel11_IRQHandler>:
DMA2_Channel11_IRQHandler():
C:/Users/86158/Desktop/IEECS-Design/Hardware/Reference/CHV307_Library-master/Example/libraries/sdk/Startup/startup_ch32v30x.S:330
DMA2_Channel11_IRQHandler:  1:  j 1b
    253c:	a001                	j	253c <DMA2_Channel11_IRQHandler>

0000253e <handle_reset>:
handle_reset():
C:/Users/86158/Desktop/IEECS-Design/Hardware/Reference/CHV307_Library-master/Example/libraries/sdk/Startup/startup_ch32v30x.S:339
	.weak	handle_reset
	.align	1
handle_reset:
.option push 
.option	norelax 
	la gp, __global_pointer$
    253e:	1fffe197          	auipc	gp,0x1fffe
    2542:	4f218193          	addi	gp,gp,1266 # 20000a30 <__global_pointer$>
C:/Users/86158/Desktop/IEECS-Design/Hardware/Reference/CHV307_Library-master/Example/libraries/sdk/Startup/startup_ch32v30x.S:342
.option	pop 
1:
	la sp, _eusrstack 
    2546:	2000e117          	auipc	sp,0x2000e
    254a:	aba10113          	addi	sp,sp,-1350 # 20010000 <_eusrstack>
C:/Users/86158/Desktop/IEECS-Design/Hardware/Reference/CHV307_Library-master/Example/libraries/sdk/Startup/startup_ch32v30x.S:345
2:
	/* Load data section from flash to RAM */
	la a0, _data_lma
    254e:	00007517          	auipc	a0,0x7
    2552:	68e50513          	addi	a0,a0,1678 # 9bdc <_data_lma>
C:/Users/86158/Desktop/IEECS-Design/Hardware/Reference/CHV307_Library-master/Example/libraries/sdk/Startup/startup_ch32v30x.S:346
	la a1, _data_vma
    2556:	1fffe597          	auipc	a1,0x1fffe
    255a:	aaa58593          	addi	a1,a1,-1366 # 20000000 <_data_vma>
C:/Users/86158/Desktop/IEECS-Design/Hardware/Reference/CHV307_Library-master/Example/libraries/sdk/Startup/startup_ch32v30x.S:347
	la a2, _edata
    255e:	82018613          	addi	a2,gp,-2016 # 20000250 <_edata>
C:/Users/86158/Desktop/IEECS-Design/Hardware/Reference/CHV307_Library-master/Example/libraries/sdk/Startup/startup_ch32v30x.S:348
	bgeu a1, a2, 2f
    2562:	00c5fa63          	bgeu	a1,a2,2576 <handle_reset+0x38>
C:/Users/86158/Desktop/IEECS-Design/Hardware/Reference/CHV307_Library-master/Example/libraries/sdk/Startup/startup_ch32v30x.S:350
1:
	lw t0, (a0)
    2566:	00052283          	lw	t0,0(a0)
C:/Users/86158/Desktop/IEECS-Design/Hardware/Reference/CHV307_Library-master/Example/libraries/sdk/Startup/startup_ch32v30x.S:351
	sw t0, (a1)
    256a:	0055a023          	sw	t0,0(a1)
C:/Users/86158/Desktop/IEECS-Design/Hardware/Reference/CHV307_Library-master/Example/libraries/sdk/Startup/startup_ch32v30x.S:352
	addi a0, a0, 4
    256e:	0511                	addi	a0,a0,4
C:/Users/86158/Desktop/IEECS-Design/Hardware/Reference/CHV307_Library-master/Example/libraries/sdk/Startup/startup_ch32v30x.S:353
	addi a1, a1, 4
    2570:	0591                	addi	a1,a1,4
C:/Users/86158/Desktop/IEECS-Design/Hardware/Reference/CHV307_Library-master/Example/libraries/sdk/Startup/startup_ch32v30x.S:354
	bltu a1, a2, 1b
    2572:	fec5eae3          	bltu	a1,a2,2566 <handle_reset+0x28>
C:/Users/86158/Desktop/IEECS-Design/Hardware/Reference/CHV307_Library-master/Example/libraries/sdk/Startup/startup_ch32v30x.S:357
2:
	/* Clear bss section */
	la a0, _sbss
    2576:	82018513          	addi	a0,gp,-2016 # 20000250 <_edata>
C:/Users/86158/Desktop/IEECS-Design/Hardware/Reference/CHV307_Library-master/Example/libraries/sdk/Startup/startup_ch32v30x.S:358
	la a1, _ebss
    257a:	90c18593          	addi	a1,gp,-1780 # 2000033c <_ebss>
C:/Users/86158/Desktop/IEECS-Design/Hardware/Reference/CHV307_Library-master/Example/libraries/sdk/Startup/startup_ch32v30x.S:359
	bgeu a0, a1, 2f
    257e:	00b57763          	bgeu	a0,a1,258c <handle_reset+0x4e>
C:/Users/86158/Desktop/IEECS-Design/Hardware/Reference/CHV307_Library-master/Example/libraries/sdk/Startup/startup_ch32v30x.S:361
1:
	sw zero, (a0)
    2582:	00052023          	sw	zero,0(a0)
C:/Users/86158/Desktop/IEECS-Design/Hardware/Reference/CHV307_Library-master/Example/libraries/sdk/Startup/startup_ch32v30x.S:362
	addi a0, a0, 4
    2586:	0511                	addi	a0,a0,4
C:/Users/86158/Desktop/IEECS-Design/Hardware/Reference/CHV307_Library-master/Example/libraries/sdk/Startup/startup_ch32v30x.S:363
	bltu a0, a1, 1b
    2588:	feb56de3          	bltu	a0,a1,2582 <handle_reset+0x44>
C:/Users/86158/Desktop/IEECS-Design/Hardware/Reference/CHV307_Library-master/Example/libraries/sdk/Startup/startup_ch32v30x.S:365
2:
    li t0, 0x1f
    258c:	42fd                	li	t0,31
C:/Users/86158/Desktop/IEECS-Design/Hardware/Reference/CHV307_Library-master/Example/libraries/sdk/Startup/startup_ch32v30x.S:366
    csrw 0xbc0, t0
    258e:	bc029073          	csrw	0xbc0,t0
C:/Users/86158/Desktop/IEECS-Design/Hardware/Reference/CHV307_Library-master/Example/libraries/sdk/Startup/startup_ch32v30x.S:369

    /* Enable nested and hardware stack */
	li t0, 0x1f
    2592:	42fd                	li	t0,31
C:/Users/86158/Desktop/IEECS-Design/Hardware/Reference/CHV307_Library-master/Example/libraries/sdk/Startup/startup_ch32v30x.S:370
	csrw 0x804, t0
    2594:	80429073          	csrw	0x804,t0
C:/Users/86158/Desktop/IEECS-Design/Hardware/Reference/CHV307_Library-master/Example/libraries/sdk/Startup/startup_ch32v30x.S:373

    /* Enable floating point and interrupt */
   	li t0, 0x7888
    2598:	000082b7          	lui	t0,0x8
    259c:	88828293          	addi	t0,t0,-1912 # 7888 <_dtoa_r+0xb80>
C:/Users/86158/Desktop/IEECS-Design/Hardware/Reference/CHV307_Library-master/Example/libraries/sdk/Startup/startup_ch32v30x.S:374
   	csrs mstatus, t0
    25a0:	3002a073          	csrs	mstatus,t0
C:/Users/86158/Desktop/IEECS-Design/Hardware/Reference/CHV307_Library-master/Example/libraries/sdk/Startup/startup_ch32v30x.S:376

 	la t0, _vector_base
    25a4:	ffffe297          	auipc	t0,0xffffe
    25a8:	a9428293          	addi	t0,t0,-1388 # 38 <_einit>
C:/Users/86158/Desktop/IEECS-Design/Hardware/Reference/CHV307_Library-master/Example/libraries/sdk/Startup/startup_ch32v30x.S:377
    ori t0, t0, 3           
    25ac:	0032e293          	ori	t0,t0,3
C:/Users/86158/Desktop/IEECS-Design/Hardware/Reference/CHV307_Library-master/Example/libraries/sdk/Startup/startup_ch32v30x.S:378
	csrw mtvec, t0
    25b0:	30529073          	csrw	mtvec,t0
C:/Users/86158/Desktop/IEECS-Design/Hardware/Reference/CHV307_Library-master/Example/libraries/sdk/Startup/startup_ch32v30x.S:380

	lui a0, 0x1ffff
    25b4:	1ffff537          	lui	a0,0x1ffff
C:/Users/86158/Desktop/IEECS-Design/Hardware/Reference/CHV307_Library-master/Example/libraries/sdk/Startup/startup_ch32v30x.S:381
    li a1, 0x300
    25b8:	30000593          	li	a1,768
C:/Users/86158/Desktop/IEECS-Design/Hardware/Reference/CHV307_Library-master/Example/libraries/sdk/Startup/startup_ch32v30x.S:382
    sh a1, 0x1b0(a0)
    25bc:	1ab51823          	sh	a1,432(a0) # 1ffff1b0 <_data_lma+0x1fff55d4>
C:/Users/86158/Desktop/IEECS-Design/Hardware/Reference/CHV307_Library-master/Example/libraries/sdk/Startup/startup_ch32v30x.S:383
1:  lui s2, 0x40022
    25c0:	40022937          	lui	s2,0x40022
C:/Users/86158/Desktop/IEECS-Design/Hardware/Reference/CHV307_Library-master/Example/libraries/sdk/Startup/startup_ch32v30x.S:384
    lw a0, 0xc(s2)
    25c4:	00c92503          	lw	a0,12(s2) # 4002200c <_eusrstack+0x2001200c>
C:/Users/86158/Desktop/IEECS-Design/Hardware/Reference/CHV307_Library-master/Example/libraries/sdk/Startup/startup_ch32v30x.S:385
    andi a0, a0, 1
    25c8:	8905                	andi	a0,a0,1
C:/Users/86158/Desktop/IEECS-Design/Hardware/Reference/CHV307_Library-master/Example/libraries/sdk/Startup/startup_ch32v30x.S:386
    bnez a0, 1b
    25ca:	f97d                	bnez	a0,25c0 <handle_reset+0x82>
C:/Users/86158/Desktop/IEECS-Design/Hardware/Reference/CHV307_Library-master/Example/libraries/sdk/Startup/startup_ch32v30x.S:389

    #jal  SystemInit
	la t0, main
    25cc:	00000297          	auipc	t0,0x0
    25d0:	e2a28293          	addi	t0,t0,-470 # 23f6 <main>
C:/Users/86158/Desktop/IEECS-Design/Hardware/Reference/CHV307_Library-master/Example/libraries/sdk/Startup/startup_ch32v30x.S:390
	csrw mepc, t0
    25d4:	34129073          	csrw	mepc,t0
C:/Users/86158/Desktop/IEECS-Design/Hardware/Reference/CHV307_Library-master/Example/libraries/sdk/Startup/startup_ch32v30x.S:391
	mret
    25d8:	30200073          	mret

000025dc <EXTI_GetITStatus>:
EXTI_GetITStatus():
C:/Users/86158/Desktop/IEECS-Design/Hardware/Reference/CHV307_Library-master/Example/libraries/sdk/Peripheral/ch32v30x_exti.c:131
* Description    : Checks whether the specified EXTI line is asserted or not.
* Input          : EXTI_Line: specifies the EXTI lines to be enabled or disabled.
* Return         : The new state of EXTI_Line (SET or RESET).
*********************************************************************************/	
ITStatus EXTI_GetITStatus(uint32_t EXTI_Line)
{
    25dc:	7179                	addi	sp,sp,-48
    25de:	d622                	sw	s0,44(sp)
    25e0:	1800                	addi	s0,sp,48
    25e2:	fca42e23          	sw	a0,-36(s0)
C:/Users/86158/Desktop/IEECS-Design/Hardware/Reference/CHV307_Library-master/Example/libraries/sdk/Peripheral/ch32v30x_exti.c:132
  ITStatus bitstatus = RESET;
    25e6:	fe042623          	sw	zero,-20(s0)
C:/Users/86158/Desktop/IEECS-Design/Hardware/Reference/CHV307_Library-master/Example/libraries/sdk/Peripheral/ch32v30x_exti.c:133
  uint32_t enablestatus = 0;
    25ea:	fe042423          	sw	zero,-24(s0)
C:/Users/86158/Desktop/IEECS-Design/Hardware/Reference/CHV307_Library-master/Example/libraries/sdk/Peripheral/ch32v30x_exti.c:135
  
  enablestatus =  EXTI->INTENR & EXTI_Line;
    25ee:	400107b7          	lui	a5,0x40010
    25f2:	40078793          	addi	a5,a5,1024 # 40010400 <_eusrstack+0x20000400>
    25f6:	439c                	lw	a5,0(a5)
    25f8:	fdc42703          	lw	a4,-36(s0)
    25fc:	8ff9                	and	a5,a5,a4
    25fe:	fef42423          	sw	a5,-24(s0)
C:/Users/86158/Desktop/IEECS-Design/Hardware/Reference/CHV307_Library-master/Example/libraries/sdk/Peripheral/ch32v30x_exti.c:136
  if (((EXTI->INTFR & EXTI_Line) != (uint32_t)RESET) && (enablestatus != (uint32_t)RESET))
    2602:	400107b7          	lui	a5,0x40010
    2606:	40078793          	addi	a5,a5,1024 # 40010400 <_eusrstack+0x20000400>
    260a:	4bd8                	lw	a4,20(a5)
    260c:	fdc42783          	lw	a5,-36(s0)
    2610:	8ff9                	and	a5,a5,a4
    2612:	cb81                	beqz	a5,2622 <EXTI_GetITStatus+0x46>
C:/Users/86158/Desktop/IEECS-Design/Hardware/Reference/CHV307_Library-master/Example/libraries/sdk/Peripheral/ch32v30x_exti.c:136 (discriminator 1)
    2614:	fe842783          	lw	a5,-24(s0)
    2618:	c789                	beqz	a5,2622 <EXTI_GetITStatus+0x46>
C:/Users/86158/Desktop/IEECS-Design/Hardware/Reference/CHV307_Library-master/Example/libraries/sdk/Peripheral/ch32v30x_exti.c:138
  {
    bitstatus = SET;
    261a:	4785                	li	a5,1
    261c:	fef42623          	sw	a5,-20(s0)
    2620:	a019                	j	2626 <EXTI_GetITStatus+0x4a>
C:/Users/86158/Desktop/IEECS-Design/Hardware/Reference/CHV307_Library-master/Example/libraries/sdk/Peripheral/ch32v30x_exti.c:142
  }
  else
  {
    bitstatus = RESET;
    2622:	fe042623          	sw	zero,-20(s0)
C:/Users/86158/Desktop/IEECS-Design/Hardware/Reference/CHV307_Library-master/Example/libraries/sdk/Peripheral/ch32v30x_exti.c:144
  }
  return bitstatus;
    2626:	fec42783          	lw	a5,-20(s0)
C:/Users/86158/Desktop/IEECS-Design/Hardware/Reference/CHV307_Library-master/Example/libraries/sdk/Peripheral/ch32v30x_exti.c:145
}
    262a:	853e                	mv	a0,a5
    262c:	5432                	lw	s0,44(sp)
    262e:	6145                	addi	sp,sp,48
    2630:	8082                	ret

00002632 <EXTI_ClearITPendingBit>:
EXTI_ClearITPendingBit():
C:/Users/86158/Desktop/IEECS-Design/Hardware/Reference/CHV307_Library-master/Example/libraries/sdk/Peripheral/ch32v30x_exti.c:154
* Description    : Clears the EXTI's line pending bits.
* Input          : EXTI_Line: specifies the EXTI lines to be enabled or disabled.
* Return         : None
*********************************************************************************/
void EXTI_ClearITPendingBit(uint32_t EXTI_Line)
{  
    2632:	1101                	addi	sp,sp,-32
    2634:	ce22                	sw	s0,28(sp)
    2636:	1000                	addi	s0,sp,32
    2638:	fea42623          	sw	a0,-20(s0)
C:/Users/86158/Desktop/IEECS-Design/Hardware/Reference/CHV307_Library-master/Example/libraries/sdk/Peripheral/ch32v30x_exti.c:155
  EXTI->INTFR = EXTI_Line;
    263c:	400107b7          	lui	a5,0x40010
    2640:	40078793          	addi	a5,a5,1024 # 40010400 <_eusrstack+0x20000400>
    2644:	fec42703          	lw	a4,-20(s0)
    2648:	cbd8                	sw	a4,20(a5)
C:/Users/86158/Desktop/IEECS-Design/Hardware/Reference/CHV307_Library-master/Example/libraries/sdk/Peripheral/ch32v30x_exti.c:156
}
    264a:	0001                	nop
    264c:	4472                	lw	s0,28(sp)
    264e:	6105                	addi	sp,sp,32
    2650:	8082                	ret

00002652 <GPIO_Init>:
GPIO_Init():
C:/Users/86158/Desktop/IEECS-Design/Hardware/Reference/CHV307_Library-master/Example/libraries/sdk/Peripheral/ch32v30x_gpio.c:88
* Input          : GPIO_InitStruct: pointer to a GPIO_InitTypeDef structure that
*      contains the configuration information for the specified GPIO peripheral.
* Return         : None
*******************************************************************************/
void GPIO_Init(GPIO_TypeDef* GPIOx, GPIO_InitTypeDef* GPIO_InitStruct)
{
    2652:	7139                	addi	sp,sp,-64
    2654:	de22                	sw	s0,60(sp)
    2656:	0080                	addi	s0,sp,64
    2658:	fca42623          	sw	a0,-52(s0)
    265c:	fcb42423          	sw	a1,-56(s0)
C:/Users/86158/Desktop/IEECS-Design/Hardware/Reference/CHV307_Library-master/Example/libraries/sdk/Peripheral/ch32v30x_gpio.c:89
  uint32_t currentmode = 0x00, currentpin = 0x00, pinpos = 0x00, pos = 0x00;
    2660:	fe042623          	sw	zero,-20(s0)
    2664:	fe042023          	sw	zero,-32(s0)
    2668:	fe042423          	sw	zero,-24(s0)
    266c:	fc042e23          	sw	zero,-36(s0)
C:/Users/86158/Desktop/IEECS-Design/Hardware/Reference/CHV307_Library-master/Example/libraries/sdk/Peripheral/ch32v30x_gpio.c:90
  uint32_t tmpreg = 0x00, pinmask = 0x00;
    2670:	fe042223          	sw	zero,-28(s0)
    2674:	fc042c23          	sw	zero,-40(s0)
C:/Users/86158/Desktop/IEECS-Design/Hardware/Reference/CHV307_Library-master/Example/libraries/sdk/Peripheral/ch32v30x_gpio.c:92

  currentmode = ((uint32_t)GPIO_InitStruct->GPIO_Mode) & ((uint32_t)0x0F);
    2678:	fc842783          	lw	a5,-56(s0)
    267c:	479c                	lw	a5,8(a5)
    267e:	8bbd                	andi	a5,a5,15
    2680:	fef42623          	sw	a5,-20(s0)
C:/Users/86158/Desktop/IEECS-Design/Hardware/Reference/CHV307_Library-master/Example/libraries/sdk/Peripheral/ch32v30x_gpio.c:94
	
  if ((((uint32_t)GPIO_InitStruct->GPIO_Mode) & ((uint32_t)0x10)) != 0x00)
    2684:	fc842783          	lw	a5,-56(s0)
    2688:	479c                	lw	a5,8(a5)
    268a:	8bc1                	andi	a5,a5,16
    268c:	cb89                	beqz	a5,269e <GPIO_Init+0x4c>
C:/Users/86158/Desktop/IEECS-Design/Hardware/Reference/CHV307_Library-master/Example/libraries/sdk/Peripheral/ch32v30x_gpio.c:96
  { 
    currentmode |= (uint32_t)GPIO_InitStruct->GPIO_Speed;
    268e:	fc842783          	lw	a5,-56(s0)
    2692:	43dc                	lw	a5,4(a5)
    2694:	fec42703          	lw	a4,-20(s0)
    2698:	8fd9                	or	a5,a5,a4
    269a:	fef42623          	sw	a5,-20(s0)
C:/Users/86158/Desktop/IEECS-Design/Hardware/Reference/CHV307_Library-master/Example/libraries/sdk/Peripheral/ch32v30x_gpio.c:99
  }

  if (((uint32_t)GPIO_InitStruct->GPIO_Pin & ((uint32_t)0x00FF)) != 0x00)
    269e:	fc842783          	lw	a5,-56(s0)
    26a2:	0007d783          	lhu	a5,0(a5)
    26a6:	0ff7f793          	andi	a5,a5,255
    26aa:	cff1                	beqz	a5,2786 <GPIO_Init+0x134>
C:/Users/86158/Desktop/IEECS-Design/Hardware/Reference/CHV307_Library-master/Example/libraries/sdk/Peripheral/ch32v30x_gpio.c:101
  {
    tmpreg = GPIOx->CFGLR;
    26ac:	fcc42783          	lw	a5,-52(s0)
    26b0:	439c                	lw	a5,0(a5)
    26b2:	fef42223          	sw	a5,-28(s0)
C:/Users/86158/Desktop/IEECS-Design/Hardware/Reference/CHV307_Library-master/Example/libraries/sdk/Peripheral/ch32v30x_gpio.c:103
		
    for (pinpos = 0x00; pinpos < 0x08; pinpos++)
    26b6:	fe042423          	sw	zero,-24(s0)
    26ba:	a865                	j	2772 <GPIO_Init+0x120>
C:/Users/86158/Desktop/IEECS-Design/Hardware/Reference/CHV307_Library-master/Example/libraries/sdk/Peripheral/ch32v30x_gpio.c:105
    {
      pos = ((uint32_t)0x01) << pinpos;
    26bc:	fe842783          	lw	a5,-24(s0)
    26c0:	4705                	li	a4,1
    26c2:	00f717b3          	sll	a5,a4,a5
    26c6:	fcf42e23          	sw	a5,-36(s0)
C:/Users/86158/Desktop/IEECS-Design/Hardware/Reference/CHV307_Library-master/Example/libraries/sdk/Peripheral/ch32v30x_gpio.c:106
      currentpin = (GPIO_InitStruct->GPIO_Pin) & pos;
    26ca:	fc842783          	lw	a5,-56(s0)
    26ce:	0007d783          	lhu	a5,0(a5)
    26d2:	873e                	mv	a4,a5
    26d4:	fdc42783          	lw	a5,-36(s0)
    26d8:	8ff9                	and	a5,a5,a4
    26da:	fef42023          	sw	a5,-32(s0)
C:/Users/86158/Desktop/IEECS-Design/Hardware/Reference/CHV307_Library-master/Example/libraries/sdk/Peripheral/ch32v30x_gpio.c:108
			
      if (currentpin == pos)
    26de:	fe042703          	lw	a4,-32(s0)
    26e2:	fdc42783          	lw	a5,-36(s0)
    26e6:	08f71163          	bne	a4,a5,2768 <GPIO_Init+0x116>
C:/Users/86158/Desktop/IEECS-Design/Hardware/Reference/CHV307_Library-master/Example/libraries/sdk/Peripheral/ch32v30x_gpio.c:110
      {
        pos = pinpos << 2;
    26ea:	fe842783          	lw	a5,-24(s0)
    26ee:	078a                	slli	a5,a5,0x2
    26f0:	fcf42e23          	sw	a5,-36(s0)
C:/Users/86158/Desktop/IEECS-Design/Hardware/Reference/CHV307_Library-master/Example/libraries/sdk/Peripheral/ch32v30x_gpio.c:111
        pinmask = ((uint32_t)0x0F) << pos;
    26f4:	fdc42783          	lw	a5,-36(s0)
    26f8:	473d                	li	a4,15
    26fa:	00f717b3          	sll	a5,a4,a5
    26fe:	fcf42c23          	sw	a5,-40(s0)
C:/Users/86158/Desktop/IEECS-Design/Hardware/Reference/CHV307_Library-master/Example/libraries/sdk/Peripheral/ch32v30x_gpio.c:112
        tmpreg &= ~pinmask;
    2702:	fd842783          	lw	a5,-40(s0)
    2706:	fff7c793          	not	a5,a5
    270a:	fe442703          	lw	a4,-28(s0)
    270e:	8ff9                	and	a5,a5,a4
    2710:	fef42223          	sw	a5,-28(s0)
C:/Users/86158/Desktop/IEECS-Design/Hardware/Reference/CHV307_Library-master/Example/libraries/sdk/Peripheral/ch32v30x_gpio.c:113
        tmpreg |= (currentmode << pos);
    2714:	fdc42783          	lw	a5,-36(s0)
    2718:	fec42703          	lw	a4,-20(s0)
    271c:	00f717b3          	sll	a5,a4,a5
    2720:	fe442703          	lw	a4,-28(s0)
    2724:	8fd9                	or	a5,a5,a4
    2726:	fef42223          	sw	a5,-28(s0)
C:/Users/86158/Desktop/IEECS-Design/Hardware/Reference/CHV307_Library-master/Example/libraries/sdk/Peripheral/ch32v30x_gpio.c:115

        if (GPIO_InitStruct->GPIO_Mode == GPIO_Mode_IPD)
    272a:	fc842783          	lw	a5,-56(s0)
    272e:	4798                	lw	a4,8(a5)
    2730:	02800793          	li	a5,40
    2734:	00f71b63          	bne	a4,a5,274a <GPIO_Init+0xf8>
C:/Users/86158/Desktop/IEECS-Design/Hardware/Reference/CHV307_Library-master/Example/libraries/sdk/Peripheral/ch32v30x_gpio.c:117
        {
          GPIOx->BCR = (((uint32_t)0x01) << pinpos);
    2738:	fe842783          	lw	a5,-24(s0)
    273c:	4705                	li	a4,1
    273e:	00f71733          	sll	a4,a4,a5
    2742:	fcc42783          	lw	a5,-52(s0)
    2746:	cbd8                	sw	a4,20(a5)
    2748:	a005                	j	2768 <GPIO_Init+0x116>
C:/Users/86158/Desktop/IEECS-Design/Hardware/Reference/CHV307_Library-master/Example/libraries/sdk/Peripheral/ch32v30x_gpio.c:121
        }
        else
        {
          if (GPIO_InitStruct->GPIO_Mode == GPIO_Mode_IPU)
    274a:	fc842783          	lw	a5,-56(s0)
    274e:	4798                	lw	a4,8(a5)
    2750:	04800793          	li	a5,72
    2754:	00f71a63          	bne	a4,a5,2768 <GPIO_Init+0x116>
C:/Users/86158/Desktop/IEECS-Design/Hardware/Reference/CHV307_Library-master/Example/libraries/sdk/Peripheral/ch32v30x_gpio.c:123
          {
            GPIOx->BSHR = (((uint32_t)0x01) << pinpos);
    2758:	fe842783          	lw	a5,-24(s0)
    275c:	4705                	li	a4,1
    275e:	00f71733          	sll	a4,a4,a5
    2762:	fcc42783          	lw	a5,-52(s0)
    2766:	cb98                	sw	a4,16(a5)
C:/Users/86158/Desktop/IEECS-Design/Hardware/Reference/CHV307_Library-master/Example/libraries/sdk/Peripheral/ch32v30x_gpio.c:103 (discriminator 2)
    for (pinpos = 0x00; pinpos < 0x08; pinpos++)
    2768:	fe842783          	lw	a5,-24(s0)
    276c:	0785                	addi	a5,a5,1
    276e:	fef42423          	sw	a5,-24(s0)
C:/Users/86158/Desktop/IEECS-Design/Hardware/Reference/CHV307_Library-master/Example/libraries/sdk/Peripheral/ch32v30x_gpio.c:103 (discriminator 1)
    2772:	fe842703          	lw	a4,-24(s0)
    2776:	479d                	li	a5,7
    2778:	f4e7f2e3          	bgeu	a5,a4,26bc <GPIO_Init+0x6a>
C:/Users/86158/Desktop/IEECS-Design/Hardware/Reference/CHV307_Library-master/Example/libraries/sdk/Peripheral/ch32v30x_gpio.c:128
          }
        }
      }
    }
    GPIOx->CFGLR = tmpreg;
    277c:	fcc42783          	lw	a5,-52(s0)
    2780:	fe442703          	lw	a4,-28(s0)
    2784:	c398                	sw	a4,0(a5)
C:/Users/86158/Desktop/IEECS-Design/Hardware/Reference/CHV307_Library-master/Example/libraries/sdk/Peripheral/ch32v30x_gpio.c:131
  }

  if (GPIO_InitStruct->GPIO_Pin > 0x00FF)
    2786:	fc842783          	lw	a5,-56(s0)
    278a:	0007d703          	lhu	a4,0(a5)
    278e:	0ff00793          	li	a5,255
    2792:	0ee7f163          	bgeu	a5,a4,2874 <GPIO_Init+0x222>
C:/Users/86158/Desktop/IEECS-Design/Hardware/Reference/CHV307_Library-master/Example/libraries/sdk/Peripheral/ch32v30x_gpio.c:133
  {
    tmpreg = GPIOx->CFGHR;
    2796:	fcc42783          	lw	a5,-52(s0)
    279a:	43dc                	lw	a5,4(a5)
    279c:	fef42223          	sw	a5,-28(s0)
C:/Users/86158/Desktop/IEECS-Design/Hardware/Reference/CHV307_Library-master/Example/libraries/sdk/Peripheral/ch32v30x_gpio.c:135
		
    for (pinpos = 0x00; pinpos < 0x08; pinpos++)
    27a0:	fe042423          	sw	zero,-24(s0)
    27a4:	a875                	j	2860 <GPIO_Init+0x20e>
C:/Users/86158/Desktop/IEECS-Design/Hardware/Reference/CHV307_Library-master/Example/libraries/sdk/Peripheral/ch32v30x_gpio.c:137
    {
      pos = (((uint32_t)0x01) << (pinpos + 0x08));
    27a6:	fe842783          	lw	a5,-24(s0)
    27aa:	07a1                	addi	a5,a5,8
    27ac:	4705                	li	a4,1
    27ae:	00f717b3          	sll	a5,a4,a5
    27b2:	fcf42e23          	sw	a5,-36(s0)
C:/Users/86158/Desktop/IEECS-Design/Hardware/Reference/CHV307_Library-master/Example/libraries/sdk/Peripheral/ch32v30x_gpio.c:138
      currentpin = ((GPIO_InitStruct->GPIO_Pin) & pos);
    27b6:	fc842783          	lw	a5,-56(s0)
    27ba:	0007d783          	lhu	a5,0(a5)
    27be:	873e                	mv	a4,a5
    27c0:	fdc42783          	lw	a5,-36(s0)
    27c4:	8ff9                	and	a5,a5,a4
    27c6:	fef42023          	sw	a5,-32(s0)
C:/Users/86158/Desktop/IEECS-Design/Hardware/Reference/CHV307_Library-master/Example/libraries/sdk/Peripheral/ch32v30x_gpio.c:140
			
      if (currentpin == pos)
    27ca:	fe042703          	lw	a4,-32(s0)
    27ce:	fdc42783          	lw	a5,-36(s0)
    27d2:	08f71263          	bne	a4,a5,2856 <GPIO_Init+0x204>
C:/Users/86158/Desktop/IEECS-Design/Hardware/Reference/CHV307_Library-master/Example/libraries/sdk/Peripheral/ch32v30x_gpio.c:142
      {
        pos = pinpos << 2;
    27d6:	fe842783          	lw	a5,-24(s0)
    27da:	078a                	slli	a5,a5,0x2
    27dc:	fcf42e23          	sw	a5,-36(s0)
C:/Users/86158/Desktop/IEECS-Design/Hardware/Reference/CHV307_Library-master/Example/libraries/sdk/Peripheral/ch32v30x_gpio.c:143
        pinmask = ((uint32_t)0x0F) << pos;
    27e0:	fdc42783          	lw	a5,-36(s0)
    27e4:	473d                	li	a4,15
    27e6:	00f717b3          	sll	a5,a4,a5
    27ea:	fcf42c23          	sw	a5,-40(s0)
C:/Users/86158/Desktop/IEECS-Design/Hardware/Reference/CHV307_Library-master/Example/libraries/sdk/Peripheral/ch32v30x_gpio.c:144
        tmpreg &= ~pinmask;
    27ee:	fd842783          	lw	a5,-40(s0)
    27f2:	fff7c793          	not	a5,a5
    27f6:	fe442703          	lw	a4,-28(s0)
    27fa:	8ff9                	and	a5,a5,a4
    27fc:	fef42223          	sw	a5,-28(s0)
C:/Users/86158/Desktop/IEECS-Design/Hardware/Reference/CHV307_Library-master/Example/libraries/sdk/Peripheral/ch32v30x_gpio.c:145
        tmpreg |= (currentmode << pos);
    2800:	fdc42783          	lw	a5,-36(s0)
    2804:	fec42703          	lw	a4,-20(s0)
    2808:	00f717b3          	sll	a5,a4,a5
    280c:	fe442703          	lw	a4,-28(s0)
    2810:	8fd9                	or	a5,a5,a4
    2812:	fef42223          	sw	a5,-28(s0)
C:/Users/86158/Desktop/IEECS-Design/Hardware/Reference/CHV307_Library-master/Example/libraries/sdk/Peripheral/ch32v30x_gpio.c:147

        if (GPIO_InitStruct->GPIO_Mode == GPIO_Mode_IPD)
    2816:	fc842783          	lw	a5,-56(s0)
    281a:	4798                	lw	a4,8(a5)
    281c:	02800793          	li	a5,40
    2820:	00f71b63          	bne	a4,a5,2836 <GPIO_Init+0x1e4>
C:/Users/86158/Desktop/IEECS-Design/Hardware/Reference/CHV307_Library-master/Example/libraries/sdk/Peripheral/ch32v30x_gpio.c:149
        {
          GPIOx->BCR = (((uint32_t)0x01) << (pinpos + 0x08));
    2824:	fe842783          	lw	a5,-24(s0)
    2828:	07a1                	addi	a5,a5,8
    282a:	4705                	li	a4,1
    282c:	00f71733          	sll	a4,a4,a5
    2830:	fcc42783          	lw	a5,-52(s0)
    2834:	cbd8                	sw	a4,20(a5)
C:/Users/86158/Desktop/IEECS-Design/Hardware/Reference/CHV307_Library-master/Example/libraries/sdk/Peripheral/ch32v30x_gpio.c:152
        }

        if (GPIO_InitStruct->GPIO_Mode == GPIO_Mode_IPU)
    2836:	fc842783          	lw	a5,-56(s0)
    283a:	4798                	lw	a4,8(a5)
    283c:	04800793          	li	a5,72
    2840:	00f71b63          	bne	a4,a5,2856 <GPIO_Init+0x204>
C:/Users/86158/Desktop/IEECS-Design/Hardware/Reference/CHV307_Library-master/Example/libraries/sdk/Peripheral/ch32v30x_gpio.c:154
        {
          GPIOx->BSHR = (((uint32_t)0x01) << (pinpos + 0x08));
    2844:	fe842783          	lw	a5,-24(s0)
    2848:	07a1                	addi	a5,a5,8
    284a:	4705                	li	a4,1
    284c:	00f71733          	sll	a4,a4,a5
    2850:	fcc42783          	lw	a5,-52(s0)
    2854:	cb98                	sw	a4,16(a5)
C:/Users/86158/Desktop/IEECS-Design/Hardware/Reference/CHV307_Library-master/Example/libraries/sdk/Peripheral/ch32v30x_gpio.c:135 (discriminator 2)
    for (pinpos = 0x00; pinpos < 0x08; pinpos++)
    2856:	fe842783          	lw	a5,-24(s0)
    285a:	0785                	addi	a5,a5,1
    285c:	fef42423          	sw	a5,-24(s0)
C:/Users/86158/Desktop/IEECS-Design/Hardware/Reference/CHV307_Library-master/Example/libraries/sdk/Peripheral/ch32v30x_gpio.c:135 (discriminator 1)
    2860:	fe842703          	lw	a4,-24(s0)
    2864:	479d                	li	a5,7
    2866:	f4e7f0e3          	bgeu	a5,a4,27a6 <GPIO_Init+0x154>
C:/Users/86158/Desktop/IEECS-Design/Hardware/Reference/CHV307_Library-master/Example/libraries/sdk/Peripheral/ch32v30x_gpio.c:158
        }
      }
    }
    GPIOx->CFGHR = tmpreg;
    286a:	fcc42783          	lw	a5,-52(s0)
    286e:	fe442703          	lw	a4,-28(s0)
    2872:	c3d8                	sw	a4,4(a5)
C:/Users/86158/Desktop/IEECS-Design/Hardware/Reference/CHV307_Library-master/Example/libraries/sdk/Peripheral/ch32v30x_gpio.c:160
  }
}
    2874:	0001                	nop
    2876:	5472                	lw	s0,60(sp)
    2878:	6121                	addi	sp,sp,64
    287a:	8082                	ret

0000287c <GPIO_WriteBit>:
GPIO_WriteBit():
C:/Users/86158/Desktop/IEECS-Design/Hardware/Reference/CHV307_Library-master/Example/libraries/sdk/Peripheral/ch32v30x_gpio.c:282
*                    Bit_SetL: to clear the port pin.
*                    Bit_SetH: to set the port pin.                  
* Return         : None
*******************************************************************************/
void GPIO_WriteBit(GPIO_TypeDef* GPIOx, uint16_t GPIO_Pin, BitAction BitVal)
{
    287c:	1101                	addi	sp,sp,-32
    287e:	ce22                	sw	s0,28(sp)
    2880:	1000                	addi	s0,sp,32
    2882:	fea42623          	sw	a0,-20(s0)
    2886:	87ae                	mv	a5,a1
    2888:	fec42223          	sw	a2,-28(s0)
    288c:	fef41523          	sh	a5,-22(s0)
C:/Users/86158/Desktop/IEECS-Design/Hardware/Reference/CHV307_Library-master/Example/libraries/sdk/Peripheral/ch32v30x_gpio.c:283
  if (BitVal != Bit_RESET)
    2890:	fe442783          	lw	a5,-28(s0)
    2894:	c799                	beqz	a5,28a2 <GPIO_WriteBit+0x26>
C:/Users/86158/Desktop/IEECS-Design/Hardware/Reference/CHV307_Library-master/Example/libraries/sdk/Peripheral/ch32v30x_gpio.c:285
  {
    GPIOx->BSHR = GPIO_Pin;
    2896:	fea45703          	lhu	a4,-22(s0)
    289a:	fec42783          	lw	a5,-20(s0)
    289e:	cb98                	sw	a4,16(a5)
C:/Users/86158/Desktop/IEECS-Design/Hardware/Reference/CHV307_Library-master/Example/libraries/sdk/Peripheral/ch32v30x_gpio.c:291
  }
  else
  {
    GPIOx->BCR = GPIO_Pin;
  }
}
    28a0:	a031                	j	28ac <GPIO_WriteBit+0x30>
C:/Users/86158/Desktop/IEECS-Design/Hardware/Reference/CHV307_Library-master/Example/libraries/sdk/Peripheral/ch32v30x_gpio.c:289
    GPIOx->BCR = GPIO_Pin;
    28a2:	fea45703          	lhu	a4,-22(s0)
    28a6:	fec42783          	lw	a5,-20(s0)
    28aa:	cbd8                	sw	a4,20(a5)
C:/Users/86158/Desktop/IEECS-Design/Hardware/Reference/CHV307_Library-master/Example/libraries/sdk/Peripheral/ch32v30x_gpio.c:291
}
    28ac:	0001                	nop
    28ae:	4472                	lw	s0,28(sp)
    28b0:	6105                	addi	sp,sp,32
    28b2:	8082                	ret

000028b4 <GPIO_PinRemapConfig>:
GPIO_PinRemapConfig():
C:/Users/86158/Desktop/IEECS-Design/Hardware/Reference/CHV307_Library-master/Example/libraries/sdk/Peripheral/ch32v30x_gpio.c:402
*      only for High density Value line devices)     
*                  NewState: ENABLE or DISABLE.             
* Return         : None
*******************************************************************************/
void GPIO_PinRemapConfig(uint32_t GPIO_Remap, FunctionalState NewState)
{
    28b4:	7179                	addi	sp,sp,-48
    28b6:	d622                	sw	s0,44(sp)
    28b8:	1800                	addi	s0,sp,48
    28ba:	fca42e23          	sw	a0,-36(s0)
    28be:	fcb42c23          	sw	a1,-40(s0)
C:/Users/86158/Desktop/IEECS-Design/Hardware/Reference/CHV307_Library-master/Example/libraries/sdk/Peripheral/ch32v30x_gpio.c:403
  uint32_t tmp = 0x00, tmp1 = 0x00, tmpreg = 0x00, tmpmask = 0x00;
    28c2:	fe042423          	sw	zero,-24(s0)
    28c6:	fe042223          	sw	zero,-28(s0)
    28ca:	fe042623          	sw	zero,-20(s0)
    28ce:	fe042023          	sw	zero,-32(s0)
C:/Users/86158/Desktop/IEECS-Design/Hardware/Reference/CHV307_Library-master/Example/libraries/sdk/Peripheral/ch32v30x_gpio.c:405

  if((GPIO_Remap & 0x80000000) == 0x80000000)
    28d2:	fdc42783          	lw	a5,-36(s0)
    28d6:	0007d863          	bgez	a5,28e6 <GPIO_PinRemapConfig+0x32>
C:/Users/86158/Desktop/IEECS-Design/Hardware/Reference/CHV307_Library-master/Example/libraries/sdk/Peripheral/ch32v30x_gpio.c:407
  {
    tmpreg = AFIO->PCFR2;
    28da:	400107b7          	lui	a5,0x40010
    28de:	4fdc                	lw	a5,28(a5)
    28e0:	fef42623          	sw	a5,-20(s0)
    28e4:	a031                	j	28f0 <GPIO_PinRemapConfig+0x3c>
C:/Users/86158/Desktop/IEECS-Design/Hardware/Reference/CHV307_Library-master/Example/libraries/sdk/Peripheral/ch32v30x_gpio.c:411
  }
  else
  {
    tmpreg = AFIO->PCFR1;
    28e6:	400107b7          	lui	a5,0x40010
    28ea:	43dc                	lw	a5,4(a5)
    28ec:	fef42623          	sw	a5,-20(s0)
C:/Users/86158/Desktop/IEECS-Design/Hardware/Reference/CHV307_Library-master/Example/libraries/sdk/Peripheral/ch32v30x_gpio.c:414
  }

  tmpmask = (GPIO_Remap & DBGAFR_POSITION_MASK) >> 0x10;
    28f0:	fdc42783          	lw	a5,-36(s0)
    28f4:	83c1                	srli	a5,a5,0x10
    28f6:	8bbd                	andi	a5,a5,15
    28f8:	fef42023          	sw	a5,-32(s0)
C:/Users/86158/Desktop/IEECS-Design/Hardware/Reference/CHV307_Library-master/Example/libraries/sdk/Peripheral/ch32v30x_gpio.c:415
  tmp = GPIO_Remap & LSB_MASK;
    28fc:	fdc42703          	lw	a4,-36(s0)
    2900:	67c1                	lui	a5,0x10
    2902:	17fd                	addi	a5,a5,-1
    2904:	8ff9                	and	a5,a5,a4
    2906:	fef42423          	sw	a5,-24(s0)
C:/Users/86158/Desktop/IEECS-Design/Hardware/Reference/CHV307_Library-master/Example/libraries/sdk/Peripheral/ch32v30x_gpio.c:417

  if ((GPIO_Remap & (DBGAFR_LOCATION_MASK | DBGAFR_NUMBITS_MASK)) == (DBGAFR_LOCATION_MASK | DBGAFR_NUMBITS_MASK))
    290a:	fdc42703          	lw	a4,-36(s0)
    290e:	003007b7          	lui	a5,0x300
    2912:	8f7d                	and	a4,a4,a5
    2914:	003007b7          	lui	a5,0x300
    2918:	02f71563          	bne	a4,a5,2942 <GPIO_PinRemapConfig+0x8e>
C:/Users/86158/Desktop/IEECS-Design/Hardware/Reference/CHV307_Library-master/Example/libraries/sdk/Peripheral/ch32v30x_gpio.c:419
  {
    tmpreg &= DBGAFR_SWJCFG_MASK;
    291c:	fec42703          	lw	a4,-20(s0)
    2920:	f10007b7          	lui	a5,0xf1000
    2924:	17fd                	addi	a5,a5,-1
    2926:	8ff9                	and	a5,a5,a4
    2928:	fef42623          	sw	a5,-20(s0)
C:/Users/86158/Desktop/IEECS-Design/Hardware/Reference/CHV307_Library-master/Example/libraries/sdk/Peripheral/ch32v30x_gpio.c:420
    AFIO->PCFR1 &= DBGAFR_SWJCFG_MASK;
    292c:	400107b7          	lui	a5,0x40010
    2930:	43d4                	lw	a3,4(a5)
    2932:	400107b7          	lui	a5,0x40010
    2936:	f1000737          	lui	a4,0xf1000
    293a:	177d                	addi	a4,a4,-1
    293c:	8f75                	and	a4,a4,a3
    293e:	c3d8                	sw	a4,4(a5)
    2940:	a0ad                	j	29aa <GPIO_PinRemapConfig+0xf6>
C:/Users/86158/Desktop/IEECS-Design/Hardware/Reference/CHV307_Library-master/Example/libraries/sdk/Peripheral/ch32v30x_gpio.c:422
  }
  else if ((GPIO_Remap & DBGAFR_NUMBITS_MASK) == DBGAFR_NUMBITS_MASK)
    2942:	fdc42703          	lw	a4,-36(s0)
    2946:	001007b7          	lui	a5,0x100
    294a:	8ff9                	and	a5,a5,a4
    294c:	cb8d                	beqz	a5,297e <GPIO_PinRemapConfig+0xca>
C:/Users/86158/Desktop/IEECS-Design/Hardware/Reference/CHV307_Library-master/Example/libraries/sdk/Peripheral/ch32v30x_gpio.c:424
  {
    tmp1 = ((uint32_t)0x03) << tmpmask;
    294e:	fe042783          	lw	a5,-32(s0)
    2952:	470d                	li	a4,3
    2954:	00f717b3          	sll	a5,a4,a5
    2958:	fef42223          	sw	a5,-28(s0)
C:/Users/86158/Desktop/IEECS-Design/Hardware/Reference/CHV307_Library-master/Example/libraries/sdk/Peripheral/ch32v30x_gpio.c:425
    tmpreg &= ~tmp1;
    295c:	fe442783          	lw	a5,-28(s0)
    2960:	fff7c793          	not	a5,a5
    2964:	fec42703          	lw	a4,-20(s0)
    2968:	8ff9                	and	a5,a5,a4
    296a:	fef42623          	sw	a5,-20(s0)
C:/Users/86158/Desktop/IEECS-Design/Hardware/Reference/CHV307_Library-master/Example/libraries/sdk/Peripheral/ch32v30x_gpio.c:426
    tmpreg |= ~DBGAFR_SWJCFG_MASK;
    296e:	fec42703          	lw	a4,-20(s0)
    2972:	0f0007b7          	lui	a5,0xf000
    2976:	8fd9                	or	a5,a5,a4
    2978:	fef42623          	sw	a5,-20(s0)
    297c:	a03d                	j	29aa <GPIO_PinRemapConfig+0xf6>
C:/Users/86158/Desktop/IEECS-Design/Hardware/Reference/CHV307_Library-master/Example/libraries/sdk/Peripheral/ch32v30x_gpio.c:430
  }
  else
  {
    tmpreg &= ~(tmp << ((GPIO_Remap >> 0x15)*0x10));
    297e:	fdc42783          	lw	a5,-36(s0)
    2982:	83d5                	srli	a5,a5,0x15
    2984:	0792                	slli	a5,a5,0x4
    2986:	fe842703          	lw	a4,-24(s0)
    298a:	00f717b3          	sll	a5,a4,a5
    298e:	fff7c793          	not	a5,a5
    2992:	fec42703          	lw	a4,-20(s0)
    2996:	8ff9                	and	a5,a5,a4
    2998:	fef42623          	sw	a5,-20(s0)
C:/Users/86158/Desktop/IEECS-Design/Hardware/Reference/CHV307_Library-master/Example/libraries/sdk/Peripheral/ch32v30x_gpio.c:431
    tmpreg |= ~DBGAFR_SWJCFG_MASK;
    299c:	fec42703          	lw	a4,-20(s0)
    29a0:	0f0007b7          	lui	a5,0xf000
    29a4:	8fd9                	or	a5,a5,a4
    29a6:	fef42623          	sw	a5,-20(s0)
C:/Users/86158/Desktop/IEECS-Design/Hardware/Reference/CHV307_Library-master/Example/libraries/sdk/Peripheral/ch32v30x_gpio.c:434
  }

  if (NewState != DISABLE)
    29aa:	fd842783          	lw	a5,-40(s0)
    29ae:	cf91                	beqz	a5,29ca <GPIO_PinRemapConfig+0x116>
C:/Users/86158/Desktop/IEECS-Design/Hardware/Reference/CHV307_Library-master/Example/libraries/sdk/Peripheral/ch32v30x_gpio.c:436
  {
    tmpreg |= (tmp << ((GPIO_Remap >> 0x15)*0x10));
    29b0:	fdc42783          	lw	a5,-36(s0)
    29b4:	83d5                	srli	a5,a5,0x15
    29b6:	0792                	slli	a5,a5,0x4
    29b8:	fe842703          	lw	a4,-24(s0)
    29bc:	00f717b3          	sll	a5,a4,a5
    29c0:	fec42703          	lw	a4,-20(s0)
    29c4:	8fd9                	or	a5,a5,a4
    29c6:	fef42623          	sw	a5,-20(s0)
C:/Users/86158/Desktop/IEECS-Design/Hardware/Reference/CHV307_Library-master/Example/libraries/sdk/Peripheral/ch32v30x_gpio.c:439
  }

  if((GPIO_Remap & 0x80000000) == 0x80000000)
    29ca:	fdc42783          	lw	a5,-36(s0)
    29ce:	0007d863          	bgez	a5,29de <GPIO_PinRemapConfig+0x12a>
C:/Users/86158/Desktop/IEECS-Design/Hardware/Reference/CHV307_Library-master/Example/libraries/sdk/Peripheral/ch32v30x_gpio.c:441
  {
    AFIO->PCFR2 = tmpreg;
    29d2:	400107b7          	lui	a5,0x40010
    29d6:	fec42703          	lw	a4,-20(s0)
    29da:	cfd8                	sw	a4,28(a5)
C:/Users/86158/Desktop/IEECS-Design/Hardware/Reference/CHV307_Library-master/Example/libraries/sdk/Peripheral/ch32v30x_gpio.c:447
  }
  else
  {
    AFIO->PCFR1 = tmpreg;
  }  
}
    29dc:	a031                	j	29e8 <GPIO_PinRemapConfig+0x134>
C:/Users/86158/Desktop/IEECS-Design/Hardware/Reference/CHV307_Library-master/Example/libraries/sdk/Peripheral/ch32v30x_gpio.c:445
    AFIO->PCFR1 = tmpreg;
    29de:	400107b7          	lui	a5,0x40010
    29e2:	fec42703          	lw	a4,-20(s0)
    29e6:	c3d8                	sw	a4,4(a5)
C:/Users/86158/Desktop/IEECS-Design/Hardware/Reference/CHV307_Library-master/Example/libraries/sdk/Peripheral/ch32v30x_gpio.c:447
}
    29e8:	0001                	nop
    29ea:	5432                	lw	s0,44(sp)
    29ec:	6145                	addi	sp,sp,48
    29ee:	8082                	ret

000029f0 <RCC_GetClocksFreq>:
RCC_GetClocksFreq():
C:/Users/86158/Desktop/IEECS-Design/Hardware/Reference/CHV307_Library-master/Example/libraries/sdk/Peripheral/ch32v30x_rcc.c:489
* Input          : RCC_Clocks: pointer to a RCC_ClocksTypeDef structure which will hold
*      the clocks frequencies.
* Return         : None
********************************************************************************/
void RCC_GetClocksFreq(RCC_ClocksTypeDef* RCC_Clocks)
{
    29f0:	7139                	addi	sp,sp,-64
    29f2:	de22                	sw	s0,60(sp)
    29f4:	0080                	addi	s0,sp,64
    29f6:	fca42623          	sw	a0,-52(s0)
C:/Users/86158/Desktop/IEECS-Design/Hardware/Reference/CHV307_Library-master/Example/libraries/sdk/Peripheral/ch32v30x_rcc.c:490
    uint32_t tmp = 0, pllmull = 0, pllsource = 0, presc = 0, Pll_6_5 = 0;
    29fa:	fe042223          	sw	zero,-28(s0)
    29fe:	fe042623          	sw	zero,-20(s0)
    2a02:	fe042023          	sw	zero,-32(s0)
    2a06:	fc042e23          	sw	zero,-36(s0)
    2a0a:	fe042423          	sw	zero,-24(s0)
C:/Users/86158/Desktop/IEECS-Design/Hardware/Reference/CHV307_Library-master/Example/libraries/sdk/Peripheral/ch32v30x_rcc.c:492

    tmp = RCC->CFGR0 & CFGR0_SWS_Mask;
    2a0e:	400217b7          	lui	a5,0x40021
    2a12:	43dc                	lw	a5,4(a5)
    2a14:	8bb1                	andi	a5,a5,12
    2a16:	fef42223          	sw	a5,-28(s0)
    2a1a:	fe442703          	lw	a4,-28(s0)
    2a1e:	4791                	li	a5,4
    2a20:	02f70363          	beq	a4,a5,2a46 <RCC_GetClocksFreq+0x56>
    2a24:	fe442703          	lw	a4,-28(s0)
    2a28:	47a1                	li	a5,8
    2a2a:	02f70663          	beq	a4,a5,2a56 <RCC_GetClocksFreq+0x66>
    2a2e:	fe442783          	lw	a5,-28(s0)
    2a32:	14079963          	bnez	a5,2b84 <RCC_GetClocksFreq+0x194>
C:/Users/86158/Desktop/IEECS-Design/Hardware/Reference/CHV307_Library-master/Example/libraries/sdk/Peripheral/ch32v30x_rcc.c:497

    switch (tmp)
    {
      case 0x00:
        RCC_Clocks->SYSCLK_Frequency = HSI_VALUE;
    2a36:	fcc42783          	lw	a5,-52(s0)
    2a3a:	007a1737          	lui	a4,0x7a1
    2a3e:	20070713          	addi	a4,a4,512 # 7a1200 <_data_lma+0x797624>
    2a42:	c398                	sw	a4,0(a5)
C:/Users/86158/Desktop/IEECS-Design/Hardware/Reference/CHV307_Library-master/Example/libraries/sdk/Peripheral/ch32v30x_rcc.c:498
        break;
    2a44:	aa89                	j	2b96 <RCC_GetClocksFreq+0x1a6>
C:/Users/86158/Desktop/IEECS-Design/Hardware/Reference/CHV307_Library-master/Example/libraries/sdk/Peripheral/ch32v30x_rcc.c:501

      case 0x04:
        RCC_Clocks->SYSCLK_Frequency = HSE_VALUE;
    2a46:	fcc42783          	lw	a5,-52(s0)
    2a4a:	007a1737          	lui	a4,0x7a1
    2a4e:	20070713          	addi	a4,a4,512 # 7a1200 <_data_lma+0x797624>
    2a52:	c398                	sw	a4,0(a5)
C:/Users/86158/Desktop/IEECS-Design/Hardware/Reference/CHV307_Library-master/Example/libraries/sdk/Peripheral/ch32v30x_rcc.c:502
        break;
    2a54:	a289                	j	2b96 <RCC_GetClocksFreq+0x1a6>
C:/Users/86158/Desktop/IEECS-Design/Hardware/Reference/CHV307_Library-master/Example/libraries/sdk/Peripheral/ch32v30x_rcc.c:505

      case 0x08:
        pllmull = RCC->CFGR0 & CFGR0_PLLMull_Mask;
    2a56:	400217b7          	lui	a5,0x40021
    2a5a:	43d8                	lw	a4,4(a5)
    2a5c:	003c07b7          	lui	a5,0x3c0
    2a60:	8ff9                	and	a5,a5,a4
    2a62:	fef42623          	sw	a5,-20(s0)
C:/Users/86158/Desktop/IEECS-Design/Hardware/Reference/CHV307_Library-master/Example/libraries/sdk/Peripheral/ch32v30x_rcc.c:506
        pllsource = RCC->CFGR0 & CFGR0_PLLSRC_Mask;
    2a66:	400217b7          	lui	a5,0x40021
    2a6a:	43d8                	lw	a4,4(a5)
    2a6c:	67c1                	lui	a5,0x10
    2a6e:	8ff9                	and	a5,a5,a4
    2a70:	fef42023          	sw	a5,-32(s0)
C:/Users/86158/Desktop/IEECS-Design/Hardware/Reference/CHV307_Library-master/Example/libraries/sdk/Peripheral/ch32v30x_rcc.c:508

        pllmull = ( pllmull >> 18) + 2;
    2a74:	fec42783          	lw	a5,-20(s0)
    2a78:	83c9                	srli	a5,a5,0x12
    2a7a:	0789                	addi	a5,a5,2
    2a7c:	fef42623          	sw	a5,-20(s0)
C:/Users/86158/Desktop/IEECS-Design/Hardware/Reference/CHV307_Library-master/Example/libraries/sdk/Peripheral/ch32v30x_rcc.c:510

        if(((*(uint32_t*)0x1FFFF70C) & (1<<14)) != (1<<14)){ /* for other CH32V30x */
    2a80:	1ffff7b7          	lui	a5,0x1ffff
    2a84:	70c78793          	addi	a5,a5,1804 # 1ffff70c <_data_lma+0x1fff5b30>
    2a88:	4398                	lw	a4,0(a5)
    2a8a:	6791                	lui	a5,0x4
    2a8c:	8ff9                	and	a5,a5,a4
    2a8e:	eb91                	bnez	a5,2aa2 <RCC_GetClocksFreq+0xb2>
C:/Users/86158/Desktop/IEECS-Design/Hardware/Reference/CHV307_Library-master/Example/libraries/sdk/Peripheral/ch32v30x_rcc.c:511
            if(pllmull == 17) pllmull = 18;
    2a90:	fec42703          	lw	a4,-20(s0)
    2a94:	47c5                	li	a5,17
    2a96:	04f71963          	bne	a4,a5,2ae8 <RCC_GetClocksFreq+0xf8>
C:/Users/86158/Desktop/IEECS-Design/Hardware/Reference/CHV307_Library-master/Example/libraries/sdk/Peripheral/ch32v30x_rcc.c:511 (discriminator 1)
    2a9a:	47c9                	li	a5,18
    2a9c:	fef42623          	sw	a5,-20(s0)
    2aa0:	a0a1                	j	2ae8 <RCC_GetClocksFreq+0xf8>
C:/Users/86158/Desktop/IEECS-Design/Hardware/Reference/CHV307_Library-master/Example/libraries/sdk/Peripheral/ch32v30x_rcc.c:514
        }
        else{  /* for CH32V307 */
            if(pllmull == 2) pllmull = 18;
    2aa2:	fec42703          	lw	a4,-20(s0)
    2aa6:	4789                	li	a5,2
    2aa8:	00f71563          	bne	a4,a5,2ab2 <RCC_GetClocksFreq+0xc2>
C:/Users/86158/Desktop/IEECS-Design/Hardware/Reference/CHV307_Library-master/Example/libraries/sdk/Peripheral/ch32v30x_rcc.c:514 (discriminator 1)
    2aac:	47c9                	li	a5,18
    2aae:	fef42623          	sw	a5,-20(s0)
C:/Users/86158/Desktop/IEECS-Design/Hardware/Reference/CHV307_Library-master/Example/libraries/sdk/Peripheral/ch32v30x_rcc.c:515
            if(pllmull == 15){
    2ab2:	fec42703          	lw	a4,-20(s0)
    2ab6:	47bd                	li	a5,15
    2ab8:	00f71863          	bne	a4,a5,2ac8 <RCC_GetClocksFreq+0xd8>
C:/Users/86158/Desktop/IEECS-Design/Hardware/Reference/CHV307_Library-master/Example/libraries/sdk/Peripheral/ch32v30x_rcc.c:516
                pllmull = 13;  /* *6.5 */
    2abc:	47b5                	li	a5,13
    2abe:	fef42623          	sw	a5,-20(s0)
C:/Users/86158/Desktop/IEECS-Design/Hardware/Reference/CHV307_Library-master/Example/libraries/sdk/Peripheral/ch32v30x_rcc.c:517
                Pll_6_5 = 1;
    2ac2:	4785                	li	a5,1
    2ac4:	fef42423          	sw	a5,-24(s0)
C:/Users/86158/Desktop/IEECS-Design/Hardware/Reference/CHV307_Library-master/Example/libraries/sdk/Peripheral/ch32v30x_rcc.c:519
            }
            if(pllmull == 16) pllmull = 15;
    2ac8:	fec42703          	lw	a4,-20(s0)
    2acc:	47c1                	li	a5,16
    2ace:	00f71563          	bne	a4,a5,2ad8 <RCC_GetClocksFreq+0xe8>
C:/Users/86158/Desktop/IEECS-Design/Hardware/Reference/CHV307_Library-master/Example/libraries/sdk/Peripheral/ch32v30x_rcc.c:519 (discriminator 1)
    2ad2:	47bd                	li	a5,15
    2ad4:	fef42623          	sw	a5,-20(s0)
C:/Users/86158/Desktop/IEECS-Design/Hardware/Reference/CHV307_Library-master/Example/libraries/sdk/Peripheral/ch32v30x_rcc.c:520
            if(pllmull == 17) pllmull = 16;
    2ad8:	fec42703          	lw	a4,-20(s0)
    2adc:	47c5                	li	a5,17
    2ade:	00f71563          	bne	a4,a5,2ae8 <RCC_GetClocksFreq+0xf8>
C:/Users/86158/Desktop/IEECS-Design/Hardware/Reference/CHV307_Library-master/Example/libraries/sdk/Peripheral/ch32v30x_rcc.c:520 (discriminator 1)
    2ae2:	47c1                	li	a5,16
    2ae4:	fef42623          	sw	a5,-20(s0)
C:/Users/86158/Desktop/IEECS-Design/Hardware/Reference/CHV307_Library-master/Example/libraries/sdk/Peripheral/ch32v30x_rcc.c:524
        }


        if (pllsource == 0x00)
    2ae8:	fe042783          	lw	a5,-32(s0)
    2aec:	e3a1                	bnez	a5,2b2c <RCC_GetClocksFreq+0x13c>
C:/Users/86158/Desktop/IEECS-Design/Hardware/Reference/CHV307_Library-master/Example/libraries/sdk/Peripheral/ch32v30x_rcc.c:526
        {
                  if(EXTEN->EXTEN_CTR & EXTEN_PLL_HSI_PRE){
    2aee:	400247b7          	lui	a5,0x40024
    2af2:	80078793          	addi	a5,a5,-2048 # 40023800 <_eusrstack+0x20013800>
    2af6:	439c                	lw	a5,0(a5)
    2af8:	8bc1                	andi	a5,a5,16
    2afa:	cf89                	beqz	a5,2b14 <RCC_GetClocksFreq+0x124>
C:/Users/86158/Desktop/IEECS-Design/Hardware/Reference/CHV307_Library-master/Example/libraries/sdk/Peripheral/ch32v30x_rcc.c:527
                   RCC_Clocks->SYSCLK_Frequency = (HSI_VALUE) * pllmull;
    2afc:	fec42703          	lw	a4,-20(s0)
    2b00:	007a17b7          	lui	a5,0x7a1
    2b04:	20078793          	addi	a5,a5,512 # 7a1200 <_data_lma+0x797624>
    2b08:	02f70733          	mul	a4,a4,a5
    2b0c:	fcc42783          	lw	a5,-52(s0)
    2b10:	c398                	sw	a4,0(a5)
    2b12:	a899                	j	2b68 <RCC_GetClocksFreq+0x178>
C:/Users/86158/Desktop/IEECS-Design/Hardware/Reference/CHV307_Library-master/Example/libraries/sdk/Peripheral/ch32v30x_rcc.c:530
                  }
                  else{
                   RCC_Clocks->SYSCLK_Frequency = (HSI_VALUE >>1) * pllmull;
    2b14:	fec42703          	lw	a4,-20(s0)
    2b18:	003d17b7          	lui	a5,0x3d1
    2b1c:	90078793          	addi	a5,a5,-1792 # 3d0900 <_data_lma+0x3c6d24>
    2b20:	02f70733          	mul	a4,a4,a5
    2b24:	fcc42783          	lw	a5,-52(s0)
    2b28:	c398                	sw	a4,0(a5)
    2b2a:	a83d                	j	2b68 <RCC_GetClocksFreq+0x178>
C:/Users/86158/Desktop/IEECS-Design/Hardware/Reference/CHV307_Library-master/Example/libraries/sdk/Peripheral/ch32v30x_rcc.c:535
                  }
        }
        else
        {
          if ((RCC->CFGR0 & CFGR0_PLLXTPRE_Mask) != (uint32_t)RESET)
    2b2c:	400217b7          	lui	a5,0x40021
    2b30:	43d8                	lw	a4,4(a5)
    2b32:	000207b7          	lui	a5,0x20
    2b36:	8ff9                	and	a5,a5,a4
    2b38:	cf89                	beqz	a5,2b52 <RCC_GetClocksFreq+0x162>
C:/Users/86158/Desktop/IEECS-Design/Hardware/Reference/CHV307_Library-master/Example/libraries/sdk/Peripheral/ch32v30x_rcc.c:537
          {
            RCC_Clocks->SYSCLK_Frequency = (HSE_VALUE >> 1) * pllmull;
    2b3a:	fec42703          	lw	a4,-20(s0)
    2b3e:	003d17b7          	lui	a5,0x3d1
    2b42:	90078793          	addi	a5,a5,-1792 # 3d0900 <_data_lma+0x3c6d24>
    2b46:	02f70733          	mul	a4,a4,a5
    2b4a:	fcc42783          	lw	a5,-52(s0)
    2b4e:	c398                	sw	a4,0(a5)
    2b50:	a821                	j	2b68 <RCC_GetClocksFreq+0x178>
C:/Users/86158/Desktop/IEECS-Design/Hardware/Reference/CHV307_Library-master/Example/libraries/sdk/Peripheral/ch32v30x_rcc.c:541
          }
          else
          {
            RCC_Clocks->SYSCLK_Frequency = HSE_VALUE * pllmull;
    2b52:	fec42703          	lw	a4,-20(s0)
    2b56:	007a17b7          	lui	a5,0x7a1
    2b5a:	20078793          	addi	a5,a5,512 # 7a1200 <_data_lma+0x797624>
    2b5e:	02f70733          	mul	a4,a4,a5
    2b62:	fcc42783          	lw	a5,-52(s0)
    2b66:	c398                	sw	a4,0(a5)
C:/Users/86158/Desktop/IEECS-Design/Hardware/Reference/CHV307_Library-master/Example/libraries/sdk/Peripheral/ch32v30x_rcc.c:545
          }
        }

        if(Pll_6_5 == 1) RCC_Clocks->SYSCLK_Frequency = (RCC_Clocks->SYSCLK_Frequency / 2);
    2b68:	fe842703          	lw	a4,-24(s0)
    2b6c:	4785                	li	a5,1
    2b6e:	02f71363          	bne	a4,a5,2b94 <RCC_GetClocksFreq+0x1a4>
C:/Users/86158/Desktop/IEECS-Design/Hardware/Reference/CHV307_Library-master/Example/libraries/sdk/Peripheral/ch32v30x_rcc.c:545 (discriminator 1)
    2b72:	fcc42783          	lw	a5,-52(s0)
    2b76:	439c                	lw	a5,0(a5)
    2b78:	0017d713          	srli	a4,a5,0x1
    2b7c:	fcc42783          	lw	a5,-52(s0)
    2b80:	c398                	sw	a4,0(a5)
C:/Users/86158/Desktop/IEECS-Design/Hardware/Reference/CHV307_Library-master/Example/libraries/sdk/Peripheral/ch32v30x_rcc.c:547 (discriminator 1)

        break;
    2b82:	a809                	j	2b94 <RCC_GetClocksFreq+0x1a4>
C:/Users/86158/Desktop/IEECS-Design/Hardware/Reference/CHV307_Library-master/Example/libraries/sdk/Peripheral/ch32v30x_rcc.c:550

      default:
        RCC_Clocks->SYSCLK_Frequency = HSI_VALUE;
    2b84:	fcc42783          	lw	a5,-52(s0)
    2b88:	007a1737          	lui	a4,0x7a1
    2b8c:	20070713          	addi	a4,a4,512 # 7a1200 <_data_lma+0x797624>
    2b90:	c398                	sw	a4,0(a5)
C:/Users/86158/Desktop/IEECS-Design/Hardware/Reference/CHV307_Library-master/Example/libraries/sdk/Peripheral/ch32v30x_rcc.c:551
        break;
    2b92:	a011                	j	2b96 <RCC_GetClocksFreq+0x1a6>
C:/Users/86158/Desktop/IEECS-Design/Hardware/Reference/CHV307_Library-master/Example/libraries/sdk/Peripheral/ch32v30x_rcc.c:547
        break;
    2b94:	0001                	nop
C:/Users/86158/Desktop/IEECS-Design/Hardware/Reference/CHV307_Library-master/Example/libraries/sdk/Peripheral/ch32v30x_rcc.c:554
    }

    tmp = RCC->CFGR0 & CFGR0_HPRE_Set_Mask;
    2b96:	400217b7          	lui	a5,0x40021
    2b9a:	43dc                	lw	a5,4(a5)
    2b9c:	0f07f793          	andi	a5,a5,240
    2ba0:	fef42223          	sw	a5,-28(s0)
C:/Users/86158/Desktop/IEECS-Design/Hardware/Reference/CHV307_Library-master/Example/libraries/sdk/Peripheral/ch32v30x_rcc.c:555
    tmp = tmp >> 4;
    2ba4:	fe442783          	lw	a5,-28(s0)
    2ba8:	8391                	srli	a5,a5,0x4
    2baa:	fef42223          	sw	a5,-28(s0)
C:/Users/86158/Desktop/IEECS-Design/Hardware/Reference/CHV307_Library-master/Example/libraries/sdk/Peripheral/ch32v30x_rcc.c:556
    presc = APBAHBPrescTable[tmp];
    2bae:	200007b7          	lui	a5,0x20000
    2bb2:	00c78713          	addi	a4,a5,12 # 2000000c <APBAHBPrescTable>
    2bb6:	fe442783          	lw	a5,-28(s0)
    2bba:	97ba                	add	a5,a5,a4
    2bbc:	0007c783          	lbu	a5,0(a5)
    2bc0:	0ff7f793          	andi	a5,a5,255
    2bc4:	fcf42e23          	sw	a5,-36(s0)
C:/Users/86158/Desktop/IEECS-Design/Hardware/Reference/CHV307_Library-master/Example/libraries/sdk/Peripheral/ch32v30x_rcc.c:557
    RCC_Clocks->HCLK_Frequency = RCC_Clocks->SYSCLK_Frequency >> presc;
    2bc8:	fcc42783          	lw	a5,-52(s0)
    2bcc:	4398                	lw	a4,0(a5)
    2bce:	fdc42783          	lw	a5,-36(s0)
    2bd2:	00f75733          	srl	a4,a4,a5
    2bd6:	fcc42783          	lw	a5,-52(s0)
    2bda:	c3d8                	sw	a4,4(a5)
C:/Users/86158/Desktop/IEECS-Design/Hardware/Reference/CHV307_Library-master/Example/libraries/sdk/Peripheral/ch32v30x_rcc.c:558
    tmp = RCC->CFGR0 & CFGR0_PPRE1_Set_Mask;
    2bdc:	400217b7          	lui	a5,0x40021
    2be0:	43dc                	lw	a5,4(a5)
    2be2:	7007f793          	andi	a5,a5,1792
    2be6:	fef42223          	sw	a5,-28(s0)
C:/Users/86158/Desktop/IEECS-Design/Hardware/Reference/CHV307_Library-master/Example/libraries/sdk/Peripheral/ch32v30x_rcc.c:559
    tmp = tmp >> 8;
    2bea:	fe442783          	lw	a5,-28(s0)
    2bee:	83a1                	srli	a5,a5,0x8
    2bf0:	fef42223          	sw	a5,-28(s0)
C:/Users/86158/Desktop/IEECS-Design/Hardware/Reference/CHV307_Library-master/Example/libraries/sdk/Peripheral/ch32v30x_rcc.c:560
    presc = APBAHBPrescTable[tmp];
    2bf4:	200007b7          	lui	a5,0x20000
    2bf8:	00c78713          	addi	a4,a5,12 # 2000000c <APBAHBPrescTable>
    2bfc:	fe442783          	lw	a5,-28(s0)
    2c00:	97ba                	add	a5,a5,a4
    2c02:	0007c783          	lbu	a5,0(a5)
    2c06:	0ff7f793          	andi	a5,a5,255
    2c0a:	fcf42e23          	sw	a5,-36(s0)
C:/Users/86158/Desktop/IEECS-Design/Hardware/Reference/CHV307_Library-master/Example/libraries/sdk/Peripheral/ch32v30x_rcc.c:561
    RCC_Clocks->PCLK1_Frequency = RCC_Clocks->HCLK_Frequency >> presc;
    2c0e:	fcc42783          	lw	a5,-52(s0)
    2c12:	43d8                	lw	a4,4(a5)
    2c14:	fdc42783          	lw	a5,-36(s0)
    2c18:	00f75733          	srl	a4,a4,a5
    2c1c:	fcc42783          	lw	a5,-52(s0)
    2c20:	c798                	sw	a4,8(a5)
C:/Users/86158/Desktop/IEECS-Design/Hardware/Reference/CHV307_Library-master/Example/libraries/sdk/Peripheral/ch32v30x_rcc.c:562
    tmp = RCC->CFGR0 & CFGR0_PPRE2_Set_Mask;
    2c22:	400217b7          	lui	a5,0x40021
    2c26:	43d8                	lw	a4,4(a5)
    2c28:	6791                	lui	a5,0x4
    2c2a:	80078793          	addi	a5,a5,-2048 # 3800 <OTG_FS_IRQHandler+0x102>
    2c2e:	8ff9                	and	a5,a5,a4
    2c30:	fef42223          	sw	a5,-28(s0)
C:/Users/86158/Desktop/IEECS-Design/Hardware/Reference/CHV307_Library-master/Example/libraries/sdk/Peripheral/ch32v30x_rcc.c:563
    tmp = tmp >> 11;
    2c34:	fe442783          	lw	a5,-28(s0)
    2c38:	83ad                	srli	a5,a5,0xb
    2c3a:	fef42223          	sw	a5,-28(s0)
C:/Users/86158/Desktop/IEECS-Design/Hardware/Reference/CHV307_Library-master/Example/libraries/sdk/Peripheral/ch32v30x_rcc.c:564
    presc = APBAHBPrescTable[tmp];
    2c3e:	200007b7          	lui	a5,0x20000
    2c42:	00c78713          	addi	a4,a5,12 # 2000000c <APBAHBPrescTable>
    2c46:	fe442783          	lw	a5,-28(s0)
    2c4a:	97ba                	add	a5,a5,a4
    2c4c:	0007c783          	lbu	a5,0(a5)
    2c50:	0ff7f793          	andi	a5,a5,255
    2c54:	fcf42e23          	sw	a5,-36(s0)
C:/Users/86158/Desktop/IEECS-Design/Hardware/Reference/CHV307_Library-master/Example/libraries/sdk/Peripheral/ch32v30x_rcc.c:565
    RCC_Clocks->PCLK2_Frequency = RCC_Clocks->HCLK_Frequency >> presc;
    2c58:	fcc42783          	lw	a5,-52(s0)
    2c5c:	43d8                	lw	a4,4(a5)
    2c5e:	fdc42783          	lw	a5,-36(s0)
    2c62:	00f75733          	srl	a4,a4,a5
    2c66:	fcc42783          	lw	a5,-52(s0)
    2c6a:	c7d8                	sw	a4,12(a5)
C:/Users/86158/Desktop/IEECS-Design/Hardware/Reference/CHV307_Library-master/Example/libraries/sdk/Peripheral/ch32v30x_rcc.c:566
    tmp = RCC->CFGR0 & CFGR0_ADCPRE_Set_Mask;
    2c6c:	400217b7          	lui	a5,0x40021
    2c70:	43d8                	lw	a4,4(a5)
    2c72:	67b1                	lui	a5,0xc
    2c74:	8ff9                	and	a5,a5,a4
    2c76:	fef42223          	sw	a5,-28(s0)
C:/Users/86158/Desktop/IEECS-Design/Hardware/Reference/CHV307_Library-master/Example/libraries/sdk/Peripheral/ch32v30x_rcc.c:567
    tmp = tmp >> 14;
    2c7a:	fe442783          	lw	a5,-28(s0)
    2c7e:	83b9                	srli	a5,a5,0xe
    2c80:	fef42223          	sw	a5,-28(s0)
C:/Users/86158/Desktop/IEECS-Design/Hardware/Reference/CHV307_Library-master/Example/libraries/sdk/Peripheral/ch32v30x_rcc.c:568
    presc = ADCPrescTable[tmp];
    2c84:	200007b7          	lui	a5,0x20000
    2c88:	23478713          	addi	a4,a5,564 # 20000234 <ADCPrescTable>
    2c8c:	fe442783          	lw	a5,-28(s0)
    2c90:	97ba                	add	a5,a5,a4
    2c92:	0007c783          	lbu	a5,0(a5)
    2c96:	0ff7f793          	andi	a5,a5,255
    2c9a:	fcf42e23          	sw	a5,-36(s0)
C:/Users/86158/Desktop/IEECS-Design/Hardware/Reference/CHV307_Library-master/Example/libraries/sdk/Peripheral/ch32v30x_rcc.c:569
    RCC_Clocks->ADCCLK_Frequency = RCC_Clocks->PCLK2_Frequency / presc;
    2c9e:	fcc42783          	lw	a5,-52(s0)
    2ca2:	47d8                	lw	a4,12(a5)
    2ca4:	fdc42783          	lw	a5,-36(s0)
    2ca8:	02f75733          	divu	a4,a4,a5
    2cac:	fcc42783          	lw	a5,-52(s0)
    2cb0:	cb98                	sw	a4,16(a5)
C:/Users/86158/Desktop/IEECS-Design/Hardware/Reference/CHV307_Library-master/Example/libraries/sdk/Peripheral/ch32v30x_rcc.c:570
}
    2cb2:	0001                	nop
    2cb4:	5472                	lw	s0,60(sp)
    2cb6:	6121                	addi	sp,sp,64
    2cb8:	8082                	ret

00002cba <RCC_APB2PeriphClockCmd>:
RCC_APB2PeriphClockCmd():
C:/Users/86158/Desktop/IEECS-Design/Hardware/Reference/CHV307_Library-master/Example/libraries/sdk/Peripheral/ch32v30x_rcc.c:627
*                    RCC_APB2Periph_USART1.
*                  NewState: ENABLE or DISABLE
* Return         : None
*******************************************************************************/	
void RCC_APB2PeriphClockCmd(uint32_t RCC_APB2Periph, FunctionalState NewState)
{
    2cba:	1101                	addi	sp,sp,-32
    2cbc:	ce22                	sw	s0,28(sp)
    2cbe:	1000                	addi	s0,sp,32
    2cc0:	fea42623          	sw	a0,-20(s0)
    2cc4:	feb42423          	sw	a1,-24(s0)
C:/Users/86158/Desktop/IEECS-Design/Hardware/Reference/CHV307_Library-master/Example/libraries/sdk/Peripheral/ch32v30x_rcc.c:628
  if (NewState != DISABLE)
    2cc8:	fe842783          	lw	a5,-24(s0)
    2ccc:	cb99                	beqz	a5,2ce2 <RCC_APB2PeriphClockCmd+0x28>
C:/Users/86158/Desktop/IEECS-Design/Hardware/Reference/CHV307_Library-master/Example/libraries/sdk/Peripheral/ch32v30x_rcc.c:630
  {
    RCC->APB2PCENR |= RCC_APB2Periph;
    2cce:	400217b7          	lui	a5,0x40021
    2cd2:	4f94                	lw	a3,24(a5)
    2cd4:	400217b7          	lui	a5,0x40021
    2cd8:	fec42703          	lw	a4,-20(s0)
    2cdc:	8f55                	or	a4,a4,a3
    2cde:	cf98                	sw	a4,24(a5)
C:/Users/86158/Desktop/IEECS-Design/Hardware/Reference/CHV307_Library-master/Example/libraries/sdk/Peripheral/ch32v30x_rcc.c:636
  }
  else
  {
    RCC->APB2PCENR &= ~RCC_APB2Periph;
  }
}
    2ce0:	a821                	j	2cf8 <RCC_APB2PeriphClockCmd+0x3e>
C:/Users/86158/Desktop/IEECS-Design/Hardware/Reference/CHV307_Library-master/Example/libraries/sdk/Peripheral/ch32v30x_rcc.c:634
    RCC->APB2PCENR &= ~RCC_APB2Periph;
    2ce2:	400217b7          	lui	a5,0x40021
    2ce6:	4f94                	lw	a3,24(a5)
    2ce8:	fec42783          	lw	a5,-20(s0)
    2cec:	fff7c713          	not	a4,a5
    2cf0:	400217b7          	lui	a5,0x40021
    2cf4:	8f75                	and	a4,a4,a3
    2cf6:	cf98                	sw	a4,24(a5)
C:/Users/86158/Desktop/IEECS-Design/Hardware/Reference/CHV307_Library-master/Example/libraries/sdk/Peripheral/ch32v30x_rcc.c:636
}
    2cf8:	0001                	nop
    2cfa:	4472                	lw	s0,28(sp)
    2cfc:	6105                	addi	sp,sp,32
    2cfe:	8082                	ret

00002d00 <RCC_APB1PeriphClockCmd>:
RCC_APB1PeriphClockCmd():
C:/Users/86158/Desktop/IEECS-Design/Hardware/Reference/CHV307_Library-master/Example/libraries/sdk/Peripheral/ch32v30x_rcc.c:668
*                    RCC_APB1Periph_DAC.                
*                  NewState: ENABLE or DISABLE.
* Return         : None
*******************************************************************************/	
void RCC_APB1PeriphClockCmd(uint32_t RCC_APB1Periph, FunctionalState NewState)
{
    2d00:	1101                	addi	sp,sp,-32
    2d02:	ce22                	sw	s0,28(sp)
    2d04:	1000                	addi	s0,sp,32
    2d06:	fea42623          	sw	a0,-20(s0)
    2d0a:	feb42423          	sw	a1,-24(s0)
C:/Users/86158/Desktop/IEECS-Design/Hardware/Reference/CHV307_Library-master/Example/libraries/sdk/Peripheral/ch32v30x_rcc.c:669
  if (NewState != DISABLE)
    2d0e:	fe842783          	lw	a5,-24(s0)
    2d12:	cb99                	beqz	a5,2d28 <RCC_APB1PeriphClockCmd+0x28>
C:/Users/86158/Desktop/IEECS-Design/Hardware/Reference/CHV307_Library-master/Example/libraries/sdk/Peripheral/ch32v30x_rcc.c:671
  {
    RCC->APB1PCENR |= RCC_APB1Periph;
    2d14:	400217b7          	lui	a5,0x40021
    2d18:	4fd4                	lw	a3,28(a5)
    2d1a:	400217b7          	lui	a5,0x40021
    2d1e:	fec42703          	lw	a4,-20(s0)
    2d22:	8f55                	or	a4,a4,a3
    2d24:	cfd8                	sw	a4,28(a5)
C:/Users/86158/Desktop/IEECS-Design/Hardware/Reference/CHV307_Library-master/Example/libraries/sdk/Peripheral/ch32v30x_rcc.c:677
  }
  else
  {
    RCC->APB1PCENR &= ~RCC_APB1Periph;
  }
}
    2d26:	a821                	j	2d3e <RCC_APB1PeriphClockCmd+0x3e>
C:/Users/86158/Desktop/IEECS-Design/Hardware/Reference/CHV307_Library-master/Example/libraries/sdk/Peripheral/ch32v30x_rcc.c:675
    RCC->APB1PCENR &= ~RCC_APB1Periph;
    2d28:	400217b7          	lui	a5,0x40021
    2d2c:	4fd4                	lw	a3,28(a5)
    2d2e:	fec42783          	lw	a5,-20(s0)
    2d32:	fff7c713          	not	a4,a5
    2d36:	400217b7          	lui	a5,0x40021
    2d3a:	8f75                	and	a4,a4,a3
    2d3c:	cfd8                	sw	a4,28(a5)
C:/Users/86158/Desktop/IEECS-Design/Hardware/Reference/CHV307_Library-master/Example/libraries/sdk/Peripheral/ch32v30x_rcc.c:677
}
    2d3e:	0001                	nop
    2d40:	4472                	lw	s0,28(sp)
    2d42:	6105                	addi	sp,sp,32
    2d44:	8082                	ret

00002d46 <TIM_TimeBaseInit>:
TIM_TimeBaseInit():
C:/Users/86158/Desktop/IEECS-Design/Hardware/Reference/CHV307_Library-master/Example/libraries/sdk/Peripheral/ch32v30x_tim.c:97
*                  TIM_TimeBaseInitStruct: pointer to a TIM_TimeBaseInitTypeDef
*      structure.
* Return         : None
*******************************************************************************/
void TIM_TimeBaseInit(TIM_TypeDef* TIMx, TIM_TimeBaseInitTypeDef* TIM_TimeBaseInitStruct)
{
    2d46:	7179                	addi	sp,sp,-48
    2d48:	d622                	sw	s0,44(sp)
    2d4a:	1800                	addi	s0,sp,48
    2d4c:	fca42e23          	sw	a0,-36(s0)
    2d50:	fcb42c23          	sw	a1,-40(s0)
C:/Users/86158/Desktop/IEECS-Design/Hardware/Reference/CHV307_Library-master/Example/libraries/sdk/Peripheral/ch32v30x_tim.c:98
  uint16_t tmpcr1 = 0;
    2d54:	fe041723          	sh	zero,-18(s0)
C:/Users/86158/Desktop/IEECS-Design/Hardware/Reference/CHV307_Library-master/Example/libraries/sdk/Peripheral/ch32v30x_tim.c:100

  tmpcr1 = TIMx->CTLR1;  
    2d58:	fdc42783          	lw	a5,-36(s0)
    2d5c:	0007d783          	lhu	a5,0(a5) # 40021000 <_eusrstack+0x20011000>
    2d60:	fef41723          	sh	a5,-18(s0)
C:/Users/86158/Desktop/IEECS-Design/Hardware/Reference/CHV307_Library-master/Example/libraries/sdk/Peripheral/ch32v30x_tim.c:102

  if((TIMx == TIM1) || (TIMx == TIM2) || (TIMx == TIM3)|| (TIMx == TIM4) ||
    2d64:	fdc42703          	lw	a4,-36(s0)
    2d68:	400137b7          	lui	a5,0x40013
    2d6c:	c0078793          	addi	a5,a5,-1024 # 40012c00 <_eusrstack+0x20002c00>
    2d70:	06f70663          	beq	a4,a5,2ddc <TIM_TimeBaseInit+0x96>
C:/Users/86158/Desktop/IEECS-Design/Hardware/Reference/CHV307_Library-master/Example/libraries/sdk/Peripheral/ch32v30x_tim.c:102 (discriminator 1)
    2d74:	fdc42703          	lw	a4,-36(s0)
    2d78:	400007b7          	lui	a5,0x40000
    2d7c:	06f70063          	beq	a4,a5,2ddc <TIM_TimeBaseInit+0x96>
C:/Users/86158/Desktop/IEECS-Design/Hardware/Reference/CHV307_Library-master/Example/libraries/sdk/Peripheral/ch32v30x_tim.c:102 (discriminator 2)
    2d80:	fdc42703          	lw	a4,-36(s0)
    2d84:	400007b7          	lui	a5,0x40000
    2d88:	40078793          	addi	a5,a5,1024 # 40000400 <_eusrstack+0x1fff0400>
    2d8c:	04f70863          	beq	a4,a5,2ddc <TIM_TimeBaseInit+0x96>
C:/Users/86158/Desktop/IEECS-Design/Hardware/Reference/CHV307_Library-master/Example/libraries/sdk/Peripheral/ch32v30x_tim.c:102 (discriminator 3)
    2d90:	fdc42703          	lw	a4,-36(s0)
    2d94:	400017b7          	lui	a5,0x40001
    2d98:	80078793          	addi	a5,a5,-2048 # 40000800 <_eusrstack+0x1fff0800>
    2d9c:	04f70063          	beq	a4,a5,2ddc <TIM_TimeBaseInit+0x96>
C:/Users/86158/Desktop/IEECS-Design/Hardware/Reference/CHV307_Library-master/Example/libraries/sdk/Peripheral/ch32v30x_tim.c:102 (discriminator 4)
    2da0:	fdc42703          	lw	a4,-36(s0)
    2da4:	400017b7          	lui	a5,0x40001
    2da8:	c0078793          	addi	a5,a5,-1024 # 40000c00 <_eusrstack+0x1fff0c00>
    2dac:	02f70863          	beq	a4,a5,2ddc <TIM_TimeBaseInit+0x96>
C:/Users/86158/Desktop/IEECS-Design/Hardware/Reference/CHV307_Library-master/Example/libraries/sdk/Peripheral/ch32v30x_tim.c:103
     (TIMx == TIM5) || (TIMx == TIM8) || (TIMx == TIM9)|| (TIMx == TIM10))
    2db0:	fdc42703          	lw	a4,-36(s0)
    2db4:	400137b7          	lui	a5,0x40013
    2db8:	40078793          	addi	a5,a5,1024 # 40013400 <_eusrstack+0x20003400>
    2dbc:	02f70063          	beq	a4,a5,2ddc <TIM_TimeBaseInit+0x96>
C:/Users/86158/Desktop/IEECS-Design/Hardware/Reference/CHV307_Library-master/Example/libraries/sdk/Peripheral/ch32v30x_tim.c:103 (discriminator 1)
    2dc0:	fdc42703          	lw	a4,-36(s0)
    2dc4:	400157b7          	lui	a5,0x40015
    2dc8:	c0078793          	addi	a5,a5,-1024 # 40014c00 <_eusrstack+0x20004c00>
    2dcc:	00f70863          	beq	a4,a5,2ddc <TIM_TimeBaseInit+0x96>
C:/Users/86158/Desktop/IEECS-Design/Hardware/Reference/CHV307_Library-master/Example/libraries/sdk/Peripheral/ch32v30x_tim.c:103 (discriminator 2)
    2dd0:	fdc42703          	lw	a4,-36(s0)
    2dd4:	400157b7          	lui	a5,0x40015
    2dd8:	02f71163          	bne	a4,a5,2dfa <TIM_TimeBaseInit+0xb4>
C:/Users/86158/Desktop/IEECS-Design/Hardware/Reference/CHV307_Library-master/Example/libraries/sdk/Peripheral/ch32v30x_tim.c:105
  {
    tmpcr1 &= (uint16_t)(~((uint16_t)(TIM_DIR | TIM_CMS)));
    2ddc:	fee45783          	lhu	a5,-18(s0)
    2de0:	f8f7f793          	andi	a5,a5,-113
    2de4:	fef41723          	sh	a5,-18(s0)
C:/Users/86158/Desktop/IEECS-Design/Hardware/Reference/CHV307_Library-master/Example/libraries/sdk/Peripheral/ch32v30x_tim.c:106
    tmpcr1 |= (uint32_t)TIM_TimeBaseInitStruct->TIM_CounterMode;
    2de8:	fd842783          	lw	a5,-40(s0)
    2dec:	0027d703          	lhu	a4,2(a5) # 40015002 <_eusrstack+0x20005002>
    2df0:	fee45783          	lhu	a5,-18(s0)
    2df4:	8fd9                	or	a5,a5,a4
    2df6:	fef41723          	sh	a5,-18(s0)
C:/Users/86158/Desktop/IEECS-Design/Hardware/Reference/CHV307_Library-master/Example/libraries/sdk/Peripheral/ch32v30x_tim.c:109
  }

  if((TIMx != TIM6) && (TIMx != TIM7))
    2dfa:	fdc42703          	lw	a4,-36(s0)
    2dfe:	400017b7          	lui	a5,0x40001
    2e02:	02f70963          	beq	a4,a5,2e34 <TIM_TimeBaseInit+0xee>
C:/Users/86158/Desktop/IEECS-Design/Hardware/Reference/CHV307_Library-master/Example/libraries/sdk/Peripheral/ch32v30x_tim.c:109 (discriminator 1)
    2e06:	fdc42703          	lw	a4,-36(s0)
    2e0a:	400017b7          	lui	a5,0x40001
    2e0e:	40078793          	addi	a5,a5,1024 # 40001400 <_eusrstack+0x1fff1400>
    2e12:	02f70163          	beq	a4,a5,2e34 <TIM_TimeBaseInit+0xee>
C:/Users/86158/Desktop/IEECS-Design/Hardware/Reference/CHV307_Library-master/Example/libraries/sdk/Peripheral/ch32v30x_tim.c:111
  {
    tmpcr1 &= (uint16_t)(~((uint16_t)TIM_CTLR1_CKD));
    2e16:	fee45783          	lhu	a5,-18(s0)
    2e1a:	cff7f793          	andi	a5,a5,-769
    2e1e:	fef41723          	sh	a5,-18(s0)
C:/Users/86158/Desktop/IEECS-Design/Hardware/Reference/CHV307_Library-master/Example/libraries/sdk/Peripheral/ch32v30x_tim.c:112
    tmpcr1 |= (uint32_t)TIM_TimeBaseInitStruct->TIM_ClockDivision;
    2e22:	fd842783          	lw	a5,-40(s0)
    2e26:	0067d703          	lhu	a4,6(a5)
    2e2a:	fee45783          	lhu	a5,-18(s0)
    2e2e:	8fd9                	or	a5,a5,a4
    2e30:	fef41723          	sh	a5,-18(s0)
C:/Users/86158/Desktop/IEECS-Design/Hardware/Reference/CHV307_Library-master/Example/libraries/sdk/Peripheral/ch32v30x_tim.c:115
  }

  TIMx->CTLR1 = tmpcr1;
    2e34:	fdc42783          	lw	a5,-36(s0)
    2e38:	fee45703          	lhu	a4,-18(s0)
    2e3c:	00e79023          	sh	a4,0(a5)
C:/Users/86158/Desktop/IEECS-Design/Hardware/Reference/CHV307_Library-master/Example/libraries/sdk/Peripheral/ch32v30x_tim.c:116
  TIMx->ATRLR = TIM_TimeBaseInitStruct->TIM_Period ;
    2e40:	fd842783          	lw	a5,-40(s0)
    2e44:	0047d703          	lhu	a4,4(a5)
    2e48:	fdc42783          	lw	a5,-36(s0)
    2e4c:	02e79623          	sh	a4,44(a5)
C:/Users/86158/Desktop/IEECS-Design/Hardware/Reference/CHV307_Library-master/Example/libraries/sdk/Peripheral/ch32v30x_tim.c:117
  TIMx->PSC = TIM_TimeBaseInitStruct->TIM_Prescaler;
    2e50:	fd842783          	lw	a5,-40(s0)
    2e54:	0007d703          	lhu	a4,0(a5)
    2e58:	fdc42783          	lw	a5,-36(s0)
    2e5c:	02e79423          	sh	a4,40(a5)
C:/Users/86158/Desktop/IEECS-Design/Hardware/Reference/CHV307_Library-master/Example/libraries/sdk/Peripheral/ch32v30x_tim.c:119
    
  if ((TIMx == TIM1) || (TIMx == TIM8) || (TIMx == TIM9)|| (TIMx == TIM10))
    2e60:	fdc42703          	lw	a4,-36(s0)
    2e64:	400137b7          	lui	a5,0x40013
    2e68:	c0078793          	addi	a5,a5,-1024 # 40012c00 <_eusrstack+0x20002c00>
    2e6c:	02f70863          	beq	a4,a5,2e9c <TIM_TimeBaseInit+0x156>
C:/Users/86158/Desktop/IEECS-Design/Hardware/Reference/CHV307_Library-master/Example/libraries/sdk/Peripheral/ch32v30x_tim.c:119 (discriminator 1)
    2e70:	fdc42703          	lw	a4,-36(s0)
    2e74:	400137b7          	lui	a5,0x40013
    2e78:	40078793          	addi	a5,a5,1024 # 40013400 <_eusrstack+0x20003400>
    2e7c:	02f70063          	beq	a4,a5,2e9c <TIM_TimeBaseInit+0x156>
C:/Users/86158/Desktop/IEECS-Design/Hardware/Reference/CHV307_Library-master/Example/libraries/sdk/Peripheral/ch32v30x_tim.c:119 (discriminator 2)
    2e80:	fdc42703          	lw	a4,-36(s0)
    2e84:	400157b7          	lui	a5,0x40015
    2e88:	c0078793          	addi	a5,a5,-1024 # 40014c00 <_eusrstack+0x20004c00>
    2e8c:	00f70863          	beq	a4,a5,2e9c <TIM_TimeBaseInit+0x156>
C:/Users/86158/Desktop/IEECS-Design/Hardware/Reference/CHV307_Library-master/Example/libraries/sdk/Peripheral/ch32v30x_tim.c:119 (discriminator 3)
    2e90:	fdc42703          	lw	a4,-36(s0)
    2e94:	400157b7          	lui	a5,0x40015
    2e98:	00f71d63          	bne	a4,a5,2eb2 <TIM_TimeBaseInit+0x16c>
C:/Users/86158/Desktop/IEECS-Design/Hardware/Reference/CHV307_Library-master/Example/libraries/sdk/Peripheral/ch32v30x_tim.c:121
  {
    TIMx->RPTCR = TIM_TimeBaseInitStruct->TIM_RepetitionCounter;
    2e9c:	fd842783          	lw	a5,-40(s0)
    2ea0:	0087c783          	lbu	a5,8(a5) # 40015008 <_eusrstack+0x20005008>
    2ea4:	01079713          	slli	a4,a5,0x10
    2ea8:	8341                	srli	a4,a4,0x10
    2eaa:	fdc42783          	lw	a5,-36(s0)
    2eae:	02e79823          	sh	a4,48(a5)
C:/Users/86158/Desktop/IEECS-Design/Hardware/Reference/CHV307_Library-master/Example/libraries/sdk/Peripheral/ch32v30x_tim.c:124
  }

  TIMx->SWEVGR = TIM_PSCReloadMode_Immediate;           
    2eb2:	fdc42783          	lw	a5,-36(s0)
    2eb6:	4705                	li	a4,1
    2eb8:	00e79a23          	sh	a4,20(a5)
C:/Users/86158/Desktop/IEECS-Design/Hardware/Reference/CHV307_Library-master/Example/libraries/sdk/Peripheral/ch32v30x_tim.c:125
}
    2ebc:	0001                	nop
    2ebe:	5432                	lw	s0,44(sp)
    2ec0:	6145                	addi	sp,sp,48
    2ec2:	8082                	ret

00002ec4 <TIM_TimeBaseStructInit>:
TIM_TimeBaseStructInit():
C:/Users/86158/Desktop/IEECS-Design/Hardware/Reference/CHV307_Library-master/Example/libraries/sdk/Peripheral/ch32v30x_tim.c:401
* Description    : Fills each TIM_TimeBaseInitStruct member with its default value.
* Input          : TIM_TimeBaseInitStruct : pointer to a TIM_TimeBaseInitTypeDef structure.                 
* Return         : None
*******************************************************************************/
void TIM_TimeBaseStructInit(TIM_TimeBaseInitTypeDef* TIM_TimeBaseInitStruct)
{
    2ec4:	1101                	addi	sp,sp,-32
    2ec6:	ce22                	sw	s0,28(sp)
    2ec8:	1000                	addi	s0,sp,32
    2eca:	fea42623          	sw	a0,-20(s0)
C:/Users/86158/Desktop/IEECS-Design/Hardware/Reference/CHV307_Library-master/Example/libraries/sdk/Peripheral/ch32v30x_tim.c:402
  TIM_TimeBaseInitStruct->TIM_Period = 0xFFFF;
    2ece:	fec42783          	lw	a5,-20(s0)
    2ed2:	577d                	li	a4,-1
    2ed4:	00e79223          	sh	a4,4(a5)
C:/Users/86158/Desktop/IEECS-Design/Hardware/Reference/CHV307_Library-master/Example/libraries/sdk/Peripheral/ch32v30x_tim.c:403
  TIM_TimeBaseInitStruct->TIM_Prescaler = 0x0000;
    2ed8:	fec42783          	lw	a5,-20(s0)
    2edc:	00079023          	sh	zero,0(a5)
C:/Users/86158/Desktop/IEECS-Design/Hardware/Reference/CHV307_Library-master/Example/libraries/sdk/Peripheral/ch32v30x_tim.c:404
  TIM_TimeBaseInitStruct->TIM_ClockDivision = TIM_CKD_DIV1;
    2ee0:	fec42783          	lw	a5,-20(s0)
    2ee4:	00079323          	sh	zero,6(a5)
C:/Users/86158/Desktop/IEECS-Design/Hardware/Reference/CHV307_Library-master/Example/libraries/sdk/Peripheral/ch32v30x_tim.c:405
  TIM_TimeBaseInitStruct->TIM_CounterMode = TIM_CounterMode_Up;
    2ee8:	fec42783          	lw	a5,-20(s0)
    2eec:	00079123          	sh	zero,2(a5)
C:/Users/86158/Desktop/IEECS-Design/Hardware/Reference/CHV307_Library-master/Example/libraries/sdk/Peripheral/ch32v30x_tim.c:406
  TIM_TimeBaseInitStruct->TIM_RepetitionCounter = 0x0000;
    2ef0:	fec42783          	lw	a5,-20(s0)
    2ef4:	00078423          	sb	zero,8(a5)
C:/Users/86158/Desktop/IEECS-Design/Hardware/Reference/CHV307_Library-master/Example/libraries/sdk/Peripheral/ch32v30x_tim.c:407
}
    2ef8:	0001                	nop
    2efa:	4472                	lw	s0,28(sp)
    2efc:	6105                	addi	sp,sp,32
    2efe:	8082                	ret

00002f00 <TIM_Cmd>:
TIM_Cmd():
C:/Users/86158/Desktop/IEECS-Design/Hardware/Reference/CHV307_Library-master/Example/libraries/sdk/Peripheral/ch32v30x_tim.c:467
* Input          : TIMx: where x can be 1 to 4 to select the TIM peripheral.
*                  NewState: ENABLE or DISABLE.
* Return         : None
*******************************************************************************/
void TIM_Cmd(TIM_TypeDef* TIMx, FunctionalState NewState)
{ 
    2f00:	1101                	addi	sp,sp,-32
    2f02:	ce22                	sw	s0,28(sp)
    2f04:	1000                	addi	s0,sp,32
    2f06:	fea42623          	sw	a0,-20(s0)
    2f0a:	feb42423          	sw	a1,-24(s0)
C:/Users/86158/Desktop/IEECS-Design/Hardware/Reference/CHV307_Library-master/Example/libraries/sdk/Peripheral/ch32v30x_tim.c:468
  if (NewState != DISABLE)
    2f0e:	fe842783          	lw	a5,-24(s0)
    2f12:	c38d                	beqz	a5,2f34 <TIM_Cmd+0x34>
C:/Users/86158/Desktop/IEECS-Design/Hardware/Reference/CHV307_Library-master/Example/libraries/sdk/Peripheral/ch32v30x_tim.c:470
  {
    TIMx->CTLR1 |= TIM_CEN;
    2f14:	fec42783          	lw	a5,-20(s0)
    2f18:	0007d783          	lhu	a5,0(a5)
    2f1c:	07c2                	slli	a5,a5,0x10
    2f1e:	83c1                	srli	a5,a5,0x10
    2f20:	0017e793          	ori	a5,a5,1
    2f24:	01079713          	slli	a4,a5,0x10
    2f28:	8341                	srli	a4,a4,0x10
    2f2a:	fec42783          	lw	a5,-20(s0)
    2f2e:	00e79023          	sh	a4,0(a5)
C:/Users/86158/Desktop/IEECS-Design/Hardware/Reference/CHV307_Library-master/Example/libraries/sdk/Peripheral/ch32v30x_tim.c:476
  }
  else
  {
    TIMx->CTLR1 &= (uint16_t)(~((uint16_t)TIM_CEN));
  }
}
    2f32:	a839                	j	2f50 <TIM_Cmd+0x50>
C:/Users/86158/Desktop/IEECS-Design/Hardware/Reference/CHV307_Library-master/Example/libraries/sdk/Peripheral/ch32v30x_tim.c:474
    TIMx->CTLR1 &= (uint16_t)(~((uint16_t)TIM_CEN));
    2f34:	fec42783          	lw	a5,-20(s0)
    2f38:	0007d783          	lhu	a5,0(a5)
    2f3c:	07c2                	slli	a5,a5,0x10
    2f3e:	83c1                	srli	a5,a5,0x10
    2f40:	9bf9                	andi	a5,a5,-2
    2f42:	01079713          	slli	a4,a5,0x10
    2f46:	8341                	srli	a4,a4,0x10
    2f48:	fec42783          	lw	a5,-20(s0)
    2f4c:	00e79023          	sh	a4,0(a5)
C:/Users/86158/Desktop/IEECS-Design/Hardware/Reference/CHV307_Library-master/Example/libraries/sdk/Peripheral/ch32v30x_tim.c:476
}
    2f50:	0001                	nop
    2f52:	4472                	lw	s0,28(sp)
    2f54:	6105                	addi	sp,sp,32
    2f56:	8082                	ret

00002f58 <TIM_ITRxExternalClockConfig>:
TIM_ITRxExternalClockConfig():
C:/Users/86158/Desktop/IEECS-Design/Hardware/Reference/CHV307_Library-master/Example/libraries/sdk/Peripheral/ch32v30x_tim.c:627
*                    TIM_TS_ITR2: Internal Trigger 2.
*                    TIM_TS_ITR3: Internal Trigger 3.
* Return         : None
*******************************************************************************/
void TIM_ITRxExternalClockConfig(TIM_TypeDef* TIMx, uint16_t TIM_InputTriggerSource)
{
    2f58:	1101                	addi	sp,sp,-32
    2f5a:	ce06                	sw	ra,28(sp)
    2f5c:	cc22                	sw	s0,24(sp)
    2f5e:	1000                	addi	s0,sp,32
    2f60:	fea42623          	sw	a0,-20(s0)
    2f64:	87ae                	mv	a5,a1
    2f66:	fef41523          	sh	a5,-22(s0)
C:/Users/86158/Desktop/IEECS-Design/Hardware/Reference/CHV307_Library-master/Example/libraries/sdk/Peripheral/ch32v30x_tim.c:628
  TIM_SelectInputTrigger(TIMx, TIM_InputTriggerSource);
    2f6a:	fea45783          	lhu	a5,-22(s0)
    2f6e:	85be                	mv	a1,a5
    2f70:	fec42503          	lw	a0,-20(s0)
    2f74:	202d                	jal	2f9e <TIM_SelectInputTrigger>
C:/Users/86158/Desktop/IEECS-Design/Hardware/Reference/CHV307_Library-master/Example/libraries/sdk/Peripheral/ch32v30x_tim.c:629
  TIMx->SMCFGR |= TIM_SlaveMode_External1;
    2f76:	fec42783          	lw	a5,-20(s0)
    2f7a:	0087d783          	lhu	a5,8(a5)
    2f7e:	07c2                	slli	a5,a5,0x10
    2f80:	83c1                	srli	a5,a5,0x10
    2f82:	0077e793          	ori	a5,a5,7
    2f86:	01079713          	slli	a4,a5,0x10
    2f8a:	8341                	srli	a4,a4,0x10
    2f8c:	fec42783          	lw	a5,-20(s0)
    2f90:	00e79423          	sh	a4,8(a5)
C:/Users/86158/Desktop/IEECS-Design/Hardware/Reference/CHV307_Library-master/Example/libraries/sdk/Peripheral/ch32v30x_tim.c:630
}
    2f94:	0001                	nop
    2f96:	40f2                	lw	ra,28(sp)
    2f98:	4462                	lw	s0,24(sp)
    2f9a:	6105                	addi	sp,sp,32
    2f9c:	8082                	ret

00002f9e <TIM_SelectInputTrigger>:
TIM_SelectInputTrigger():
C:/Users/86158/Desktop/IEECS-Design/Hardware/Reference/CHV307_Library-master/Example/libraries/sdk/Peripheral/ch32v30x_tim.c:800
*                    TIM_TS_TI2FP2: Filtered Timer Input 2.
*                    TIM_TS_ETRF: External Trigger input.
* Return         : None
*******************************************************************************/
void TIM_SelectInputTrigger(TIM_TypeDef* TIMx, uint16_t TIM_InputTriggerSource)
{
    2f9e:	7179                	addi	sp,sp,-48
    2fa0:	d622                	sw	s0,44(sp)
    2fa2:	1800                	addi	s0,sp,48
    2fa4:	fca42e23          	sw	a0,-36(s0)
    2fa8:	87ae                	mv	a5,a1
    2faa:	fcf41d23          	sh	a5,-38(s0)
C:/Users/86158/Desktop/IEECS-Design/Hardware/Reference/CHV307_Library-master/Example/libraries/sdk/Peripheral/ch32v30x_tim.c:801
  uint16_t tmpsmcr = 0;
    2fae:	fe041723          	sh	zero,-18(s0)
C:/Users/86158/Desktop/IEECS-Design/Hardware/Reference/CHV307_Library-master/Example/libraries/sdk/Peripheral/ch32v30x_tim.c:803

  tmpsmcr = TIMx->SMCFGR;
    2fb2:	fdc42783          	lw	a5,-36(s0)
    2fb6:	0087d783          	lhu	a5,8(a5)
    2fba:	fef41723          	sh	a5,-18(s0)
C:/Users/86158/Desktop/IEECS-Design/Hardware/Reference/CHV307_Library-master/Example/libraries/sdk/Peripheral/ch32v30x_tim.c:804
  tmpsmcr &= (uint16_t)(~((uint16_t)TIM_TS));
    2fbe:	fee45783          	lhu	a5,-18(s0)
    2fc2:	f8f7f793          	andi	a5,a5,-113
    2fc6:	fef41723          	sh	a5,-18(s0)
C:/Users/86158/Desktop/IEECS-Design/Hardware/Reference/CHV307_Library-master/Example/libraries/sdk/Peripheral/ch32v30x_tim.c:805
  tmpsmcr |= TIM_InputTriggerSource;
    2fca:	fee45703          	lhu	a4,-18(s0)
    2fce:	fda45783          	lhu	a5,-38(s0)
    2fd2:	8fd9                	or	a5,a5,a4
    2fd4:	fef41723          	sh	a5,-18(s0)
C:/Users/86158/Desktop/IEECS-Design/Hardware/Reference/CHV307_Library-master/Example/libraries/sdk/Peripheral/ch32v30x_tim.c:806
  TIMx->SMCFGR = tmpsmcr;
    2fd8:	fdc42783          	lw	a5,-36(s0)
    2fdc:	fee45703          	lhu	a4,-18(s0)
    2fe0:	00e79423          	sh	a4,8(a5)
C:/Users/86158/Desktop/IEECS-Design/Hardware/Reference/CHV307_Library-master/Example/libraries/sdk/Peripheral/ch32v30x_tim.c:807
}
    2fe4:	0001                	nop
    2fe6:	5432                	lw	s0,44(sp)
    2fe8:	6145                	addi	sp,sp,48
    2fea:	8082                	ret

00002fec <TIM_EncoderInterfaceConfig>:
TIM_EncoderInterfaceConfig():
C:/Users/86158/Desktop/IEECS-Design/Hardware/Reference/CHV307_Library-master/Example/libraries/sdk/Peripheral/ch32v30x_tim.c:830
*                    TIM_ICPolarity_Rising: IC Rising edge.
* Return         : None
*******************************************************************************/
void TIM_EncoderInterfaceConfig(TIM_TypeDef* TIMx, uint16_t TIM_EncoderMode,
                                uint16_t TIM_IC1Polarity, uint16_t TIM_IC2Polarity)
{
    2fec:	7179                	addi	sp,sp,-48
    2fee:	d622                	sw	s0,44(sp)
    2ff0:	1800                	addi	s0,sp,48
    2ff2:	fca42e23          	sw	a0,-36(s0)
    2ff6:	87ae                	mv	a5,a1
    2ff8:	8736                	mv	a4,a3
    2ffa:	fcf41d23          	sh	a5,-38(s0)
    2ffe:	87b2                	mv	a5,a2
    3000:	fcf41c23          	sh	a5,-40(s0)
    3004:	87ba                	mv	a5,a4
    3006:	fcf41b23          	sh	a5,-42(s0)
C:/Users/86158/Desktop/IEECS-Design/Hardware/Reference/CHV307_Library-master/Example/libraries/sdk/Peripheral/ch32v30x_tim.c:831
  uint16_t tmpsmcr = 0;
    300a:	fe041723          	sh	zero,-18(s0)
C:/Users/86158/Desktop/IEECS-Design/Hardware/Reference/CHV307_Library-master/Example/libraries/sdk/Peripheral/ch32v30x_tim.c:832
  uint16_t tmpccmr1 = 0;
    300e:	fe041623          	sh	zero,-20(s0)
C:/Users/86158/Desktop/IEECS-Design/Hardware/Reference/CHV307_Library-master/Example/libraries/sdk/Peripheral/ch32v30x_tim.c:833
  uint16_t tmpccer = 0;
    3012:	fe041523          	sh	zero,-22(s0)
C:/Users/86158/Desktop/IEECS-Design/Hardware/Reference/CHV307_Library-master/Example/libraries/sdk/Peripheral/ch32v30x_tim.c:835
    
  tmpsmcr = TIMx->SMCFGR;
    3016:	fdc42783          	lw	a5,-36(s0)
    301a:	0087d783          	lhu	a5,8(a5)
    301e:	fef41723          	sh	a5,-18(s0)
C:/Users/86158/Desktop/IEECS-Design/Hardware/Reference/CHV307_Library-master/Example/libraries/sdk/Peripheral/ch32v30x_tim.c:836
  tmpccmr1 = TIMx->CHCTLR1;
    3022:	fdc42783          	lw	a5,-36(s0)
    3026:	0187d783          	lhu	a5,24(a5)
    302a:	fef41623          	sh	a5,-20(s0)
C:/Users/86158/Desktop/IEECS-Design/Hardware/Reference/CHV307_Library-master/Example/libraries/sdk/Peripheral/ch32v30x_tim.c:837
  tmpccer = TIMx->CCER;
    302e:	fdc42783          	lw	a5,-36(s0)
    3032:	0207d783          	lhu	a5,32(a5)
    3036:	fef41523          	sh	a5,-22(s0)
C:/Users/86158/Desktop/IEECS-Design/Hardware/Reference/CHV307_Library-master/Example/libraries/sdk/Peripheral/ch32v30x_tim.c:838
  tmpsmcr &= (uint16_t)(~((uint16_t)TIM_SMS));
    303a:	fee45783          	lhu	a5,-18(s0)
    303e:	9be1                	andi	a5,a5,-8
    3040:	fef41723          	sh	a5,-18(s0)
C:/Users/86158/Desktop/IEECS-Design/Hardware/Reference/CHV307_Library-master/Example/libraries/sdk/Peripheral/ch32v30x_tim.c:839
  tmpsmcr |= TIM_EncoderMode;
    3044:	fee45703          	lhu	a4,-18(s0)
    3048:	fda45783          	lhu	a5,-38(s0)
    304c:	8fd9                	or	a5,a5,a4
    304e:	fef41723          	sh	a5,-18(s0)
C:/Users/86158/Desktop/IEECS-Design/Hardware/Reference/CHV307_Library-master/Example/libraries/sdk/Peripheral/ch32v30x_tim.c:840
  tmpccmr1 &= (uint16_t)(((uint16_t)~((uint16_t)TIM_CC1S)) & (uint16_t)(~((uint16_t)TIM_CC2S)));
    3052:	fec45783          	lhu	a5,-20(s0)
    3056:	cfc7f793          	andi	a5,a5,-772
    305a:	fef41623          	sh	a5,-20(s0)
C:/Users/86158/Desktop/IEECS-Design/Hardware/Reference/CHV307_Library-master/Example/libraries/sdk/Peripheral/ch32v30x_tim.c:841
  tmpccmr1 |= TIM_CC1S_0 | TIM_CC2S_0;
    305e:	fec45783          	lhu	a5,-20(s0)
    3062:	1017e793          	ori	a5,a5,257
    3066:	fef41623          	sh	a5,-20(s0)
C:/Users/86158/Desktop/IEECS-Design/Hardware/Reference/CHV307_Library-master/Example/libraries/sdk/Peripheral/ch32v30x_tim.c:842
  tmpccer &= (uint16_t)(((uint16_t)~((uint16_t)TIM_CC1P)) & ((uint16_t)~((uint16_t)TIM_CC2P)));
    306a:	fea45783          	lhu	a5,-22(s0)
    306e:	fdd7f793          	andi	a5,a5,-35
    3072:	fef41523          	sh	a5,-22(s0)
C:/Users/86158/Desktop/IEECS-Design/Hardware/Reference/CHV307_Library-master/Example/libraries/sdk/Peripheral/ch32v30x_tim.c:843
  tmpccer |= (uint16_t)(TIM_IC1Polarity | (uint16_t)(TIM_IC2Polarity << (uint16_t)4)); 
    3076:	fd645783          	lhu	a5,-42(s0)
    307a:	0792                	slli	a5,a5,0x4
    307c:	01079713          	slli	a4,a5,0x10
    3080:	8341                	srli	a4,a4,0x10
    3082:	fd845783          	lhu	a5,-40(s0)
    3086:	8fd9                	or	a5,a5,a4
    3088:	01079713          	slli	a4,a5,0x10
    308c:	8341                	srli	a4,a4,0x10
    308e:	fea45783          	lhu	a5,-22(s0)
    3092:	8fd9                	or	a5,a5,a4
    3094:	fef41523          	sh	a5,-22(s0)
C:/Users/86158/Desktop/IEECS-Design/Hardware/Reference/CHV307_Library-master/Example/libraries/sdk/Peripheral/ch32v30x_tim.c:844
  TIMx->SMCFGR = tmpsmcr;
    3098:	fdc42783          	lw	a5,-36(s0)
    309c:	fee45703          	lhu	a4,-18(s0)
    30a0:	00e79423          	sh	a4,8(a5)
C:/Users/86158/Desktop/IEECS-Design/Hardware/Reference/CHV307_Library-master/Example/libraries/sdk/Peripheral/ch32v30x_tim.c:845
  TIMx->CHCTLR1 = tmpccmr1;
    30a4:	fdc42783          	lw	a5,-36(s0)
    30a8:	fec45703          	lhu	a4,-20(s0)
    30ac:	00e79c23          	sh	a4,24(a5)
C:/Users/86158/Desktop/IEECS-Design/Hardware/Reference/CHV307_Library-master/Example/libraries/sdk/Peripheral/ch32v30x_tim.c:846
  TIMx->CCER = tmpccer;
    30b0:	fdc42783          	lw	a5,-36(s0)
    30b4:	fea45703          	lhu	a4,-22(s0)
    30b8:	02e79023          	sh	a4,32(a5)
C:/Users/86158/Desktop/IEECS-Design/Hardware/Reference/CHV307_Library-master/Example/libraries/sdk/Peripheral/ch32v30x_tim.c:847
}
    30bc:	0001                	nop
    30be:	5432                	lw	s0,44(sp)
    30c0:	6145                	addi	sp,sp,48
    30c2:	8082                	ret

000030c4 <TIM_GetITStatus>:
TIM_GetITStatus():
C:/Users/86158/Desktop/IEECS-Design/Hardware/Reference/CHV307_Library-master/Example/libraries/sdk/Peripheral/ch32v30x_tim.c:1887
*                    TIM_IT_Trigger: TIM Trigger Interrupt source.
*                    TIM_IT_Break: TIM Break Interrupt source.
* Return         : bitstatus: SET or RESET.
*******************************************************************************/
ITStatus TIM_GetITStatus(TIM_TypeDef* TIMx, uint16_t TIM_IT)
{
    30c4:	7179                	addi	sp,sp,-48
    30c6:	d622                	sw	s0,44(sp)
    30c8:	1800                	addi	s0,sp,48
    30ca:	fca42e23          	sw	a0,-36(s0)
    30ce:	87ae                	mv	a5,a1
    30d0:	fcf41d23          	sh	a5,-38(s0)
C:/Users/86158/Desktop/IEECS-Design/Hardware/Reference/CHV307_Library-master/Example/libraries/sdk/Peripheral/ch32v30x_tim.c:1888
  ITStatus bitstatus = RESET;  
    30d4:	fe042623          	sw	zero,-20(s0)
C:/Users/86158/Desktop/IEECS-Design/Hardware/Reference/CHV307_Library-master/Example/libraries/sdk/Peripheral/ch32v30x_tim.c:1889
  uint16_t itstatus = 0x0, itenable = 0x0;
    30d8:	fe041523          	sh	zero,-22(s0)
    30dc:	fe041423          	sh	zero,-24(s0)
C:/Users/86158/Desktop/IEECS-Design/Hardware/Reference/CHV307_Library-master/Example/libraries/sdk/Peripheral/ch32v30x_tim.c:1891
   
  itstatus = TIMx->INTFR & TIM_IT;
    30e0:	fdc42783          	lw	a5,-36(s0)
    30e4:	0107d783          	lhu	a5,16(a5)
    30e8:	01079713          	slli	a4,a5,0x10
    30ec:	8341                	srli	a4,a4,0x10
    30ee:	fda45783          	lhu	a5,-38(s0)
    30f2:	8ff9                	and	a5,a5,a4
    30f4:	fef41523          	sh	a5,-22(s0)
C:/Users/86158/Desktop/IEECS-Design/Hardware/Reference/CHV307_Library-master/Example/libraries/sdk/Peripheral/ch32v30x_tim.c:1893
  
  itenable = TIMx->DMAINTENR & TIM_IT;
    30f8:	fdc42783          	lw	a5,-36(s0)
    30fc:	00c7d783          	lhu	a5,12(a5)
    3100:	01079713          	slli	a4,a5,0x10
    3104:	8341                	srli	a4,a4,0x10
    3106:	fda45783          	lhu	a5,-38(s0)
    310a:	8ff9                	and	a5,a5,a4
    310c:	fef41423          	sh	a5,-24(s0)
C:/Users/86158/Desktop/IEECS-Design/Hardware/Reference/CHV307_Library-master/Example/libraries/sdk/Peripheral/ch32v30x_tim.c:1894
  if ((itstatus != (uint16_t)RESET) && (itenable != (uint16_t)RESET))
    3110:	fea45783          	lhu	a5,-22(s0)
    3114:	cb81                	beqz	a5,3124 <TIM_GetITStatus+0x60>
C:/Users/86158/Desktop/IEECS-Design/Hardware/Reference/CHV307_Library-master/Example/libraries/sdk/Peripheral/ch32v30x_tim.c:1894 (discriminator 1)
    3116:	fe845783          	lhu	a5,-24(s0)
    311a:	c789                	beqz	a5,3124 <TIM_GetITStatus+0x60>
C:/Users/86158/Desktop/IEECS-Design/Hardware/Reference/CHV307_Library-master/Example/libraries/sdk/Peripheral/ch32v30x_tim.c:1896
  {
    bitstatus = SET;
    311c:	4785                	li	a5,1
    311e:	fef42623          	sw	a5,-20(s0)
    3122:	a019                	j	3128 <TIM_GetITStatus+0x64>
C:/Users/86158/Desktop/IEECS-Design/Hardware/Reference/CHV307_Library-master/Example/libraries/sdk/Peripheral/ch32v30x_tim.c:1900
  }
  else
  {
    bitstatus = RESET;
    3124:	fe042623          	sw	zero,-20(s0)
C:/Users/86158/Desktop/IEECS-Design/Hardware/Reference/CHV307_Library-master/Example/libraries/sdk/Peripheral/ch32v30x_tim.c:1903
  }
	
  return bitstatus;
    3128:	fec42783          	lw	a5,-20(s0)
C:/Users/86158/Desktop/IEECS-Design/Hardware/Reference/CHV307_Library-master/Example/libraries/sdk/Peripheral/ch32v30x_tim.c:1904
}
    312c:	853e                	mv	a0,a5
    312e:	5432                	lw	s0,44(sp)
    3130:	6145                	addi	sp,sp,48
    3132:	8082                	ret

00003134 <TIM_ClearITPendingBit>:
TIM_ClearITPendingBit():
C:/Users/86158/Desktop/IEECS-Design/Hardware/Reference/CHV307_Library-master/Example/libraries/sdk/Peripheral/ch32v30x_tim.c:1922
*                    TIM_IT_Trigger: TIM Trigger Interrupt source.
*                    TIM_IT_Break: TIM Break Interrupt source.
* Return         : None
*******************************************************************************/
void TIM_ClearITPendingBit(TIM_TypeDef* TIMx, uint16_t TIM_IT)
{
    3134:	1101                	addi	sp,sp,-32
    3136:	ce22                	sw	s0,28(sp)
    3138:	1000                	addi	s0,sp,32
    313a:	fea42623          	sw	a0,-20(s0)
    313e:	87ae                	mv	a5,a1
    3140:	fef41523          	sh	a5,-22(s0)
C:/Users/86158/Desktop/IEECS-Design/Hardware/Reference/CHV307_Library-master/Example/libraries/sdk/Peripheral/ch32v30x_tim.c:1923
  TIMx->INTFR = (uint16_t)~TIM_IT;
    3144:	fea45783          	lhu	a5,-22(s0)
    3148:	fff7c793          	not	a5,a5
    314c:	01079713          	slli	a4,a5,0x10
    3150:	8341                	srli	a4,a4,0x10
    3152:	fec42783          	lw	a5,-20(s0)
    3156:	00e79823          	sh	a4,16(a5)
C:/Users/86158/Desktop/IEECS-Design/Hardware/Reference/CHV307_Library-master/Example/libraries/sdk/Peripheral/ch32v30x_tim.c:1924
}
    315a:	0001                	nop
    315c:	4472                	lw	s0,28(sp)
    315e:	6105                	addi	sp,sp,32
    3160:	8082                	ret

00003162 <USART_Init>:
USART_Init():
C:/Users/86158/Desktop/IEECS-Design/Hardware/Reference/CHV307_Library-master/Example/libraries/sdk/Peripheral/ch32v30x_usart.c:105
*                  USART_InitStruct: pointer to a USART_InitTypeDef structure
*      that contains the configuration information for the specified USART peripheral. 
* Return         : None
*******************************************************************************/
void USART_Init(USART_TypeDef* USARTx, USART_InitTypeDef* USART_InitStruct)
{
    3162:	715d                	addi	sp,sp,-80
    3164:	c686                	sw	ra,76(sp)
    3166:	c4a2                	sw	s0,72(sp)
    3168:	0880                	addi	s0,sp,80
    316a:	faa42e23          	sw	a0,-68(s0)
    316e:	fab42c23          	sw	a1,-72(s0)
C:/Users/86158/Desktop/IEECS-Design/Hardware/Reference/CHV307_Library-master/Example/libraries/sdk/Peripheral/ch32v30x_usart.c:106
  uint32_t tmpreg = 0x00, apbclock = 0x00;
    3172:	fe042623          	sw	zero,-20(s0)
    3176:	fe042423          	sw	zero,-24(s0)
C:/Users/86158/Desktop/IEECS-Design/Hardware/Reference/CHV307_Library-master/Example/libraries/sdk/Peripheral/ch32v30x_usart.c:107
  uint32_t integerdivider = 0x00;
    317a:	fe042223          	sw	zero,-28(s0)
C:/Users/86158/Desktop/IEECS-Design/Hardware/Reference/CHV307_Library-master/Example/libraries/sdk/Peripheral/ch32v30x_usart.c:108
  uint32_t fractionaldivider = 0x00;
    317e:	fe042023          	sw	zero,-32(s0)
C:/Users/86158/Desktop/IEECS-Design/Hardware/Reference/CHV307_Library-master/Example/libraries/sdk/Peripheral/ch32v30x_usart.c:109
  uint32_t usartxbase = 0;
    3182:	fc042e23          	sw	zero,-36(s0)
C:/Users/86158/Desktop/IEECS-Design/Hardware/Reference/CHV307_Library-master/Example/libraries/sdk/Peripheral/ch32v30x_usart.c:116

  if (USART_InitStruct->USART_HardwareFlowControl != USART_HardwareFlowControl_None)
  {
  }

  usartxbase = (uint32_t)USARTx;
    3186:	fbc42783          	lw	a5,-68(s0)
    318a:	fcf42e23          	sw	a5,-36(s0)
C:/Users/86158/Desktop/IEECS-Design/Hardware/Reference/CHV307_Library-master/Example/libraries/sdk/Peripheral/ch32v30x_usart.c:117
  tmpreg = USARTx->CTLR2;
    318e:	fbc42783          	lw	a5,-68(s0)
    3192:	0107d783          	lhu	a5,16(a5)
    3196:	07c2                	slli	a5,a5,0x10
    3198:	83c1                	srli	a5,a5,0x10
    319a:	fef42623          	sw	a5,-20(s0)
C:/Users/86158/Desktop/IEECS-Design/Hardware/Reference/CHV307_Library-master/Example/libraries/sdk/Peripheral/ch32v30x_usart.c:118
  tmpreg &= CTLR2_STOP_CLEAR_Mask;
    319e:	fec42703          	lw	a4,-20(s0)
    31a2:	67b5                	lui	a5,0xd
    31a4:	17fd                	addi	a5,a5,-1
    31a6:	8ff9                	and	a5,a5,a4
    31a8:	fef42623          	sw	a5,-20(s0)
C:/Users/86158/Desktop/IEECS-Design/Hardware/Reference/CHV307_Library-master/Example/libraries/sdk/Peripheral/ch32v30x_usart.c:119
  tmpreg |= (uint32_t)USART_InitStruct->USART_StopBits;  
    31ac:	fb842783          	lw	a5,-72(s0)
    31b0:	0067d783          	lhu	a5,6(a5) # d006 <_data_lma+0x342a>
    31b4:	873e                	mv	a4,a5
    31b6:	fec42783          	lw	a5,-20(s0)
    31ba:	8fd9                	or	a5,a5,a4
    31bc:	fef42623          	sw	a5,-20(s0)
C:/Users/86158/Desktop/IEECS-Design/Hardware/Reference/CHV307_Library-master/Example/libraries/sdk/Peripheral/ch32v30x_usart.c:121
	
  USARTx->CTLR2 = (uint16_t)tmpreg;
    31c0:	fec42783          	lw	a5,-20(s0)
    31c4:	01079713          	slli	a4,a5,0x10
    31c8:	8341                	srli	a4,a4,0x10
    31ca:	fbc42783          	lw	a5,-68(s0)
    31ce:	00e79823          	sh	a4,16(a5)
C:/Users/86158/Desktop/IEECS-Design/Hardware/Reference/CHV307_Library-master/Example/libraries/sdk/Peripheral/ch32v30x_usart.c:122
  tmpreg = USARTx->CTLR1;
    31d2:	fbc42783          	lw	a5,-68(s0)
    31d6:	00c7d783          	lhu	a5,12(a5)
    31da:	07c2                	slli	a5,a5,0x10
    31dc:	83c1                	srli	a5,a5,0x10
    31de:	fef42623          	sw	a5,-20(s0)
C:/Users/86158/Desktop/IEECS-Design/Hardware/Reference/CHV307_Library-master/Example/libraries/sdk/Peripheral/ch32v30x_usart.c:123
  tmpreg &= CTLR1_CLEAR_Mask;
    31e2:	fec42703          	lw	a4,-20(s0)
    31e6:	67bd                	lui	a5,0xf
    31e8:	9f378793          	addi	a5,a5,-1549 # e9f3 <_data_lma+0x4e17>
    31ec:	8ff9                	and	a5,a5,a4
    31ee:	fef42623          	sw	a5,-20(s0)
C:/Users/86158/Desktop/IEECS-Design/Hardware/Reference/CHV307_Library-master/Example/libraries/sdk/Peripheral/ch32v30x_usart.c:124
  tmpreg |= (uint32_t)USART_InitStruct->USART_WordLength | USART_InitStruct->USART_Parity |
    31f2:	fb842783          	lw	a5,-72(s0)
    31f6:	0047d703          	lhu	a4,4(a5)
    31fa:	fb842783          	lw	a5,-72(s0)
    31fe:	0087d783          	lhu	a5,8(a5)
    3202:	8fd9                	or	a5,a5,a4
    3204:	01079713          	slli	a4,a5,0x10
    3208:	8341                	srli	a4,a4,0x10
C:/Users/86158/Desktop/IEECS-Design/Hardware/Reference/CHV307_Library-master/Example/libraries/sdk/Peripheral/ch32v30x_usart.c:125
            USART_InitStruct->USART_Mode;
    320a:	fb842783          	lw	a5,-72(s0)
    320e:	00a7d783          	lhu	a5,10(a5)
C:/Users/86158/Desktop/IEECS-Design/Hardware/Reference/CHV307_Library-master/Example/libraries/sdk/Peripheral/ch32v30x_usart.c:124
  tmpreg |= (uint32_t)USART_InitStruct->USART_WordLength | USART_InitStruct->USART_Parity |
    3212:	8fd9                	or	a5,a5,a4
    3214:	07c2                	slli	a5,a5,0x10
    3216:	83c1                	srli	a5,a5,0x10
    3218:	873e                	mv	a4,a5
    321a:	fec42783          	lw	a5,-20(s0)
    321e:	8fd9                	or	a5,a5,a4
    3220:	fef42623          	sw	a5,-20(s0)
C:/Users/86158/Desktop/IEECS-Design/Hardware/Reference/CHV307_Library-master/Example/libraries/sdk/Peripheral/ch32v30x_usart.c:126
  USARTx->CTLR1 = (uint16_t)tmpreg;
    3224:	fec42783          	lw	a5,-20(s0)
    3228:	01079713          	slli	a4,a5,0x10
    322c:	8341                	srli	a4,a4,0x10
    322e:	fbc42783          	lw	a5,-68(s0)
    3232:	00e79623          	sh	a4,12(a5)
C:/Users/86158/Desktop/IEECS-Design/Hardware/Reference/CHV307_Library-master/Example/libraries/sdk/Peripheral/ch32v30x_usart.c:128
 
  tmpreg = USARTx->CTLR3;
    3236:	fbc42783          	lw	a5,-68(s0)
    323a:	0147d783          	lhu	a5,20(a5)
    323e:	07c2                	slli	a5,a5,0x10
    3240:	83c1                	srli	a5,a5,0x10
    3242:	fef42623          	sw	a5,-20(s0)
C:/Users/86158/Desktop/IEECS-Design/Hardware/Reference/CHV307_Library-master/Example/libraries/sdk/Peripheral/ch32v30x_usart.c:129
  tmpreg &= CTLR3_CLEAR_Mask;
    3246:	fec42703          	lw	a4,-20(s0)
    324a:	67c1                	lui	a5,0x10
    324c:	cff78793          	addi	a5,a5,-769 # fcff <_data_lma+0x6123>
    3250:	8ff9                	and	a5,a5,a4
    3252:	fef42623          	sw	a5,-20(s0)
C:/Users/86158/Desktop/IEECS-Design/Hardware/Reference/CHV307_Library-master/Example/libraries/sdk/Peripheral/ch32v30x_usart.c:130
  tmpreg |= USART_InitStruct->USART_HardwareFlowControl;
    3256:	fb842783          	lw	a5,-72(s0)
    325a:	00c7d783          	lhu	a5,12(a5)
    325e:	873e                	mv	a4,a5
    3260:	fec42783          	lw	a5,-20(s0)
    3264:	8fd9                	or	a5,a5,a4
    3266:	fef42623          	sw	a5,-20(s0)
C:/Users/86158/Desktop/IEECS-Design/Hardware/Reference/CHV307_Library-master/Example/libraries/sdk/Peripheral/ch32v30x_usart.c:131
  USARTx->CTLR3 = (uint16_t)tmpreg;
    326a:	fec42783          	lw	a5,-20(s0)
    326e:	01079713          	slli	a4,a5,0x10
    3272:	8341                	srli	a4,a4,0x10
    3274:	fbc42783          	lw	a5,-68(s0)
    3278:	00e79a23          	sh	a4,20(a5)
C:/Users/86158/Desktop/IEECS-Design/Hardware/Reference/CHV307_Library-master/Example/libraries/sdk/Peripheral/ch32v30x_usart.c:133

  RCC_GetClocksFreq(&RCC_ClocksStatus);
    327c:	fc840793          	addi	a5,s0,-56
    3280:	853e                	mv	a0,a5
    3282:	f6eff0ef          	jal	ra,29f0 <RCC_GetClocksFreq>
C:/Users/86158/Desktop/IEECS-Design/Hardware/Reference/CHV307_Library-master/Example/libraries/sdk/Peripheral/ch32v30x_usart.c:135
	
  if (usartxbase == USART1_BASE)
    3286:	fdc42703          	lw	a4,-36(s0)
    328a:	400147b7          	lui	a5,0x40014
    328e:	80078793          	addi	a5,a5,-2048 # 40013800 <_eusrstack+0x20003800>
    3292:	00f71763          	bne	a4,a5,32a0 <USART_Init+0x13e>
C:/Users/86158/Desktop/IEECS-Design/Hardware/Reference/CHV307_Library-master/Example/libraries/sdk/Peripheral/ch32v30x_usart.c:137
  {
    apbclock = RCC_ClocksStatus.PCLK2_Frequency;
    3296:	fd442783          	lw	a5,-44(s0)
    329a:	fef42423          	sw	a5,-24(s0)
    329e:	a029                	j	32a8 <USART_Init+0x146>
C:/Users/86158/Desktop/IEECS-Design/Hardware/Reference/CHV307_Library-master/Example/libraries/sdk/Peripheral/ch32v30x_usart.c:141
  }
  else
  {
    apbclock = RCC_ClocksStatus.PCLK1_Frequency;
    32a0:	fd042783          	lw	a5,-48(s0)
    32a4:	fef42423          	sw	a5,-24(s0)
C:/Users/86158/Desktop/IEECS-Design/Hardware/Reference/CHV307_Library-master/Example/libraries/sdk/Peripheral/ch32v30x_usart.c:144
  }
  
  if ((USARTx->CTLR1 & CTLR1_OVER8_Set) != 0)
    32a8:	fbc42783          	lw	a5,-68(s0)
    32ac:	00c7d783          	lhu	a5,12(a5)
    32b0:	07c2                	slli	a5,a5,0x10
    32b2:	83c1                	srli	a5,a5,0x10
    32b4:	07c2                	slli	a5,a5,0x10
    32b6:	87c1                	srai	a5,a5,0x10
    32b8:	0207d263          	bgez	a5,32dc <USART_Init+0x17a>
C:/Users/86158/Desktop/IEECS-Design/Hardware/Reference/CHV307_Library-master/Example/libraries/sdk/Peripheral/ch32v30x_usart.c:146
  {
    integerdivider = ((25 * apbclock) / (2 * (USART_InitStruct->USART_BaudRate)));    
    32bc:	fe842703          	lw	a4,-24(s0)
    32c0:	87ba                	mv	a5,a4
    32c2:	0786                	slli	a5,a5,0x1
    32c4:	97ba                	add	a5,a5,a4
    32c6:	078e                	slli	a5,a5,0x3
    32c8:	973e                	add	a4,a4,a5
    32ca:	fb842783          	lw	a5,-72(s0)
    32ce:	439c                	lw	a5,0(a5)
    32d0:	0786                	slli	a5,a5,0x1
    32d2:	02f757b3          	divu	a5,a4,a5
    32d6:	fef42223          	sw	a5,-28(s0)
    32da:	a005                	j	32fa <USART_Init+0x198>
C:/Users/86158/Desktop/IEECS-Design/Hardware/Reference/CHV307_Library-master/Example/libraries/sdk/Peripheral/ch32v30x_usart.c:150
  }
  else 
  {
    integerdivider = ((25 * apbclock) / (4 * (USART_InitStruct->USART_BaudRate)));    
    32dc:	fe842703          	lw	a4,-24(s0)
    32e0:	87ba                	mv	a5,a4
    32e2:	0786                	slli	a5,a5,0x1
    32e4:	97ba                	add	a5,a5,a4
    32e6:	078e                	slli	a5,a5,0x3
    32e8:	973e                	add	a4,a4,a5
    32ea:	fb842783          	lw	a5,-72(s0)
    32ee:	439c                	lw	a5,0(a5)
    32f0:	078a                	slli	a5,a5,0x2
    32f2:	02f757b3          	divu	a5,a4,a5
    32f6:	fef42223          	sw	a5,-28(s0)
C:/Users/86158/Desktop/IEECS-Design/Hardware/Reference/CHV307_Library-master/Example/libraries/sdk/Peripheral/ch32v30x_usart.c:152
  }
  tmpreg = (integerdivider / 100) << 4;
    32fa:	fe442703          	lw	a4,-28(s0)
    32fe:	06400793          	li	a5,100
    3302:	02f757b3          	divu	a5,a4,a5
    3306:	0792                	slli	a5,a5,0x4
    3308:	fef42623          	sw	a5,-20(s0)
C:/Users/86158/Desktop/IEECS-Design/Hardware/Reference/CHV307_Library-master/Example/libraries/sdk/Peripheral/ch32v30x_usart.c:154

  fractionaldivider = integerdivider - (100 * (tmpreg >> 4));
    330c:	fec42783          	lw	a5,-20(s0)
    3310:	0047d713          	srli	a4,a5,0x4
    3314:	06400793          	li	a5,100
    3318:	02f707b3          	mul	a5,a4,a5
    331c:	fe442703          	lw	a4,-28(s0)
    3320:	40f707b3          	sub	a5,a4,a5
    3324:	fef42023          	sw	a5,-32(s0)
C:/Users/86158/Desktop/IEECS-Design/Hardware/Reference/CHV307_Library-master/Example/libraries/sdk/Peripheral/ch32v30x_usart.c:156

  if ((USARTx->CTLR1 & CTLR1_OVER8_Set) != 0)
    3328:	fbc42783          	lw	a5,-68(s0)
    332c:	00c7d783          	lhu	a5,12(a5)
    3330:	07c2                	slli	a5,a5,0x10
    3332:	83c1                	srli	a5,a5,0x10
    3334:	07c2                	slli	a5,a5,0x10
    3336:	87c1                	srai	a5,a5,0x10
    3338:	0207d263          	bgez	a5,335c <USART_Init+0x1fa>
C:/Users/86158/Desktop/IEECS-Design/Hardware/Reference/CHV307_Library-master/Example/libraries/sdk/Peripheral/ch32v30x_usart.c:158
  {
    tmpreg |= ((((fractionaldivider * 8) + 50) / 100)) & ((uint8_t)0x07);
    333c:	fe042783          	lw	a5,-32(s0)
    3340:	078e                	slli	a5,a5,0x3
    3342:	03278713          	addi	a4,a5,50
    3346:	06400793          	li	a5,100
    334a:	02f757b3          	divu	a5,a4,a5
    334e:	8b9d                	andi	a5,a5,7
    3350:	fec42703          	lw	a4,-20(s0)
    3354:	8fd9                	or	a5,a5,a4
    3356:	fef42623          	sw	a5,-20(s0)
    335a:	a005                	j	337a <USART_Init+0x218>
C:/Users/86158/Desktop/IEECS-Design/Hardware/Reference/CHV307_Library-master/Example/libraries/sdk/Peripheral/ch32v30x_usart.c:162
  }
  else 
  {
    tmpreg |= ((((fractionaldivider * 16) + 50) / 100)) & ((uint8_t)0x0F);
    335c:	fe042783          	lw	a5,-32(s0)
    3360:	0792                	slli	a5,a5,0x4
    3362:	03278713          	addi	a4,a5,50
    3366:	06400793          	li	a5,100
    336a:	02f757b3          	divu	a5,a4,a5
    336e:	8bbd                	andi	a5,a5,15
    3370:	fec42703          	lw	a4,-20(s0)
    3374:	8fd9                	or	a5,a5,a4
    3376:	fef42623          	sw	a5,-20(s0)
C:/Users/86158/Desktop/IEECS-Design/Hardware/Reference/CHV307_Library-master/Example/libraries/sdk/Peripheral/ch32v30x_usart.c:165
  }
  
  USARTx->BRR = (uint16_t)tmpreg;
    337a:	fec42783          	lw	a5,-20(s0)
    337e:	01079713          	slli	a4,a5,0x10
    3382:	8341                	srli	a4,a4,0x10
    3384:	fbc42783          	lw	a5,-68(s0)
    3388:	00e79423          	sh	a4,8(a5)
C:/Users/86158/Desktop/IEECS-Design/Hardware/Reference/CHV307_Library-master/Example/libraries/sdk/Peripheral/ch32v30x_usart.c:166
}
    338c:	0001                	nop
    338e:	40b6                	lw	ra,76(sp)
    3390:	4426                	lw	s0,72(sp)
    3392:	6161                	addi	sp,sp,80
    3394:	8082                	ret

00003396 <USART_Cmd>:
USART_Cmd():
C:/Users/86158/Desktop/IEECS-Design/Hardware/Reference/CHV307_Library-master/Example/libraries/sdk/Peripheral/ch32v30x_usart.c:229
* Input          : USARTx: where x can be 1, 2, 3 to select the USART peripheral.
*                  NewState: ENABLE or DISABLE.
* Return         : None
*******************************************************************************/
void USART_Cmd(USART_TypeDef* USARTx, FunctionalState NewState)
{
    3396:	1101                	addi	sp,sp,-32
    3398:	ce22                	sw	s0,28(sp)
    339a:	1000                	addi	s0,sp,32
    339c:	fea42623          	sw	a0,-20(s0)
    33a0:	feb42423          	sw	a1,-24(s0)
C:/Users/86158/Desktop/IEECS-Design/Hardware/Reference/CHV307_Library-master/Example/libraries/sdk/Peripheral/ch32v30x_usart.c:230
  if (NewState != DISABLE)
    33a4:	fe842783          	lw	a5,-24(s0)
    33a8:	c395                	beqz	a5,33cc <USART_Cmd+0x36>
C:/Users/86158/Desktop/IEECS-Design/Hardware/Reference/CHV307_Library-master/Example/libraries/sdk/Peripheral/ch32v30x_usart.c:232
  {
    USARTx->CTLR1 |= CTLR1_UE_Set;
    33aa:	fec42783          	lw	a5,-20(s0)
    33ae:	00c7d783          	lhu	a5,12(a5)
    33b2:	01079713          	slli	a4,a5,0x10
    33b6:	8341                	srli	a4,a4,0x10
    33b8:	6789                	lui	a5,0x2
    33ba:	8fd9                	or	a5,a5,a4
    33bc:	01079713          	slli	a4,a5,0x10
    33c0:	8341                	srli	a4,a4,0x10
    33c2:	fec42783          	lw	a5,-20(s0)
    33c6:	00e79623          	sh	a4,12(a5) # 200c <UART7_IRQHandler+0x3c>
C:/Users/86158/Desktop/IEECS-Design/Hardware/Reference/CHV307_Library-master/Example/libraries/sdk/Peripheral/ch32v30x_usart.c:238
  }
  else
  {
    USARTx->CTLR1 &= CTLR1_UE_Reset;
  }
}
    33ca:	a015                	j	33ee <USART_Cmd+0x58>
C:/Users/86158/Desktop/IEECS-Design/Hardware/Reference/CHV307_Library-master/Example/libraries/sdk/Peripheral/ch32v30x_usart.c:236
    USARTx->CTLR1 &= CTLR1_UE_Reset;
    33cc:	fec42783          	lw	a5,-20(s0)
    33d0:	00c7d783          	lhu	a5,12(a5)
    33d4:	01079713          	slli	a4,a5,0x10
    33d8:	8341                	srli	a4,a4,0x10
    33da:	77f9                	lui	a5,0xffffe
    33dc:	17fd                	addi	a5,a5,-1
    33de:	8ff9                	and	a5,a5,a4
    33e0:	01079713          	slli	a4,a5,0x10
    33e4:	8341                	srli	a4,a4,0x10
    33e6:	fec42783          	lw	a5,-20(s0)
    33ea:	00e79623          	sh	a4,12(a5) # ffffe00c <_eusrstack+0xdffee00c>
C:/Users/86158/Desktop/IEECS-Design/Hardware/Reference/CHV307_Library-master/Example/libraries/sdk/Peripheral/ch32v30x_usart.c:238
}
    33ee:	0001                	nop
    33f0:	4472                	lw	s0,28(sp)
    33f2:	6105                	addi	sp,sp,32
    33f4:	8082                	ret

000033f6 <USART_SendData>:
USART_SendData():
C:/Users/86158/Desktop/IEECS-Design/Hardware/Reference/CHV307_Library-master/Example/libraries/sdk/Peripheral/ch32v30x_usart.c:404
* Input          : USARTx: where x can be 1, 2, 3 to select the USART peripheral.
*                  Data: the data to transmit..
* Return         : None
*******************************************************************************/
void USART_SendData(USART_TypeDef* USARTx, uint16_t Data)
{
    33f6:	1101                	addi	sp,sp,-32
    33f8:	ce22                	sw	s0,28(sp)
    33fa:	1000                	addi	s0,sp,32
    33fc:	fea42623          	sw	a0,-20(s0)
    3400:	87ae                	mv	a5,a1
    3402:	fef41523          	sh	a5,-22(s0)
C:/Users/86158/Desktop/IEECS-Design/Hardware/Reference/CHV307_Library-master/Example/libraries/sdk/Peripheral/ch32v30x_usart.c:405
  USARTx->DATAR = (Data & (uint16_t)0x01FF);
    3406:	fea45783          	lhu	a5,-22(s0)
    340a:	1ff7f793          	andi	a5,a5,511
    340e:	01079713          	slli	a4,a5,0x10
    3412:	8341                	srli	a4,a4,0x10
    3414:	fec42783          	lw	a5,-20(s0)
    3418:	00e79223          	sh	a4,4(a5)
C:/Users/86158/Desktop/IEECS-Design/Hardware/Reference/CHV307_Library-master/Example/libraries/sdk/Peripheral/ch32v30x_usart.c:406
}
    341c:	0001                	nop
    341e:	4472                	lw	s0,28(sp)
    3420:	6105                	addi	sp,sp,32
    3422:	8082                	ret

00003424 <USART_GetFlagStatus>:
USART_GetFlagStatus():
C:/Users/86158/Desktop/IEECS-Design/Hardware/Reference/CHV307_Library-master/Example/libraries/sdk/Peripheral/ch32v30x_usart.c:603
*                    USART_FLAG_FE: Framing Error flag.
*                    USART_FLAG_PE: Parity Error flag.
* Return         : bitstatus: SET or RESET.
*******************************************************************************/
FlagStatus USART_GetFlagStatus(USART_TypeDef* USARTx, uint16_t USART_FLAG)
{
    3424:	7179                	addi	sp,sp,-48
    3426:	d622                	sw	s0,44(sp)
    3428:	1800                	addi	s0,sp,48
    342a:	fca42e23          	sw	a0,-36(s0)
    342e:	87ae                	mv	a5,a1
    3430:	fcf41d23          	sh	a5,-38(s0)
C:/Users/86158/Desktop/IEECS-Design/Hardware/Reference/CHV307_Library-master/Example/libraries/sdk/Peripheral/ch32v30x_usart.c:604
  FlagStatus bitstatus = RESET;
    3434:	fe042623          	sw	zero,-20(s0)
C:/Users/86158/Desktop/IEECS-Design/Hardware/Reference/CHV307_Library-master/Example/libraries/sdk/Peripheral/ch32v30x_usart.c:610

  if (USART_FLAG == USART_FLAG_CTS)
  {
  }  
  
  if ((USARTx->STATR & USART_FLAG) != (uint16_t)RESET)
    3438:	fdc42783          	lw	a5,-36(s0)
    343c:	0007d783          	lhu	a5,0(a5)
    3440:	01079713          	slli	a4,a5,0x10
    3444:	8341                	srli	a4,a4,0x10
    3446:	fda45783          	lhu	a5,-38(s0)
    344a:	8ff9                	and	a5,a5,a4
    344c:	07c2                	slli	a5,a5,0x10
    344e:	83c1                	srli	a5,a5,0x10
    3450:	c789                	beqz	a5,345a <USART_GetFlagStatus+0x36>
C:/Users/86158/Desktop/IEECS-Design/Hardware/Reference/CHV307_Library-master/Example/libraries/sdk/Peripheral/ch32v30x_usart.c:612
  {
    bitstatus = SET;
    3452:	4785                	li	a5,1
    3454:	fef42623          	sw	a5,-20(s0)
    3458:	a019                	j	345e <USART_GetFlagStatus+0x3a>
C:/Users/86158/Desktop/IEECS-Design/Hardware/Reference/CHV307_Library-master/Example/libraries/sdk/Peripheral/ch32v30x_usart.c:616
  }
  else
  {
    bitstatus = RESET;
    345a:	fe042623          	sw	zero,-20(s0)
C:/Users/86158/Desktop/IEECS-Design/Hardware/Reference/CHV307_Library-master/Example/libraries/sdk/Peripheral/ch32v30x_usart.c:618
  }
  return bitstatus;
    345e:	fec42783          	lw	a5,-20(s0)
C:/Users/86158/Desktop/IEECS-Design/Hardware/Reference/CHV307_Library-master/Example/libraries/sdk/Peripheral/ch32v30x_usart.c:619
}
    3462:	853e                	mv	a0,a5
    3464:	5432                	lw	s0,44(sp)
    3466:	6145                	addi	sp,sp,48
    3468:	8082                	ret

0000346a <USART_GetITStatus>:
USART_GetITStatus():
C:/Users/86158/Desktop/IEECS-Design/Hardware/Reference/CHV307_Library-master/Example/libraries/sdk/Peripheral/ch32v30x_usart.c:660
*                    USART_IT_FE: Framing Error interrupt.
*                    USART_IT_PE: Parity Error interrupt.
* Return         : bitstatus: SET or RESET.
*******************************************************************************/
ITStatus USART_GetITStatus(USART_TypeDef* USARTx, uint16_t USART_IT)
{
    346a:	7179                	addi	sp,sp,-48
    346c:	d622                	sw	s0,44(sp)
    346e:	1800                	addi	s0,sp,48
    3470:	fca42e23          	sw	a0,-36(s0)
    3474:	87ae                	mv	a5,a1
    3476:	fcf41d23          	sh	a5,-38(s0)
C:/Users/86158/Desktop/IEECS-Design/Hardware/Reference/CHV307_Library-master/Example/libraries/sdk/Peripheral/ch32v30x_usart.c:661
  uint32_t bitpos = 0x00, itmask = 0x00, usartreg = 0x00;
    347a:	fe042223          	sw	zero,-28(s0)
    347e:	fe042623          	sw	zero,-20(s0)
    3482:	fe042023          	sw	zero,-32(s0)
C:/Users/86158/Desktop/IEECS-Design/Hardware/Reference/CHV307_Library-master/Example/libraries/sdk/Peripheral/ch32v30x_usart.c:662
  ITStatus bitstatus = RESET;
    3486:	fe042423          	sw	zero,-24(s0)
C:/Users/86158/Desktop/IEECS-Design/Hardware/Reference/CHV307_Library-master/Example/libraries/sdk/Peripheral/ch32v30x_usart.c:668

  if (USART_IT == USART_IT_CTS)
  {
  }   
  
  usartreg = (((uint8_t)USART_IT) >> 0x05);
    348a:	fda45783          	lhu	a5,-38(s0)
    348e:	0ff7f793          	andi	a5,a5,255
    3492:	8395                	srli	a5,a5,0x5
    3494:	0ff7f793          	andi	a5,a5,255
    3498:	fef42023          	sw	a5,-32(s0)
C:/Users/86158/Desktop/IEECS-Design/Hardware/Reference/CHV307_Library-master/Example/libraries/sdk/Peripheral/ch32v30x_usart.c:669
  itmask = USART_IT & IT_Mask;
    349c:	fda45783          	lhu	a5,-38(s0)
    34a0:	8bfd                	andi	a5,a5,31
    34a2:	fef42623          	sw	a5,-20(s0)
C:/Users/86158/Desktop/IEECS-Design/Hardware/Reference/CHV307_Library-master/Example/libraries/sdk/Peripheral/ch32v30x_usart.c:670
  itmask = (uint32_t)0x01 << itmask;
    34a6:	fec42783          	lw	a5,-20(s0)
    34aa:	4705                	li	a4,1
    34ac:	00f717b3          	sll	a5,a4,a5
    34b0:	fef42623          	sw	a5,-20(s0)
C:/Users/86158/Desktop/IEECS-Design/Hardware/Reference/CHV307_Library-master/Example/libraries/sdk/Peripheral/ch32v30x_usart.c:672
  
  if (usartreg == 0x01) 
    34b4:	fe042703          	lw	a4,-32(s0)
    34b8:	4785                	li	a5,1
    34ba:	00f71f63          	bne	a4,a5,34d8 <USART_GetITStatus+0x6e>
C:/Users/86158/Desktop/IEECS-Design/Hardware/Reference/CHV307_Library-master/Example/libraries/sdk/Peripheral/ch32v30x_usart.c:674
  {
    itmask &= USARTx->CTLR1;
    34be:	fdc42783          	lw	a5,-36(s0)
    34c2:	00c7d783          	lhu	a5,12(a5)
    34c6:	07c2                	slli	a5,a5,0x10
    34c8:	83c1                	srli	a5,a5,0x10
    34ca:	873e                	mv	a4,a5
    34cc:	fec42783          	lw	a5,-20(s0)
    34d0:	8ff9                	and	a5,a5,a4
    34d2:	fef42623          	sw	a5,-20(s0)
    34d6:	a83d                	j	3514 <USART_GetITStatus+0xaa>
C:/Users/86158/Desktop/IEECS-Design/Hardware/Reference/CHV307_Library-master/Example/libraries/sdk/Peripheral/ch32v30x_usart.c:676
  }
  else if (usartreg == 0x02) 
    34d8:	fe042703          	lw	a4,-32(s0)
    34dc:	4789                	li	a5,2
    34de:	00f71f63          	bne	a4,a5,34fc <USART_GetITStatus+0x92>
C:/Users/86158/Desktop/IEECS-Design/Hardware/Reference/CHV307_Library-master/Example/libraries/sdk/Peripheral/ch32v30x_usart.c:678
  {
    itmask &= USARTx->CTLR2;
    34e2:	fdc42783          	lw	a5,-36(s0)
    34e6:	0107d783          	lhu	a5,16(a5)
    34ea:	07c2                	slli	a5,a5,0x10
    34ec:	83c1                	srli	a5,a5,0x10
    34ee:	873e                	mv	a4,a5
    34f0:	fec42783          	lw	a5,-20(s0)
    34f4:	8ff9                	and	a5,a5,a4
    34f6:	fef42623          	sw	a5,-20(s0)
    34fa:	a829                	j	3514 <USART_GetITStatus+0xaa>
C:/Users/86158/Desktop/IEECS-Design/Hardware/Reference/CHV307_Library-master/Example/libraries/sdk/Peripheral/ch32v30x_usart.c:682
  }
  else 
  {
    itmask &= USARTx->CTLR3;
    34fc:	fdc42783          	lw	a5,-36(s0)
    3500:	0147d783          	lhu	a5,20(a5)
    3504:	07c2                	slli	a5,a5,0x10
    3506:	83c1                	srli	a5,a5,0x10
    3508:	873e                	mv	a4,a5
    350a:	fec42783          	lw	a5,-20(s0)
    350e:	8ff9                	and	a5,a5,a4
    3510:	fef42623          	sw	a5,-20(s0)
C:/Users/86158/Desktop/IEECS-Design/Hardware/Reference/CHV307_Library-master/Example/libraries/sdk/Peripheral/ch32v30x_usart.c:685
  }
  
  bitpos = USART_IT >> 0x08;
    3514:	fda45783          	lhu	a5,-38(s0)
    3518:	83a1                	srli	a5,a5,0x8
    351a:	07c2                	slli	a5,a5,0x10
    351c:	83c1                	srli	a5,a5,0x10
    351e:	fef42223          	sw	a5,-28(s0)
C:/Users/86158/Desktop/IEECS-Design/Hardware/Reference/CHV307_Library-master/Example/libraries/sdk/Peripheral/ch32v30x_usart.c:686
  bitpos = (uint32_t)0x01 << bitpos;
    3522:	fe442783          	lw	a5,-28(s0)
    3526:	4705                	li	a4,1
    3528:	00f717b3          	sll	a5,a4,a5
    352c:	fef42223          	sw	a5,-28(s0)
C:/Users/86158/Desktop/IEECS-Design/Hardware/Reference/CHV307_Library-master/Example/libraries/sdk/Peripheral/ch32v30x_usart.c:687
  bitpos &= USARTx->STATR;
    3530:	fdc42783          	lw	a5,-36(s0)
    3534:	0007d783          	lhu	a5,0(a5)
    3538:	07c2                	slli	a5,a5,0x10
    353a:	83c1                	srli	a5,a5,0x10
    353c:	873e                	mv	a4,a5
    353e:	fe442783          	lw	a5,-28(s0)
    3542:	8ff9                	and	a5,a5,a4
    3544:	fef42223          	sw	a5,-28(s0)
C:/Users/86158/Desktop/IEECS-Design/Hardware/Reference/CHV307_Library-master/Example/libraries/sdk/Peripheral/ch32v30x_usart.c:689
	
  if ((itmask != (uint16_t)RESET)&&(bitpos != (uint16_t)RESET))
    3548:	fec42783          	lw	a5,-20(s0)
    354c:	cb81                	beqz	a5,355c <USART_GetITStatus+0xf2>
C:/Users/86158/Desktop/IEECS-Design/Hardware/Reference/CHV307_Library-master/Example/libraries/sdk/Peripheral/ch32v30x_usart.c:689 (discriminator 1)
    354e:	fe442783          	lw	a5,-28(s0)
    3552:	c789                	beqz	a5,355c <USART_GetITStatus+0xf2>
C:/Users/86158/Desktop/IEECS-Design/Hardware/Reference/CHV307_Library-master/Example/libraries/sdk/Peripheral/ch32v30x_usart.c:691
  {
    bitstatus = SET;
    3554:	4785                	li	a5,1
    3556:	fef42423          	sw	a5,-24(s0)
    355a:	a019                	j	3560 <USART_GetITStatus+0xf6>
C:/Users/86158/Desktop/IEECS-Design/Hardware/Reference/CHV307_Library-master/Example/libraries/sdk/Peripheral/ch32v30x_usart.c:695
  }
  else
  {
    bitstatus = RESET;
    355c:	fe042423          	sw	zero,-24(s0)
C:/Users/86158/Desktop/IEECS-Design/Hardware/Reference/CHV307_Library-master/Example/libraries/sdk/Peripheral/ch32v30x_usart.c:698
  }
  
  return bitstatus;  
    3560:	fe842783          	lw	a5,-24(s0)
C:/Users/86158/Desktop/IEECS-Design/Hardware/Reference/CHV307_Library-master/Example/libraries/sdk/Peripheral/ch32v30x_usart.c:699
}
    3564:	853e                	mv	a0,a5
    3566:	5432                	lw	s0,44(sp)
    3568:	6145                	addi	sp,sp,48
    356a:	8082                	ret

0000356c <USART_ClearITPendingBit>:
USART_ClearITPendingBit():
C:/Users/86158/Desktop/IEECS-Design/Hardware/Reference/CHV307_Library-master/Example/libraries/sdk/Peripheral/ch32v30x_usart.c:713
*                    USART_IT_TC:   Transmission complete interrupt.
*                    USART_IT_RXNE: Receive Data register not empty interrupt.
* Return         : None
*******************************************************************************/
void USART_ClearITPendingBit(USART_TypeDef* USARTx, uint16_t USART_IT)
{
    356c:	7179                	addi	sp,sp,-48
    356e:	d622                	sw	s0,44(sp)
    3570:	1800                	addi	s0,sp,48
    3572:	fca42e23          	sw	a0,-36(s0)
    3576:	87ae                	mv	a5,a1
    3578:	fcf41d23          	sh	a5,-38(s0)
C:/Users/86158/Desktop/IEECS-Design/Hardware/Reference/CHV307_Library-master/Example/libraries/sdk/Peripheral/ch32v30x_usart.c:714
  uint16_t bitpos = 0x00, itmask = 0x00;
    357c:	fe041723          	sh	zero,-18(s0)
    3580:	fe041623          	sh	zero,-20(s0)
C:/Users/86158/Desktop/IEECS-Design/Hardware/Reference/CHV307_Library-master/Example/libraries/sdk/Peripheral/ch32v30x_usart.c:720

  if (USART_IT == USART_IT_CTS)
  {
  }   
  
  bitpos = USART_IT >> 0x08;
    3584:	fda45783          	lhu	a5,-38(s0)
    3588:	83a1                	srli	a5,a5,0x8
    358a:	fef41723          	sh	a5,-18(s0)
C:/Users/86158/Desktop/IEECS-Design/Hardware/Reference/CHV307_Library-master/Example/libraries/sdk/Peripheral/ch32v30x_usart.c:721
  itmask = ((uint16_t)0x01 << (uint16_t)bitpos);
    358e:	fee45783          	lhu	a5,-18(s0)
    3592:	4705                	li	a4,1
    3594:	00f717b3          	sll	a5,a4,a5
    3598:	fef41623          	sh	a5,-20(s0)
C:/Users/86158/Desktop/IEECS-Design/Hardware/Reference/CHV307_Library-master/Example/libraries/sdk/Peripheral/ch32v30x_usart.c:722
  USARTx->STATR = (uint16_t)~itmask;
    359c:	fec45783          	lhu	a5,-20(s0)
    35a0:	fff7c793          	not	a5,a5
    35a4:	01079713          	slli	a4,a5,0x10
    35a8:	8341                	srli	a4,a4,0x10
    35aa:	fdc42783          	lw	a5,-36(s0)
    35ae:	00e79023          	sh	a4,0(a5)
C:/Users/86158/Desktop/IEECS-Design/Hardware/Reference/CHV307_Library-master/Example/libraries/sdk/Peripheral/ch32v30x_usart.c:723
}
    35b2:	0001                	nop
    35b4:	5432                	lw	s0,44(sp)
    35b6:	6145                	addi	sp,sp,48
    35b8:	8082                	ret

000035ba <DevEP1_IN_Deal>:
DevEP1_IN_Deal():
C:/Users/86158/Desktop/IEECS-Design/Hardware/Reference/CHV307_Library-master/Example/libraries/sdk/Peripheral/ch32v30x_usbotg_device.c:329
* Description    : Device endpoint1 IN.
* Input          : l: IN length(<64B)
* Return         : None
*******************************************************************************/
void DevEP1_IN_Deal( UINT8 l )
{
    35ba:	1101                	addi	sp,sp,-32
    35bc:	ce22                	sw	s0,28(sp)
    35be:	1000                	addi	s0,sp,32
    35c0:	87aa                	mv	a5,a0
    35c2:	fef407a3          	sb	a5,-17(s0)
C:/Users/86158/Desktop/IEECS-Design/Hardware/Reference/CHV307_Library-master/Example/libraries/sdk/Peripheral/ch32v30x_usbotg_device.c:330
    USBOTG_FS->UEP1_TX_LEN = l;
    35c6:	500007b7          	lui	a5,0x50000
    35ca:	fef44703          	lbu	a4,-17(s0)
    35ce:	0742                	slli	a4,a4,0x10
    35d0:	8341                	srli	a4,a4,0x10
    35d2:	02e79a23          	sh	a4,52(a5) # 50000034 <_eusrstack+0x2fff0034>
C:/Users/86158/Desktop/IEECS-Design/Hardware/Reference/CHV307_Library-master/Example/libraries/sdk/Peripheral/ch32v30x_usbotg_device.c:331
    USBOTG_FS->UEP1_TX_CTRL = (USBOTG_FS->UEP1_TX_CTRL & ~USBHD_UEP_T_RES_MASK)| USBHD_UEP_T_RES_ACK;
    35d6:	500007b7          	lui	a5,0x50000
    35da:	0367c783          	lbu	a5,54(a5) # 50000036 <_eusrstack+0x2fff0036>
    35de:	0ff7f713          	andi	a4,a5,255
    35e2:	500007b7          	lui	a5,0x50000
    35e6:	9b71                	andi	a4,a4,-4
    35e8:	0ff77713          	andi	a4,a4,255
    35ec:	02e78b23          	sb	a4,54(a5) # 50000036 <_eusrstack+0x2fff0036>
C:/Users/86158/Desktop/IEECS-Design/Hardware/Reference/CHV307_Library-master/Example/libraries/sdk/Peripheral/ch32v30x_usbotg_device.c:332
}
    35f0:	0001                	nop
    35f2:	4472                	lw	s0,28(sp)
    35f4:	6105                	addi	sp,sp,32
    35f6:	8082                	ret

000035f8 <DevEP2_IN_Deal>:
DevEP2_IN_Deal():
C:/Users/86158/Desktop/IEECS-Design/Hardware/Reference/CHV307_Library-master/Example/libraries/sdk/Peripheral/ch32v30x_usbotg_device.c:341
* Description    : Device endpoint2 IN.
* Input          : l: IN length(<64B)
* Return         : None
*******************************************************************************/
void DevEP2_IN_Deal( UINT8 l )
{
    35f8:	1101                	addi	sp,sp,-32
    35fa:	ce22                	sw	s0,28(sp)
    35fc:	1000                	addi	s0,sp,32
    35fe:	87aa                	mv	a5,a0
    3600:	fef407a3          	sb	a5,-17(s0)
C:/Users/86158/Desktop/IEECS-Design/Hardware/Reference/CHV307_Library-master/Example/libraries/sdk/Peripheral/ch32v30x_usbotg_device.c:342
    USBOTG_FS->UEP2_TX_LEN = l;
    3604:	500007b7          	lui	a5,0x50000
    3608:	fef44703          	lbu	a4,-17(s0)
    360c:	0742                	slli	a4,a4,0x10
    360e:	8341                	srli	a4,a4,0x10
    3610:	02e79c23          	sh	a4,56(a5) # 50000038 <_eusrstack+0x2fff0038>
C:/Users/86158/Desktop/IEECS-Design/Hardware/Reference/CHV307_Library-master/Example/libraries/sdk/Peripheral/ch32v30x_usbotg_device.c:343
    USBOTG_FS->UEP2_TX_CTRL = (USBOTG_FS->UEP2_TX_CTRL & ~USBHD_UEP_T_RES_MASK)| USBHD_UEP_T_RES_ACK;
    3614:	500007b7          	lui	a5,0x50000
    3618:	03a7c783          	lbu	a5,58(a5) # 5000003a <_eusrstack+0x2fff003a>
    361c:	0ff7f713          	andi	a4,a5,255
    3620:	500007b7          	lui	a5,0x50000
    3624:	9b71                	andi	a4,a4,-4
    3626:	0ff77713          	andi	a4,a4,255
    362a:	02e78d23          	sb	a4,58(a5) # 5000003a <_eusrstack+0x2fff003a>
C:/Users/86158/Desktop/IEECS-Design/Hardware/Reference/CHV307_Library-master/Example/libraries/sdk/Peripheral/ch32v30x_usbotg_device.c:344
}
    362e:	0001                	nop
    3630:	4472                	lw	s0,28(sp)
    3632:	6105                	addi	sp,sp,32
    3634:	8082                	ret

00003636 <DevEP1_OUT_Deal>:
DevEP1_OUT_Deal():
C:/Users/86158/Desktop/IEECS-Design/Hardware/Reference/CHV307_Library-master/Example/libraries/sdk/Peripheral/ch32v30x_usbotg_device.c:353
* Description    : Deal device Endpoint 1 OUT.
* Input          : l: Data length.
* Return         : None
*******************************************************************************/
void DevEP1_OUT_Deal( UINT8 l )
{
    3636:	7179                	addi	sp,sp,-48
    3638:	d606                	sw	ra,44(sp)
    363a:	d422                	sw	s0,40(sp)
    363c:	1800                	addi	s0,sp,48
    363e:	87aa                	mv	a5,a0
    3640:	fcf40fa3          	sb	a5,-33(s0)
C:/Users/86158/Desktop/IEECS-Design/Hardware/Reference/CHV307_Library-master/Example/libraries/sdk/Peripheral/ch32v30x_usbotg_device.c:356
    UINT8 i;

    for(i=0; i<l; i++)
    3644:	fe0407a3          	sb	zero,-17(s0)
    3648:	a815                	j	367c <DevEP1_OUT_Deal+0x46>
C:/Users/86158/Desktop/IEECS-Design/Hardware/Reference/CHV307_Library-master/Example/libraries/sdk/Peripheral/ch32v30x_usbotg_device.c:358 (discriminator 3)
    {
        pEP1_IN_DataBuf[i] = ~pEP1_OUT_DataBuf[i];
    364a:	85c1a703          	lw	a4,-1956(gp) # 2000028c <pEP1_RAM_Addr>
    364e:	fef44783          	lbu	a5,-17(s0)
    3652:	97ba                	add	a5,a5,a4
    3654:	0007c703          	lbu	a4,0(a5)
    3658:	85c1a683          	lw	a3,-1956(gp) # 2000028c <pEP1_RAM_Addr>
    365c:	fef44783          	lbu	a5,-17(s0)
    3660:	04078793          	addi	a5,a5,64
    3664:	97b6                	add	a5,a5,a3
    3666:	fff74713          	not	a4,a4
    366a:	0ff77713          	andi	a4,a4,255
    366e:	00e78023          	sb	a4,0(a5)
C:/Users/86158/Desktop/IEECS-Design/Hardware/Reference/CHV307_Library-master/Example/libraries/sdk/Peripheral/ch32v30x_usbotg_device.c:356 (discriminator 3)
    for(i=0; i<l; i++)
    3672:	fef44783          	lbu	a5,-17(s0)
    3676:	0785                	addi	a5,a5,1
    3678:	fef407a3          	sb	a5,-17(s0)
C:/Users/86158/Desktop/IEECS-Design/Hardware/Reference/CHV307_Library-master/Example/libraries/sdk/Peripheral/ch32v30x_usbotg_device.c:356 (discriminator 1)
    367c:	fef44703          	lbu	a4,-17(s0)
    3680:	fdf44783          	lbu	a5,-33(s0)
    3684:	fcf763e3          	bltu	a4,a5,364a <DevEP1_OUT_Deal+0x14>
C:/Users/86158/Desktop/IEECS-Design/Hardware/Reference/CHV307_Library-master/Example/libraries/sdk/Peripheral/ch32v30x_usbotg_device.c:361
    }

    DevEP1_IN_Deal( l );
    3688:	fdf44783          	lbu	a5,-33(s0)
    368c:	853e                	mv	a0,a5
    368e:	3735                	jal	35ba <DevEP1_IN_Deal>
C:/Users/86158/Desktop/IEECS-Design/Hardware/Reference/CHV307_Library-master/Example/libraries/sdk/Peripheral/ch32v30x_usbotg_device.c:362
}
    3690:	0001                	nop
    3692:	50b2                	lw	ra,44(sp)
    3694:	5422                	lw	s0,40(sp)
    3696:	6145                	addi	sp,sp,48
    3698:	8082                	ret

0000369a <DevEP2_OUT_Deal>:
DevEP2_OUT_Deal():
C:/Users/86158/Desktop/IEECS-Design/Hardware/Reference/CHV307_Library-master/Example/libraries/sdk/Peripheral/ch32v30x_usbotg_device.c:371
* Description    : Deal device Endpoint 2 OUT.
* Input          : l: Data length.
* Return         : None
*******************************************************************************/
void DevEP2_OUT_Deal( UINT8 l )
{
    369a:	7179                	addi	sp,sp,-48
    369c:	d606                	sw	ra,44(sp)
    369e:	d422                	sw	s0,40(sp)
    36a0:	1800                	addi	s0,sp,48
    36a2:	87aa                	mv	a5,a0
    36a4:	fcf40fa3          	sb	a5,-33(s0)
C:/Users/86158/Desktop/IEECS-Design/Hardware/Reference/CHV307_Library-master/Example/libraries/sdk/Peripheral/ch32v30x_usbotg_device.c:374
    UINT8 i;

    for(i=0; i<l; i++)
    36a8:	fe0407a3          	sb	zero,-17(s0)
    36ac:	a815                	j	36e0 <DevEP2_OUT_Deal+0x46>
C:/Users/86158/Desktop/IEECS-Design/Hardware/Reference/CHV307_Library-master/Example/libraries/sdk/Peripheral/ch32v30x_usbotg_device.c:376 (discriminator 3)
    {
        pEP2_IN_DataBuf[i] = ~pEP2_OUT_DataBuf[i];
    36ae:	8601a703          	lw	a4,-1952(gp) # 20000290 <pEP2_RAM_Addr>
    36b2:	fef44783          	lbu	a5,-17(s0)
    36b6:	97ba                	add	a5,a5,a4
    36b8:	0007c703          	lbu	a4,0(a5)
    36bc:	8601a683          	lw	a3,-1952(gp) # 20000290 <pEP2_RAM_Addr>
    36c0:	fef44783          	lbu	a5,-17(s0)
    36c4:	04078793          	addi	a5,a5,64
    36c8:	97b6                	add	a5,a5,a3
    36ca:	fff74713          	not	a4,a4
    36ce:	0ff77713          	andi	a4,a4,255
    36d2:	00e78023          	sb	a4,0(a5)
C:/Users/86158/Desktop/IEECS-Design/Hardware/Reference/CHV307_Library-master/Example/libraries/sdk/Peripheral/ch32v30x_usbotg_device.c:374 (discriminator 3)
    for(i=0; i<l; i++)
    36d6:	fef44783          	lbu	a5,-17(s0)
    36da:	0785                	addi	a5,a5,1
    36dc:	fef407a3          	sb	a5,-17(s0)
C:/Users/86158/Desktop/IEECS-Design/Hardware/Reference/CHV307_Library-master/Example/libraries/sdk/Peripheral/ch32v30x_usbotg_device.c:374 (discriminator 1)
    36e0:	fef44703          	lbu	a4,-17(s0)
    36e4:	fdf44783          	lbu	a5,-33(s0)
    36e8:	fcf763e3          	bltu	a4,a5,36ae <DevEP2_OUT_Deal+0x14>
C:/Users/86158/Desktop/IEECS-Design/Hardware/Reference/CHV307_Library-master/Example/libraries/sdk/Peripheral/ch32v30x_usbotg_device.c:379
    }

    DevEP2_IN_Deal( l );
    36ec:	fdf44783          	lbu	a5,-33(s0)
    36f0:	853e                	mv	a0,a5
    36f2:	3719                	jal	35f8 <DevEP2_IN_Deal>
C:/Users/86158/Desktop/IEECS-Design/Hardware/Reference/CHV307_Library-master/Example/libraries/sdk/Peripheral/ch32v30x_usbotg_device.c:380
}
    36f4:	0001                	nop
    36f6:	50b2                	lw	ra,44(sp)
    36f8:	5422                	lw	s0,40(sp)
    36fa:	6145                	addi	sp,sp,48
    36fc:	8082                	ret

000036fe <OTG_FS_IRQHandler>:
OTG_FS_IRQHandler():
C:/Users/86158/Desktop/IEECS-Design/Hardware/Reference/CHV307_Library-master/Example/libraries/sdk/Peripheral/ch32v30x_usbotg_device.c:389
* Description    : OTG_FS_IRQHandler OTG设备中断处理函数
* Input          : None
* Return         : None
*******************************************************************************/
void OTG_FS_IRQHandler( void )
{
    36fe:	1101                	addi	sp,sp,-32
    3700:	ce22                	sw	s0,28(sp)
    3702:	1000                	addi	s0,sp,32
C:/Users/86158/Desktop/IEECS-Design/Hardware/Reference/CHV307_Library-master/Example/libraries/sdk/Peripheral/ch32v30x_usbotg_device.c:391
    UINT8  len, chtype;
    UINT8  intflag, errflag = 0;
    3704:	fe040723          	sb	zero,-18(s0)
C:/Users/86158/Desktop/IEECS-Design/Hardware/Reference/CHV307_Library-master/Example/libraries/sdk/Peripheral/ch32v30x_usbotg_device.c:393

    intflag = USBOTG_FS->INT_FG;
    3708:	500007b7          	lui	a5,0x50000
    370c:	0067c783          	lbu	a5,6(a5) # 50000006 <_eusrstack+0x2fff0006>
    3710:	fef406a3          	sb	a5,-19(s0)
C:/Users/86158/Desktop/IEECS-Design/Hardware/Reference/CHV307_Library-master/Example/libraries/sdk/Peripheral/ch32v30x_usbotg_device.c:395

    if( intflag & USBHD_UIF_TRANSFER )
    3714:	fed44783          	lbu	a5,-19(s0)
    3718:	8b89                	andi	a5,a5,2
    371a:	3c0781e3          	beqz	a5,42dc <OTG_FS_IRQHandler+0xbde>
C:/Users/86158/Desktop/IEECS-Design/Hardware/Reference/CHV307_Library-master/Example/libraries/sdk/Peripheral/ch32v30x_usbotg_device.c:397
    {
        switch ( USBOTG_FS->INT_ST & USBHD_UIS_TOKEN_MASK )
    371e:	500007b7          	lui	a5,0x50000
    3722:	0077c783          	lbu	a5,7(a5) # 50000007 <_eusrstack+0x2fff0007>
    3726:	0ff7f793          	andi	a5,a5,255
    372a:	0307f793          	andi	a5,a5,48
    372e:	4741                	li	a4,16
    3730:	38e78be3          	beq	a5,a4,42c6 <OTG_FS_IRQHandler+0xbc8>
    3734:	4741                	li	a4,16
    3736:	00f74663          	blt	a4,a5,3742 <OTG_FS_IRQHandler+0x44>
    373a:	20078ee3          	beqz	a5,4156 <OTG_FS_IRQHandler+0xa58>
C:/Users/86158/Desktop/IEECS-Design/Hardware/Reference/CHV307_Library-master/Example/libraries/sdk/Peripheral/ch32v30x_usbotg_device.c:878
            case USBHD_UIS_TOKEN_SOF:

                break;

            default :
                break;
    373e:	38d0006f          	j	42ca <OTG_FS_IRQHandler+0xbcc>
    3742:	02000713          	li	a4,32
    3746:	04e786e3          	beq	a5,a4,3f92 <OTG_FS_IRQHandler+0x894>
    374a:	03000713          	li	a4,48
    374e:	36e79ee3          	bne	a5,a4,42ca <OTG_FS_IRQHandler+0xbcc>
C:/Users/86158/Desktop/IEECS-Design/Hardware/Reference/CHV307_Library-master/Example/libraries/sdk/Peripheral/ch32v30x_usbotg_device.c:411
                USBOTG_FS->UEP0_TX_CTRL = USBHD_UEP_T_TOG|USBHD_UEP_T_RES_NAK;
    3752:	500007b7          	lui	a5,0x50000
    3756:	4719                	li	a4,6
    3758:	02e78923          	sb	a4,50(a5) # 50000032 <_eusrstack+0x2fff0032>
C:/Users/86158/Desktop/IEECS-Design/Hardware/Reference/CHV307_Library-master/Example/libraries/sdk/Peripheral/ch32v30x_usbotg_device.c:412
                USBOTG_FS->UEP0_RX_CTRL = USBHD_UEP_R_TOG|USBHD_UEP_R_RES_ACK;
    375c:	500007b7          	lui	a5,0x50000
    3760:	4711                	li	a4,4
    3762:	02e789a3          	sb	a4,51(a5) # 50000033 <_eusrstack+0x2fff0033>
C:/Users/86158/Desktop/IEECS-Design/Hardware/Reference/CHV307_Library-master/Example/libraries/sdk/Peripheral/ch32v30x_usbotg_device.c:413
                SetupReqLen  = pSetupReqPakHD->wLength;
    3766:	8581a783          	lw	a5,-1960(gp) # 20000288 <pEP0_RAM_Addr>
    376a:	0067c703          	lbu	a4,6(a5)
    376e:	0077c783          	lbu	a5,7(a5)
    3772:	07a2                	slli	a5,a5,0x8
    3774:	8fd9                	or	a5,a5,a4
    3776:	01079713          	slli	a4,a5,0x10
    377a:	8341                	srli	a4,a4,0x10
    377c:	86e19723          	sh	a4,-1938(gp) # 2000029e <SetupReqLen>
C:/Users/86158/Desktop/IEECS-Design/Hardware/Reference/CHV307_Library-master/Example/libraries/sdk/Peripheral/ch32v30x_usbotg_device.c:414
                SetupReqCode = pSetupReqPakHD->bRequest;
    3780:	8581a783          	lw	a5,-1960(gp) # 20000288 <pEP0_RAM_Addr>
    3784:	0017c703          	lbu	a4,1(a5)
    3788:	86e18623          	sb	a4,-1940(gp) # 2000029c <SetupReqCode>
C:/Users/86158/Desktop/IEECS-Design/Hardware/Reference/CHV307_Library-master/Example/libraries/sdk/Peripheral/ch32v30x_usbotg_device.c:415
                chtype = pSetupReqPakHD->bRequestType;
    378c:	8581a783          	lw	a5,-1960(gp) # 20000288 <pEP0_RAM_Addr>
    3790:	0007c783          	lbu	a5,0(a5)
    3794:	fef40623          	sb	a5,-20(s0)
C:/Users/86158/Desktop/IEECS-Design/Hardware/Reference/CHV307_Library-master/Example/libraries/sdk/Peripheral/ch32v30x_usbotg_device.c:416
                len = 0;
    3798:	fe0407a3          	sb	zero,-17(s0)
C:/Users/86158/Desktop/IEECS-Design/Hardware/Reference/CHV307_Library-master/Example/libraries/sdk/Peripheral/ch32v30x_usbotg_device.c:417
                errflag = 0;
    379c:	fe040723          	sb	zero,-18(s0)
C:/Users/86158/Desktop/IEECS-Design/Hardware/Reference/CHV307_Library-master/Example/libraries/sdk/Peripheral/ch32v30x_usbotg_device.c:419
                if ( ( pSetupReqPakHD->bRequestType & USB_REQ_TYP_MASK ) != USB_REQ_TYP_STANDARD )  //非标准请求
    37a0:	8581a783          	lw	a5,-1960(gp) # 20000288 <pEP0_RAM_Addr>
    37a4:	0007c783          	lbu	a5,0(a5)
    37a8:	0607f793          	andi	a5,a5,96
    37ac:	12078b63          	beqz	a5,38e2 <OTG_FS_IRQHandler+0x1e4>
C:/Users/86158/Desktop/IEECS-Design/Hardware/Reference/CHV307_Library-master/Example/libraries/sdk/Peripheral/ch32v30x_usbotg_device.c:422
                    if(SetupReqCode & 0x20)
    37b0:	86c1c783          	lbu	a5,-1940(gp) # 2000029c <SetupReqCode>
    37b4:	0ff7f793          	andi	a5,a5,255
    37b8:	0207f793          	andi	a5,a5,32
    37bc:	c3d5                	beqz	a5,3860 <OTG_FS_IRQHandler+0x162>
C:/Users/86158/Desktop/IEECS-Design/Hardware/Reference/CHV307_Library-master/Example/libraries/sdk/Peripheral/ch32v30x_usbotg_device.c:424
                        switch( SetupReqCode )
    37be:	86c1c783          	lbu	a5,-1940(gp) # 2000029c <SetupReqCode>
    37c2:	0ff7f793          	andi	a5,a5,255
    37c6:	02100713          	li	a4,33
    37ca:	00e78b63          	beq	a5,a4,37e0 <OTG_FS_IRQHandler+0xe2>
    37ce:	02200713          	li	a4,34
    37d2:	08e78963          	beq	a5,a4,3864 <OTG_FS_IRQHandler+0x166>
    37d6:	02000713          	li	a4,32
    37da:	08e78763          	beq	a5,a4,3868 <OTG_FS_IRQHandler+0x16a>
    37de:	a8ad                	j	3858 <OTG_FS_IRQHandler+0x15a>
C:/Users/86158/Desktop/IEECS-Design/Hardware/Reference/CHV307_Library-master/Example/libraries/sdk/Peripheral/ch32v30x_usbotg_device.c:427
                                pDescr = LineCoding;
    37e0:	80c18713          	addi	a4,gp,-2036 # 2000023c <LineCoding>
    37e4:	86e1a223          	sw	a4,-1948(gp) # 20000294 <pDescr>
C:/Users/86158/Desktop/IEECS-Design/Hardware/Reference/CHV307_Library-master/Example/libraries/sdk/Peripheral/ch32v30x_usbotg_device.c:428
                                len = sizeof(LineCoding);
    37e8:	479d                	li	a5,7
    37ea:	fef407a3          	sb	a5,-17(s0)
C:/Users/86158/Desktop/IEECS-Design/Hardware/Reference/CHV307_Library-master/Example/libraries/sdk/Peripheral/ch32v30x_usbotg_device.c:429
                                len = SetupReqLen >= DEFAULT_ENDP0_SIZE ? DEFAULT_ENDP0_SIZE : SetupReqLen;  // 本次传输长度
    37ee:	86e1d783          	lhu	a5,-1938(gp) # 2000029e <SetupReqLen>
    37f2:	01079713          	slli	a4,a5,0x10
    37f6:	8341                	srli	a4,a4,0x10
    37f8:	479d                	li	a5,7
    37fa:	00e7e963          	bltu	a5,a4,380c <OTG_FS_IRQHandler+0x10e>
C:/Users/86158/Desktop/IEECS-Design/Hardware/Reference/CHV307_Library-master/Example/libraries/sdk/Peripheral/ch32v30x_usbotg_device.c:429 (discriminator 1)
    37fe:	86e1d783          	lhu	a5,-1938(gp) # 2000029e <SetupReqLen>
    3802:	07c2                	slli	a5,a5,0x10
    3804:	83c1                	srli	a5,a5,0x10
    3806:	0ff7f793          	andi	a5,a5,255
    380a:	a011                	j	380e <OTG_FS_IRQHandler+0x110>
C:/Users/86158/Desktop/IEECS-Design/Hardware/Reference/CHV307_Library-master/Example/libraries/sdk/Peripheral/ch32v30x_usbotg_device.c:429 (discriminator 2)
    380c:	47a1                	li	a5,8
C:/Users/86158/Desktop/IEECS-Design/Hardware/Reference/CHV307_Library-master/Example/libraries/sdk/Peripheral/ch32v30x_usbotg_device.c:429 (discriminator 4)
    380e:	fef407a3          	sb	a5,-17(s0)
C:/Users/86158/Desktop/IEECS-Design/Hardware/Reference/CHV307_Library-master/Example/libraries/sdk/Peripheral/ch32v30x_usbotg_device.c:430 (discriminator 4)
                                memcpy(pEP0_DataBuf,pDescr,len);
    3812:	8581a703          	lw	a4,-1960(gp) # 20000288 <pEP0_RAM_Addr>
    3816:	8641a783          	lw	a5,-1948(gp) # 20000294 <pDescr>
    381a:	fef44683          	lbu	a3,-17(s0)
    381e:	8636                	mv	a2,a3
    3820:	85be                	mv	a1,a5
    3822:	853a                	mv	a0,a4
    3824:	692020ef          	jal	ra,5eb6 <memcpy>
C:/Users/86158/Desktop/IEECS-Design/Hardware/Reference/CHV307_Library-master/Example/libraries/sdk/Peripheral/ch32v30x_usbotg_device.c:431 (discriminator 4)
                                SetupReqLen -= len;
    3828:	86e1d783          	lhu	a5,-1938(gp) # 2000029e <SetupReqLen>
    382c:	01079713          	slli	a4,a5,0x10
    3830:	8341                	srli	a4,a4,0x10
    3832:	fef44783          	lbu	a5,-17(s0)
    3836:	07c2                	slli	a5,a5,0x10
    3838:	83c1                	srli	a5,a5,0x10
    383a:	40f707b3          	sub	a5,a4,a5
    383e:	01079713          	slli	a4,a5,0x10
    3842:	8341                	srli	a4,a4,0x10
    3844:	86e19723          	sh	a4,-1938(gp) # 2000029e <SetupReqLen>
C:/Users/86158/Desktop/IEECS-Design/Hardware/Reference/CHV307_Library-master/Example/libraries/sdk/Peripheral/ch32v30x_usbotg_device.c:432 (discriminator 4)
                                pDescr += len;
    3848:	8641a703          	lw	a4,-1948(gp) # 20000294 <pDescr>
    384c:	fef44783          	lbu	a5,-17(s0)
    3850:	973e                	add	a4,a4,a5
    3852:	86e1a223          	sw	a4,-1948(gp) # 20000294 <pDescr>
C:/Users/86158/Desktop/IEECS-Design/Hardware/Reference/CHV307_Library-master/Example/libraries/sdk/Peripheral/ch32v30x_usbotg_device.c:433 (discriminator 4)
                            break;
    3856:	a811                	j	386a <OTG_FS_IRQHandler+0x16c>
C:/Users/86158/Desktop/IEECS-Design/Hardware/Reference/CHV307_Library-master/Example/libraries/sdk/Peripheral/ch32v30x_usbotg_device.c:442
                                errflag = 0xFF;
    3858:	57fd                	li	a5,-1
    385a:	fef40723          	sb	a5,-18(s0)
    385e:	a031                	j	386a <OTG_FS_IRQHandler+0x16c>
C:/Users/86158/Desktop/IEECS-Design/Hardware/Reference/CHV307_Library-master/Example/libraries/sdk/Peripheral/ch32v30x_usbotg_device.c:444
                    }
    3860:	0001                	nop
    3862:	a021                	j	386a <OTG_FS_IRQHandler+0x16c>
C:/Users/86158/Desktop/IEECS-Design/Hardware/Reference/CHV307_Library-master/Example/libraries/sdk/Peripheral/ch32v30x_usbotg_device.c:436
                            break;
    3864:	0001                	nop
    3866:	a011                	j	386a <OTG_FS_IRQHandler+0x16c>
C:/Users/86158/Desktop/IEECS-Design/Hardware/Reference/CHV307_Library-master/Example/libraries/sdk/Peripheral/ch32v30x_usbotg_device.c:439
                            break;
    3868:	0001                	nop
C:/Users/86158/Desktop/IEECS-Design/Hardware/Reference/CHV307_Library-master/Example/libraries/sdk/Peripheral/ch32v30x_usbotg_device.c:461
                    if( errflag != 0xFF )
    386a:	fee44703          	lbu	a4,-18(s0)
    386e:	0ff00793          	li	a5,255
    3872:	68f70363          	beq	a4,a5,3ef8 <OTG_FS_IRQHandler+0x7fa>
C:/Users/86158/Desktop/IEECS-Design/Hardware/Reference/CHV307_Library-master/Example/libraries/sdk/Peripheral/ch32v30x_usbotg_device.c:463
                        if( SetupReqLen > len )
    3876:	fef44783          	lbu	a5,-17(s0)
    387a:	01079713          	slli	a4,a5,0x10
    387e:	8341                	srli	a4,a4,0x10
    3880:	86e1d783          	lhu	a5,-1938(gp) # 2000029e <SetupReqLen>
    3884:	07c2                	slli	a5,a5,0x10
    3886:	83c1                	srli	a5,a5,0x10
    3888:	00f77963          	bgeu	a4,a5,389a <OTG_FS_IRQHandler+0x19c>
C:/Users/86158/Desktop/IEECS-Design/Hardware/Reference/CHV307_Library-master/Example/libraries/sdk/Peripheral/ch32v30x_usbotg_device.c:465
                            SetupReqLen = len;
    388c:	fef44783          	lbu	a5,-17(s0)
    3890:	01079713          	slli	a4,a5,0x10
    3894:	8341                	srli	a4,a4,0x10
    3896:	86e19723          	sh	a4,-1938(gp) # 2000029e <SetupReqLen>
C:/Users/86158/Desktop/IEECS-Design/Hardware/Reference/CHV307_Library-master/Example/libraries/sdk/Peripheral/ch32v30x_usbotg_device.c:467
                        len = ( USBHD_Dev_SetupReqLen >= DevEP0SIZE ) ? DevEP0SIZE : USBHD_Dev_SetupReqLen;
    389a:	8681d783          	lhu	a5,-1944(gp) # 20000298 <USBHD_Dev_SetupReqLen>
    389e:	01079713          	slli	a4,a5,0x10
    38a2:	8341                	srli	a4,a4,0x10
    38a4:	479d                	li	a5,7
    38a6:	00e7e963          	bltu	a5,a4,38b8 <OTG_FS_IRQHandler+0x1ba>
C:/Users/86158/Desktop/IEECS-Design/Hardware/Reference/CHV307_Library-master/Example/libraries/sdk/Peripheral/ch32v30x_usbotg_device.c:467 (discriminator 1)
    38aa:	8681d783          	lhu	a5,-1944(gp) # 20000298 <USBHD_Dev_SetupReqLen>
    38ae:	07c2                	slli	a5,a5,0x10
    38b0:	83c1                	srli	a5,a5,0x10
    38b2:	0ff7f793          	andi	a5,a5,255
    38b6:	a011                	j	38ba <OTG_FS_IRQHandler+0x1bc>
C:/Users/86158/Desktop/IEECS-Design/Hardware/Reference/CHV307_Library-master/Example/libraries/sdk/Peripheral/ch32v30x_usbotg_device.c:467 (discriminator 2)
    38b8:	47a1                	li	a5,8
C:/Users/86158/Desktop/IEECS-Design/Hardware/Reference/CHV307_Library-master/Example/libraries/sdk/Peripheral/ch32v30x_usbotg_device.c:467 (discriminator 4)
    38ba:	fef407a3          	sb	a5,-17(s0)
C:/Users/86158/Desktop/IEECS-Design/Hardware/Reference/CHV307_Library-master/Example/libraries/sdk/Peripheral/ch32v30x_usbotg_device.c:468 (discriminator 4)
                        memcpy( EP0_DatabufHD, pDescr, len );
    38be:	8641a783          	lw	a5,-1948(gp) # 20000294 <pDescr>
    38c2:	fef44703          	lbu	a4,-17(s0)
    38c6:	863a                	mv	a2,a4
    38c8:	85be                	mv	a1,a5
    38ca:	85018513          	addi	a0,gp,-1968 # 20000280 <EP0_DatabufHD>
    38ce:	5e8020ef          	jal	ra,5eb6 <memcpy>
C:/Users/86158/Desktop/IEECS-Design/Hardware/Reference/CHV307_Library-master/Example/libraries/sdk/Peripheral/ch32v30x_usbotg_device.c:469 (discriminator 4)
                        pDescr += len;
    38d2:	8641a703          	lw	a4,-1948(gp) # 20000294 <pDescr>
    38d6:	fef44783          	lbu	a5,-17(s0)
    38da:	973e                	add	a4,a4,a5
    38dc:	86e1a223          	sw	a4,-1948(gp) # 20000294 <pDescr>
    38e0:	ad21                	j	3ef8 <OTG_FS_IRQHandler+0x7fa>
C:/Users/86158/Desktop/IEECS-Design/Hardware/Reference/CHV307_Library-master/Example/libraries/sdk/Peripheral/ch32v30x_usbotg_device.c:475
                    switch( SetupReqCode )
    38e2:	86c1c783          	lbu	a5,-1940(gp) # 2000029c <SetupReqCode>
    38e6:	0ff7f793          	andi	a5,a5,255
    38ea:	472d                	li	a4,11
    38ec:	5ef76b63          	bltu	a4,a5,3ee2 <OTG_FS_IRQHandler+0x7e4>
    38f0:	00279713          	slli	a4,a5,0x2
    38f4:	67a5                	lui	a5,0x9
    38f6:	67c78793          	addi	a5,a5,1660 # 967c <MyUSBQUADescHD+0xc>
    38fa:	97ba                	add	a5,a5,a4
    38fc:	439c                	lw	a5,0(a5)
    38fe:	8782                	jr	a5
C:/Users/86158/Desktop/IEECS-Design/Hardware/Reference/CHV307_Library-master/Example/libraries/sdk/Peripheral/ch32v30x_usbotg_device.c:479 (discriminator 1)
                            switch( ((pSetupReqPakHD->wValue)>>8) )
    3900:	8581a783          	lw	a5,-1960(gp) # 20000288 <pEP0_RAM_Addr>
    3904:	0027c703          	lbu	a4,2(a5)
    3908:	0037c783          	lbu	a5,3(a5)
    390c:	07a2                	slli	a5,a5,0x8
    390e:	8fd9                	or	a5,a5,a4
    3910:	07c2                	slli	a5,a5,0x10
    3912:	83c1                	srli	a5,a5,0x10
    3914:	83a1                	srli	a5,a5,0x8
    3916:	07c2                	slli	a5,a5,0x10
    3918:	83c1                	srli	a5,a5,0x10
    391a:	02200713          	li	a4,34
    391e:	12f76563          	bltu	a4,a5,3a48 <OTG_FS_IRQHandler+0x34a>
    3922:	00279713          	slli	a4,a5,0x2
    3926:	67a5                	lui	a5,0x9
    3928:	6ac78793          	addi	a5,a5,1708 # 96ac <MyUSBQUADescHD+0x3c>
    392c:	97ba                	add	a5,a5,a4
    392e:	439c                	lw	a5,0(a5)
    3930:	8782                	jr	a5
C:/Users/86158/Desktop/IEECS-Design/Hardware/Reference/CHV307_Library-master/Example/libraries/sdk/Peripheral/ch32v30x_usbotg_device.c:483
                                    pDescr = MyDevDescrHD;
    3932:	6725                	lui	a4,0x9
    3934:	5d070713          	addi	a4,a4,1488 # 95d0 <MyDevDescrHD>
    3938:	86e1a223          	sw	a4,-1948(gp) # 20000294 <pDescr>
C:/Users/86158/Desktop/IEECS-Design/Hardware/Reference/CHV307_Library-master/Example/libraries/sdk/Peripheral/ch32v30x_usbotg_device.c:484
                                    len = MyDevDescrHD[0];
    393c:	47c9                	li	a5,18
    393e:	fef407a3          	sb	a5,-17(s0)
C:/Users/86158/Desktop/IEECS-Design/Hardware/Reference/CHV307_Library-master/Example/libraries/sdk/Peripheral/ch32v30x_usbotg_device.c:485
                                    break;
    3942:	a239                	j	3a50 <OTG_FS_IRQHandler+0x352>
C:/Users/86158/Desktop/IEECS-Design/Hardware/Reference/CHV307_Library-master/Example/libraries/sdk/Peripheral/ch32v30x_usbotg_device.c:489
                                    pDescr = MyCfgDescrHD;
    3944:	6725                	lui	a4,0x9
    3946:	5e470713          	addi	a4,a4,1508 # 95e4 <MyCfgDescrHD>
    394a:	86e1a223          	sw	a4,-1948(gp) # 20000294 <pDescr>
C:/Users/86158/Desktop/IEECS-Design/Hardware/Reference/CHV307_Library-master/Example/libraries/sdk/Peripheral/ch32v30x_usbotg_device.c:490
                                    len = MyCfgDescrHD[2];
    394e:	04300793          	li	a5,67
    3952:	fef407a3          	sb	a5,-17(s0)
C:/Users/86158/Desktop/IEECS-Design/Hardware/Reference/CHV307_Library-master/Example/libraries/sdk/Peripheral/ch32v30x_usbotg_device.c:491
                                    break;
    3956:	a8ed                	j	3a50 <OTG_FS_IRQHandler+0x352>
C:/Users/86158/Desktop/IEECS-Design/Hardware/Reference/CHV307_Library-master/Example/libraries/sdk/Peripheral/ch32v30x_usbotg_device.c:495 (discriminator 2)
                                    switch( (pSetupReqPakHD->wValue)&0xff )
    3958:	8581a783          	lw	a5,-1960(gp) # 20000288 <pEP0_RAM_Addr>
    395c:	0027c703          	lbu	a4,2(a5)
    3960:	0037c783          	lbu	a5,3(a5)
    3964:	07a2                	slli	a5,a5,0x8
    3966:	8fd9                	or	a5,a5,a4
    3968:	07c2                	slli	a5,a5,0x10
    396a:	83c1                	srli	a5,a5,0x10
    396c:	0ff7f793          	andi	a5,a5,255
    3970:	4705                	li	a4,1
    3972:	02e78663          	beq	a5,a4,399e <OTG_FS_IRQHandler+0x2a0>
    3976:	4705                	li	a4,1
    3978:	00f74463          	blt	a4,a5,3980 <OTG_FS_IRQHandler+0x282>
    397c:	cb89                	beqz	a5,398e <OTG_FS_IRQHandler+0x290>
    397e:	a899                	j	39d4 <OTG_FS_IRQHandler+0x2d6>
    3980:	4709                	li	a4,2
    3982:	02e78763          	beq	a5,a4,39b0 <OTG_FS_IRQHandler+0x2b2>
    3986:	470d                	li	a4,3
    3988:	02e78d63          	beq	a5,a4,39c2 <OTG_FS_IRQHandler+0x2c4>
    398c:	a0a1                	j	39d4 <OTG_FS_IRQHandler+0x2d6>
C:/Users/86158/Desktop/IEECS-Design/Hardware/Reference/CHV307_Library-master/Example/libraries/sdk/Peripheral/ch32v30x_usbotg_device.c:499
                                        pDescr = MyLangDescrHD;
    398e:	81818713          	addi	a4,gp,-2024 # 20000248 <MyLangDescrHD>
    3992:	86e1a223          	sw	a4,-1948(gp) # 20000294 <pDescr>
C:/Users/86158/Desktop/IEECS-Design/Hardware/Reference/CHV307_Library-master/Example/libraries/sdk/Peripheral/ch32v30x_usbotg_device.c:500
                                        len = MyLangDescrHD[0];
    3996:	4791                	li	a5,4
    3998:	fef407a3          	sb	a5,-17(s0)
C:/Users/86158/Desktop/IEECS-Design/Hardware/Reference/CHV307_Library-master/Example/libraries/sdk/Peripheral/ch32v30x_usbotg_device.c:501
                                            break;
    399c:	a081                	j	39dc <OTG_FS_IRQHandler+0x2de>
C:/Users/86158/Desktop/IEECS-Design/Hardware/Reference/CHV307_Library-master/Example/libraries/sdk/Peripheral/ch32v30x_usbotg_device.c:505
                                            pDescr = MyManuInfoHD;
    399e:	6725                	lui	a4,0x9
    39a0:	63c70713          	addi	a4,a4,1596 # 963c <MyManuInfoHD>
    39a4:	86e1a223          	sw	a4,-1948(gp) # 20000294 <pDescr>
C:/Users/86158/Desktop/IEECS-Design/Hardware/Reference/CHV307_Library-master/Example/libraries/sdk/Peripheral/ch32v30x_usbotg_device.c:506
                                            len = MyManuInfoHD[0];
    39a8:	47b9                	li	a5,14
    39aa:	fef407a3          	sb	a5,-17(s0)
C:/Users/86158/Desktop/IEECS-Design/Hardware/Reference/CHV307_Library-master/Example/libraries/sdk/Peripheral/ch32v30x_usbotg_device.c:507
                                            break;
    39ae:	a03d                	j	39dc <OTG_FS_IRQHandler+0x2de>
C:/Users/86158/Desktop/IEECS-Design/Hardware/Reference/CHV307_Library-master/Example/libraries/sdk/Peripheral/ch32v30x_usbotg_device.c:511
                                            pDescr = MyProdInfoHD;
    39b0:	6725                	lui	a4,0x9
    39b2:	64c70713          	addi	a4,a4,1612 # 964c <MyProdInfoHD>
    39b6:	86e1a223          	sw	a4,-1948(gp) # 20000294 <pDescr>
C:/Users/86158/Desktop/IEECS-Design/Hardware/Reference/CHV307_Library-master/Example/libraries/sdk/Peripheral/ch32v30x_usbotg_device.c:512
                                            len = MyProdInfoHD[0];
    39ba:	47b1                	li	a5,12
    39bc:	fef407a3          	sb	a5,-17(s0)
C:/Users/86158/Desktop/IEECS-Design/Hardware/Reference/CHV307_Library-master/Example/libraries/sdk/Peripheral/ch32v30x_usbotg_device.c:513
                                            break;
    39c0:	a831                	j	39dc <OTG_FS_IRQHandler+0x2de>
C:/Users/86158/Desktop/IEECS-Design/Hardware/Reference/CHV307_Library-master/Example/libraries/sdk/Peripheral/ch32v30x_usbotg_device.c:517
                                            pDescr = MySerNumInfoHD;
    39c2:	6725                	lui	a4,0x9
    39c4:	65870713          	addi	a4,a4,1624 # 9658 <MySerNumInfoHD>
    39c8:	86e1a223          	sw	a4,-1948(gp) # 20000294 <pDescr>
C:/Users/86158/Desktop/IEECS-Design/Hardware/Reference/CHV307_Library-master/Example/libraries/sdk/Peripheral/ch32v30x_usbotg_device.c:518
                                            len = sizeof( MySerNumInfoHD );
    39cc:	47d9                	li	a5,22
    39ce:	fef407a3          	sb	a5,-17(s0)
C:/Users/86158/Desktop/IEECS-Design/Hardware/Reference/CHV307_Library-master/Example/libraries/sdk/Peripheral/ch32v30x_usbotg_device.c:519
                                            break;
    39d2:	a029                	j	39dc <OTG_FS_IRQHandler+0x2de>
C:/Users/86158/Desktop/IEECS-Design/Hardware/Reference/CHV307_Library-master/Example/libraries/sdk/Peripheral/ch32v30x_usbotg_device.c:522
                                            errflag = 0xFF;
    39d4:	57fd                	li	a5,-1
    39d6:	fef40723          	sb	a5,-18(s0)
C:/Users/86158/Desktop/IEECS-Design/Hardware/Reference/CHV307_Library-master/Example/libraries/sdk/Peripheral/ch32v30x_usbotg_device.c:523
                                            break;
    39da:	0001                	nop
C:/Users/86158/Desktop/IEECS-Design/Hardware/Reference/CHV307_Library-master/Example/libraries/sdk/Peripheral/ch32v30x_usbotg_device.c:525
                                    break;
    39dc:	a895                	j	3a50 <OTG_FS_IRQHandler+0x352>
C:/Users/86158/Desktop/IEECS-Design/Hardware/Reference/CHV307_Library-master/Example/libraries/sdk/Peripheral/ch32v30x_usbotg_device.c:529
                                    pDescr = MyReportDescHD;
    39de:	6725                	lui	a4,0x9
    39e0:	62870713          	addi	a4,a4,1576 # 9628 <MyReportDescHD>
    39e4:	86e1a223          	sw	a4,-1948(gp) # 20000294 <pDescr>
C:/Users/86158/Desktop/IEECS-Design/Hardware/Reference/CHV307_Library-master/Example/libraries/sdk/Peripheral/ch32v30x_usbotg_device.c:530
                                    len = sizeof( MyReportDescHD );
    39e8:	47d1                	li	a5,20
    39ea:	fef407a3          	sb	a5,-17(s0)
C:/Users/86158/Desktop/IEECS-Design/Hardware/Reference/CHV307_Library-master/Example/libraries/sdk/Peripheral/ch32v30x_usbotg_device.c:531
                                    break;
    39ee:	a08d                	j	3a50 <OTG_FS_IRQHandler+0x352>
C:/Users/86158/Desktop/IEECS-Design/Hardware/Reference/CHV307_Library-master/Example/libraries/sdk/Peripheral/ch32v30x_usbotg_device.c:535
                                    pDescr = ( PUINT8 )&MyUSBQUADescHD[ 0 ];
    39f0:	6725                	lui	a4,0x9
    39f2:	67070713          	addi	a4,a4,1648 # 9670 <MyUSBQUADescHD>
    39f6:	86e1a223          	sw	a4,-1948(gp) # 20000294 <pDescr>
C:/Users/86158/Desktop/IEECS-Design/Hardware/Reference/CHV307_Library-master/Example/libraries/sdk/Peripheral/ch32v30x_usbotg_device.c:536
                                    len = sizeof( MyUSBQUADescHD );
    39fa:	47a9                	li	a5,10
    39fc:	fef407a3          	sb	a5,-17(s0)
C:/Users/86158/Desktop/IEECS-Design/Hardware/Reference/CHV307_Library-master/Example/libraries/sdk/Peripheral/ch32v30x_usbotg_device.c:537
                                    break;
    3a00:	a881                	j	3a50 <OTG_FS_IRQHandler+0x352>
C:/Users/86158/Desktop/IEECS-Design/Hardware/Reference/CHV307_Library-master/Example/libraries/sdk/Peripheral/ch32v30x_usbotg_device.c:542
                                    if( USBHD_Dev_Speed == 0x00 )
    3a02:	8081c783          	lbu	a5,-2040(gp) # 20000238 <USBHD_Dev_Speed>
    3a06:	0ff7f793          	andi	a5,a5,255
    3a0a:	e79d                	bnez	a5,3a38 <OTG_FS_IRQHandler+0x33a>
C:/Users/86158/Desktop/IEECS-Design/Hardware/Reference/CHV307_Library-master/Example/libraries/sdk/Peripheral/ch32v30x_usbotg_device.c:545
                                      memcpy( &TAB_USB_FS_OSC_DESC[ 2 ], &MyCfgDescrHD[ 2 ], sizeof( MyCfgDescrHD ) - 2 );
    3a0c:	04100613          	li	a2,65
    3a10:	67a5                	lui	a5,0x9
    3a12:	5e678593          	addi	a1,a5,1510 # 95e6 <MyCfgDescrHD+0x2>
    3a16:	200007b7          	lui	a5,0x20000
    3a1a:	01e78513          	addi	a0,a5,30 # 2000001e <TAB_USB_FS_OSC_DESC+0x2>
    3a1e:	498020ef          	jal	ra,5eb6 <memcpy>
C:/Users/86158/Desktop/IEECS-Design/Hardware/Reference/CHV307_Library-master/Example/libraries/sdk/Peripheral/ch32v30x_usbotg_device.c:546
                                      pDescr = ( PUINT8 )&TAB_USB_FS_OSC_DESC[ 0 ];
    3a22:	20000737          	lui	a4,0x20000
    3a26:	01c70713          	addi	a4,a4,28 # 2000001c <TAB_USB_FS_OSC_DESC>
    3a2a:	86e1a223          	sw	a4,-1948(gp) # 20000294 <pDescr>
C:/Users/86158/Desktop/IEECS-Design/Hardware/Reference/CHV307_Library-master/Example/libraries/sdk/Peripheral/ch32v30x_usbotg_device.c:547
                                      len = sizeof( TAB_USB_FS_OSC_DESC );
    3a2e:	04300793          	li	a5,67
    3a32:	fef407a3          	sb	a5,-17(s0)
C:/Users/86158/Desktop/IEECS-Design/Hardware/Reference/CHV307_Library-master/Example/libraries/sdk/Peripheral/ch32v30x_usbotg_device.c:553
                                    break;
    3a36:	a829                	j	3a50 <OTG_FS_IRQHandler+0x352>
C:/Users/86158/Desktop/IEECS-Design/Hardware/Reference/CHV307_Library-master/Example/libraries/sdk/Peripheral/ch32v30x_usbotg_device.c:551
                                      errflag = 0xFF;
    3a38:	57fd                	li	a5,-1
    3a3a:	fef40723          	sb	a5,-18(s0)
C:/Users/86158/Desktop/IEECS-Design/Hardware/Reference/CHV307_Library-master/Example/libraries/sdk/Peripheral/ch32v30x_usbotg_device.c:553
                                    break;
    3a3e:	a809                	j	3a50 <OTG_FS_IRQHandler+0x352>
C:/Users/86158/Desktop/IEECS-Design/Hardware/Reference/CHV307_Library-master/Example/libraries/sdk/Peripheral/ch32v30x_usbotg_device.c:558
                                    errflag = 0xFF;
    3a40:	57fd                	li	a5,-1
    3a42:	fef40723          	sb	a5,-18(s0)
C:/Users/86158/Desktop/IEECS-Design/Hardware/Reference/CHV307_Library-master/Example/libraries/sdk/Peripheral/ch32v30x_usbotg_device.c:559
                                    break;
    3a46:	a029                	j	3a50 <OTG_FS_IRQHandler+0x352>
C:/Users/86158/Desktop/IEECS-Design/Hardware/Reference/CHV307_Library-master/Example/libraries/sdk/Peripheral/ch32v30x_usbotg_device.c:562
                                    errflag = 0xff;
    3a48:	57fd                	li	a5,-1
    3a4a:	fef40723          	sb	a5,-18(s0)
C:/Users/86158/Desktop/IEECS-Design/Hardware/Reference/CHV307_Library-master/Example/libraries/sdk/Peripheral/ch32v30x_usbotg_device.c:563
                                    break;
    3a4e:	0001                	nop
C:/Users/86158/Desktop/IEECS-Design/Hardware/Reference/CHV307_Library-master/Example/libraries/sdk/Peripheral/ch32v30x_usbotg_device.c:567
                            if( SetupReqLen>len )   SetupReqLen = len;
    3a50:	fef44783          	lbu	a5,-17(s0)
    3a54:	01079713          	slli	a4,a5,0x10
    3a58:	8341                	srli	a4,a4,0x10
    3a5a:	86e1d783          	lhu	a5,-1938(gp) # 2000029e <SetupReqLen>
    3a5e:	07c2                	slli	a5,a5,0x10
    3a60:	83c1                	srli	a5,a5,0x10
    3a62:	00f77963          	bgeu	a4,a5,3a74 <OTG_FS_IRQHandler+0x376>
C:/Users/86158/Desktop/IEECS-Design/Hardware/Reference/CHV307_Library-master/Example/libraries/sdk/Peripheral/ch32v30x_usbotg_device.c:567 (discriminator 1)
    3a66:	fef44783          	lbu	a5,-17(s0)
    3a6a:	01079713          	slli	a4,a5,0x10
    3a6e:	8341                	srli	a4,a4,0x10
    3a70:	86e19723          	sh	a4,-1938(gp) # 2000029e <SetupReqLen>
C:/Users/86158/Desktop/IEECS-Design/Hardware/Reference/CHV307_Library-master/Example/libraries/sdk/Peripheral/ch32v30x_usbotg_device.c:568
                            len = (SetupReqLen >= DevEP0SIZE) ? DevEP0SIZE : SetupReqLen;
    3a74:	86e1d783          	lhu	a5,-1938(gp) # 2000029e <SetupReqLen>
    3a78:	01079713          	slli	a4,a5,0x10
    3a7c:	8341                	srli	a4,a4,0x10
    3a7e:	479d                	li	a5,7
    3a80:	00e7e963          	bltu	a5,a4,3a92 <OTG_FS_IRQHandler+0x394>
C:/Users/86158/Desktop/IEECS-Design/Hardware/Reference/CHV307_Library-master/Example/libraries/sdk/Peripheral/ch32v30x_usbotg_device.c:568 (discriminator 1)
    3a84:	86e1d783          	lhu	a5,-1938(gp) # 2000029e <SetupReqLen>
    3a88:	07c2                	slli	a5,a5,0x10
    3a8a:	83c1                	srli	a5,a5,0x10
    3a8c:	0ff7f793          	andi	a5,a5,255
    3a90:	a011                	j	3a94 <OTG_FS_IRQHandler+0x396>
C:/Users/86158/Desktop/IEECS-Design/Hardware/Reference/CHV307_Library-master/Example/libraries/sdk/Peripheral/ch32v30x_usbotg_device.c:568 (discriminator 2)
    3a92:	47a1                	li	a5,8
C:/Users/86158/Desktop/IEECS-Design/Hardware/Reference/CHV307_Library-master/Example/libraries/sdk/Peripheral/ch32v30x_usbotg_device.c:568 (discriminator 4)
    3a94:	fef407a3          	sb	a5,-17(s0)
C:/Users/86158/Desktop/IEECS-Design/Hardware/Reference/CHV307_Library-master/Example/libraries/sdk/Peripheral/ch32v30x_usbotg_device.c:569 (discriminator 4)
                            memcpy( pEP0_DataBuf, pDescr, len );
    3a98:	8581a703          	lw	a4,-1960(gp) # 20000288 <pEP0_RAM_Addr>
    3a9c:	8641a783          	lw	a5,-1948(gp) # 20000294 <pDescr>
    3aa0:	fef44683          	lbu	a3,-17(s0)
    3aa4:	8636                	mv	a2,a3
    3aa6:	85be                	mv	a1,a5
    3aa8:	853a                	mv	a0,a4
    3aaa:	40c020ef          	jal	ra,5eb6 <memcpy>
C:/Users/86158/Desktop/IEECS-Design/Hardware/Reference/CHV307_Library-master/Example/libraries/sdk/Peripheral/ch32v30x_usbotg_device.c:570 (discriminator 4)
                            pDescr += len;
    3aae:	8641a703          	lw	a4,-1948(gp) # 20000294 <pDescr>
    3ab2:	fef44783          	lbu	a5,-17(s0)
    3ab6:	973e                	add	a4,a4,a5
    3ab8:	86e1a223          	sw	a4,-1948(gp) # 20000294 <pDescr>
C:/Users/86158/Desktop/IEECS-Design/Hardware/Reference/CHV307_Library-master/Example/libraries/sdk/Peripheral/ch32v30x_usbotg_device.c:572 (discriminator 4)
                            break;
    3abc:	a935                	j	3ef8 <OTG_FS_IRQHandler+0x7fa>
C:/Users/86158/Desktop/IEECS-Design/Hardware/Reference/CHV307_Library-master/Example/libraries/sdk/Peripheral/ch32v30x_usbotg_device.c:576
                            SetupReqLen = (pSetupReqPakHD->wValue)&0xff;
    3abe:	8581a783          	lw	a5,-1960(gp) # 20000288 <pEP0_RAM_Addr>
    3ac2:	0027c703          	lbu	a4,2(a5)
    3ac6:	0037c783          	lbu	a5,3(a5)
    3aca:	07a2                	slli	a5,a5,0x8
    3acc:	8fd9                	or	a5,a5,a4
    3ace:	07c2                	slli	a5,a5,0x10
    3ad0:	83c1                	srli	a5,a5,0x10
    3ad2:	0ff7f793          	andi	a5,a5,255
    3ad6:	01079713          	slli	a4,a5,0x10
    3ada:	8341                	srli	a4,a4,0x10
    3adc:	86e19723          	sh	a4,-1938(gp) # 2000029e <SetupReqLen>
C:/Users/86158/Desktop/IEECS-Design/Hardware/Reference/CHV307_Library-master/Example/libraries/sdk/Peripheral/ch32v30x_usbotg_device.c:577
                            break;
    3ae0:	a921                	j	3ef8 <OTG_FS_IRQHandler+0x7fa>
C:/Users/86158/Desktop/IEECS-Design/Hardware/Reference/CHV307_Library-master/Example/libraries/sdk/Peripheral/ch32v30x_usbotg_device.c:581
                            pEP0_DataBuf[0] = DevConfig;
    3ae2:	8581a783          	lw	a5,-1960(gp) # 20000288 <pEP0_RAM_Addr>
    3ae6:	86b1c703          	lbu	a4,-1941(gp) # 2000029b <DevConfig>
    3aea:	0ff77713          	andi	a4,a4,255
    3aee:	00e78023          	sb	a4,0(a5)
C:/Users/86158/Desktop/IEECS-Design/Hardware/Reference/CHV307_Library-master/Example/libraries/sdk/Peripheral/ch32v30x_usbotg_device.c:582
                            if ( SetupReqLen > 1 ) SetupReqLen = 1;
    3af2:	86e1d783          	lhu	a5,-1938(gp) # 2000029e <SetupReqLen>
    3af6:	01079713          	slli	a4,a5,0x10
    3afa:	8341                	srli	a4,a4,0x10
    3afc:	4785                	li	a5,1
    3afe:	3ee7f663          	bgeu	a5,a4,3eea <OTG_FS_IRQHandler+0x7ec>
C:/Users/86158/Desktop/IEECS-Design/Hardware/Reference/CHV307_Library-master/Example/libraries/sdk/Peripheral/ch32v30x_usbotg_device.c:582 (discriminator 1)
    3b02:	4705                	li	a4,1
    3b04:	86e19723          	sh	a4,-1938(gp) # 2000029e <SetupReqLen>
C:/Users/86158/Desktop/IEECS-Design/Hardware/Reference/CHV307_Library-master/Example/libraries/sdk/Peripheral/ch32v30x_usbotg_device.c:583 (discriminator 1)
                            break;
    3b08:	a6cd                	j	3eea <OTG_FS_IRQHandler+0x7ec>
C:/Users/86158/Desktop/IEECS-Design/Hardware/Reference/CHV307_Library-master/Example/libraries/sdk/Peripheral/ch32v30x_usbotg_device.c:587
                            DevConfig = (pSetupReqPakHD->wValue)&0xff;
    3b0a:	8581a783          	lw	a5,-1960(gp) # 20000288 <pEP0_RAM_Addr>
    3b0e:	0027c703          	lbu	a4,2(a5)
    3b12:	0037c783          	lbu	a5,3(a5)
    3b16:	07a2                	slli	a5,a5,0x8
    3b18:	8fd9                	or	a5,a5,a4
    3b1a:	07c2                	slli	a5,a5,0x10
    3b1c:	83c1                	srli	a5,a5,0x10
    3b1e:	0ff7f713          	andi	a4,a5,255
    3b22:	86e185a3          	sb	a4,-1941(gp) # 2000029b <DevConfig>
C:/Users/86158/Desktop/IEECS-Design/Hardware/Reference/CHV307_Library-master/Example/libraries/sdk/Peripheral/ch32v30x_usbotg_device.c:588
                            break;
    3b26:	aec9                	j	3ef8 <OTG_FS_IRQHandler+0x7fa>
C:/Users/86158/Desktop/IEECS-Design/Hardware/Reference/CHV307_Library-master/Example/libraries/sdk/Peripheral/ch32v30x_usbotg_device.c:592
                            if ( ( pSetupReqPakHD->bRequestType & USB_REQ_RECIP_MASK ) == USB_REQ_RECIP_ENDP )
    3b28:	8581a783          	lw	a5,-1960(gp) # 20000288 <pEP0_RAM_Addr>
    3b2c:	0007c783          	lbu	a5,0(a5)
    3b30:	01f7f713          	andi	a4,a5,31
    3b34:	4789                	li	a5,2
    3b36:	0cf71f63          	bne	a4,a5,3c14 <OTG_FS_IRQHandler+0x516>
C:/Users/86158/Desktop/IEECS-Design/Hardware/Reference/CHV307_Library-master/Example/libraries/sdk/Peripheral/ch32v30x_usbotg_device.c:595
                                switch( (pSetupReqPakHD->wIndex)&0xff )
    3b3a:	8581a783          	lw	a5,-1960(gp) # 20000288 <pEP0_RAM_Addr>
    3b3e:	0047c703          	lbu	a4,4(a5)
    3b42:	0057c783          	lbu	a5,5(a5)
    3b46:	07a2                	slli	a5,a5,0x8
    3b48:	8fd9                	or	a5,a5,a4
    3b4a:	07c2                	slli	a5,a5,0x10
    3b4c:	83c1                	srli	a5,a5,0x10
    3b4e:	0ff7f793          	andi	a5,a5,255
    3b52:	4709                	li	a4,2
    3b54:	04e78863          	beq	a5,a4,3ba4 <OTG_FS_IRQHandler+0x4a6>
    3b58:	4709                	li	a4,2
    3b5a:	00f74663          	blt	a4,a5,3b66 <OTG_FS_IRQHandler+0x468>
    3b5e:	4705                	li	a4,1
    3b60:	08e78763          	beq	a5,a4,3bee <OTG_FS_IRQHandler+0x4f0>
    3b64:	a05d                	j	3c0a <OTG_FS_IRQHandler+0x50c>
    3b66:	08100713          	li	a4,129
    3b6a:	04e78b63          	beq	a5,a4,3bc0 <OTG_FS_IRQHandler+0x4c2>
    3b6e:	08200713          	li	a4,130
    3b72:	08e79c63          	bne	a5,a4,3c0a <OTG_FS_IRQHandler+0x50c>
C:/Users/86158/Desktop/IEECS-Design/Hardware/Reference/CHV307_Library-master/Example/libraries/sdk/Peripheral/ch32v30x_usbotg_device.c:598
                                    USBOTG_FS->UEP2_TX_CTRL = (USBOTG_FS->UEP2_TX_CTRL & ~( USBHD_UEP_T_TOG|USBHD_UEP_T_RES_MASK )) | USBHD_UEP_T_RES_NAK;
    3b76:	500007b7          	lui	a5,0x50000
    3b7a:	03a7c783          	lbu	a5,58(a5) # 5000003a <_eusrstack+0x2fff003a>
    3b7e:	0ff7f793          	andi	a5,a5,255
    3b82:	07e2                	slli	a5,a5,0x18
    3b84:	87e1                	srai	a5,a5,0x18
    3b86:	9be1                	andi	a5,a5,-8
    3b88:	07e2                	slli	a5,a5,0x18
    3b8a:	87e1                	srai	a5,a5,0x18
    3b8c:	0027e793          	ori	a5,a5,2
    3b90:	01879713          	slli	a4,a5,0x18
    3b94:	8761                	srai	a4,a4,0x18
    3b96:	500007b7          	lui	a5,0x50000
    3b9a:	0ff77713          	andi	a4,a4,255
    3b9e:	02e78d23          	sb	a4,58(a5) # 5000003a <_eusrstack+0x2fff003a>
C:/Users/86158/Desktop/IEECS-Design/Hardware/Reference/CHV307_Library-master/Example/libraries/sdk/Peripheral/ch32v30x_usbotg_device.c:599
                                    break;
    3ba2:	a8ad                	j	3c1c <OTG_FS_IRQHandler+0x51e>
C:/Users/86158/Desktop/IEECS-Design/Hardware/Reference/CHV307_Library-master/Example/libraries/sdk/Peripheral/ch32v30x_usbotg_device.c:602
                                    USBOTG_FS->UEP2_RX_CTRL = (USBOTG_FS->UEP2_RX_CTRL & ~( USBHD_UEP_R_TOG|USBHD_UEP_R_RES_MASK )) | USBHD_UEP_R_RES_ACK;
    3ba4:	500007b7          	lui	a5,0x50000
    3ba8:	03b7c783          	lbu	a5,59(a5) # 5000003b <_eusrstack+0x2fff003b>
    3bac:	0ff7f713          	andi	a4,a5,255
    3bb0:	500007b7          	lui	a5,0x50000
    3bb4:	9b61                	andi	a4,a4,-8
    3bb6:	0ff77713          	andi	a4,a4,255
    3bba:	02e78da3          	sb	a4,59(a5) # 5000003b <_eusrstack+0x2fff003b>
C:/Users/86158/Desktop/IEECS-Design/Hardware/Reference/CHV307_Library-master/Example/libraries/sdk/Peripheral/ch32v30x_usbotg_device.c:603
                                    break;
    3bbe:	a8b9                	j	3c1c <OTG_FS_IRQHandler+0x51e>
C:/Users/86158/Desktop/IEECS-Design/Hardware/Reference/CHV307_Library-master/Example/libraries/sdk/Peripheral/ch32v30x_usbotg_device.c:606
                                    USBOTG_FS->UEP1_TX_CTRL = (USBOTG_FS->UEP1_TX_CTRL & ~( USBHD_UEP_T_TOG|USBHD_UEP_T_RES_MASK )) | USBHD_UEP_T_RES_NAK;
    3bc0:	500007b7          	lui	a5,0x50000
    3bc4:	0367c783          	lbu	a5,54(a5) # 50000036 <_eusrstack+0x2fff0036>
    3bc8:	0ff7f793          	andi	a5,a5,255
    3bcc:	07e2                	slli	a5,a5,0x18
    3bce:	87e1                	srai	a5,a5,0x18
    3bd0:	9be1                	andi	a5,a5,-8
    3bd2:	07e2                	slli	a5,a5,0x18
    3bd4:	87e1                	srai	a5,a5,0x18
    3bd6:	0027e793          	ori	a5,a5,2
    3bda:	01879713          	slli	a4,a5,0x18
    3bde:	8761                	srai	a4,a4,0x18
    3be0:	500007b7          	lui	a5,0x50000
    3be4:	0ff77713          	andi	a4,a4,255
    3be8:	02e78b23          	sb	a4,54(a5) # 50000036 <_eusrstack+0x2fff0036>
C:/Users/86158/Desktop/IEECS-Design/Hardware/Reference/CHV307_Library-master/Example/libraries/sdk/Peripheral/ch32v30x_usbotg_device.c:607
                                    break;
    3bec:	a805                	j	3c1c <OTG_FS_IRQHandler+0x51e>
C:/Users/86158/Desktop/IEECS-Design/Hardware/Reference/CHV307_Library-master/Example/libraries/sdk/Peripheral/ch32v30x_usbotg_device.c:610
                                    USBOTG_FS->UEP1_RX_CTRL = (USBOTG_FS->UEP1_RX_CTRL & ~( USBHD_UEP_R_TOG|USBHD_UEP_R_RES_MASK )) | USBHD_UEP_R_RES_ACK;
    3bee:	500007b7          	lui	a5,0x50000
    3bf2:	0377c783          	lbu	a5,55(a5) # 50000037 <_eusrstack+0x2fff0037>
    3bf6:	0ff7f713          	andi	a4,a5,255
    3bfa:	500007b7          	lui	a5,0x50000
    3bfe:	9b61                	andi	a4,a4,-8
    3c00:	0ff77713          	andi	a4,a4,255
    3c04:	02e78ba3          	sb	a4,55(a5) # 50000037 <_eusrstack+0x2fff0037>
C:/Users/86158/Desktop/IEECS-Design/Hardware/Reference/CHV307_Library-master/Example/libraries/sdk/Peripheral/ch32v30x_usbotg_device.c:611
                                    break;
    3c08:	a811                	j	3c1c <OTG_FS_IRQHandler+0x51e>
C:/Users/86158/Desktop/IEECS-Design/Hardware/Reference/CHV307_Library-master/Example/libraries/sdk/Peripheral/ch32v30x_usbotg_device.c:614
                                    errflag = 0xFF;
    3c0a:	57fd                	li	a5,-1
    3c0c:	fef40723          	sb	a5,-18(s0)
C:/Users/86158/Desktop/IEECS-Design/Hardware/Reference/CHV307_Library-master/Example/libraries/sdk/Peripheral/ch32v30x_usbotg_device.c:615
                                    break;
    3c10:	0001                	nop
    3c12:	a029                	j	3c1c <OTG_FS_IRQHandler+0x51e>
C:/Users/86158/Desktop/IEECS-Design/Hardware/Reference/CHV307_Library-master/Example/libraries/sdk/Peripheral/ch32v30x_usbotg_device.c:619
                            else    errflag = 0xFF;
    3c14:	57fd                	li	a5,-1
    3c16:	fef40723          	sb	a5,-18(s0)
C:/Users/86158/Desktop/IEECS-Design/Hardware/Reference/CHV307_Library-master/Example/libraries/sdk/Peripheral/ch32v30x_usbotg_device.c:620
                            break;
    3c1a:	acf9                	j	3ef8 <OTG_FS_IRQHandler+0x7fa>
    3c1c:	acf1                	j	3ef8 <OTG_FS_IRQHandler+0x7fa>
C:/Users/86158/Desktop/IEECS-Design/Hardware/Reference/CHV307_Library-master/Example/libraries/sdk/Peripheral/ch32v30x_usbotg_device.c:624
                            if( ( pMySetupReqPakHD->bRequestType & 0x1F ) == 0x00 )
    3c1e:	85018793          	addi	a5,gp,-1968 # 20000280 <EP0_DatabufHD>
    3c22:	0007c783          	lbu	a5,0(a5)
    3c26:	8bfd                	andi	a5,a5,31
    3c28:	e3a1                	bnez	a5,3c68 <OTG_FS_IRQHandler+0x56a>
C:/Users/86158/Desktop/IEECS-Design/Hardware/Reference/CHV307_Library-master/Example/libraries/sdk/Peripheral/ch32v30x_usbotg_device.c:627
                                if( pMySetupReqPakHD->wValue == 0x01 )
    3c2a:	85018793          	addi	a5,gp,-1968 # 20000280 <EP0_DatabufHD>
    3c2e:	0027c703          	lbu	a4,2(a5)
    3c32:	0037c783          	lbu	a5,3(a5)
    3c36:	07a2                	slli	a5,a5,0x8
    3c38:	8fd9                	or	a5,a5,a4
    3c3a:	01079713          	slli	a4,a5,0x10
    3c3e:	8341                	srli	a4,a4,0x10
    3c40:	4785                	li	a5,1
    3c42:	00f71f63          	bne	a4,a5,3c60 <OTG_FS_IRQHandler+0x562>
C:/Users/86158/Desktop/IEECS-Design/Hardware/Reference/CHV307_Library-master/Example/libraries/sdk/Peripheral/ch32v30x_usbotg_device.c:629
                                    if( MyCfgDescrHD[ 7 ] & 0x20 )
    3c46:	0a000793          	li	a5,160
    3c4a:	0207f793          	andi	a5,a5,32
    3c4e:	c789                	beqz	a5,3c58 <OTG_FS_IRQHandler+0x55a>
C:/Users/86158/Desktop/IEECS-Design/Hardware/Reference/CHV307_Library-master/Example/libraries/sdk/Peripheral/ch32v30x_usbotg_device.c:632
                                        USBHD_Dev_SleepStatus = 0x01;
    3c50:	4705                	li	a4,1
    3c52:	86e18523          	sb	a4,-1942(gp) # 2000029a <USBHD_Dev_SleepStatus>
C:/Users/86158/Desktop/IEECS-Design/Hardware/Reference/CHV307_Library-master/Example/libraries/sdk/Peripheral/ch32v30x_usbotg_device.c:690
                            break;
    3c56:	a44d                	j	3ef8 <OTG_FS_IRQHandler+0x7fa>
C:/Users/86158/Desktop/IEECS-Design/Hardware/Reference/CHV307_Library-master/Example/libraries/sdk/Peripheral/ch32v30x_usbotg_device.c:636
                                        errflag = 0xFF;
    3c58:	57fd                	li	a5,-1
    3c5a:	fef40723          	sb	a5,-18(s0)
C:/Users/86158/Desktop/IEECS-Design/Hardware/Reference/CHV307_Library-master/Example/libraries/sdk/Peripheral/ch32v30x_usbotg_device.c:690
                            break;
    3c5e:	ac69                	j	3ef8 <OTG_FS_IRQHandler+0x7fa>
C:/Users/86158/Desktop/IEECS-Design/Hardware/Reference/CHV307_Library-master/Example/libraries/sdk/Peripheral/ch32v30x_usbotg_device.c:641
                                    errflag = 0xFF;
    3c60:	57fd                	li	a5,-1
    3c62:	fef40723          	sb	a5,-18(s0)
C:/Users/86158/Desktop/IEECS-Design/Hardware/Reference/CHV307_Library-master/Example/libraries/sdk/Peripheral/ch32v30x_usbotg_device.c:690
                            break;
    3c66:	ac49                	j	3ef8 <OTG_FS_IRQHandler+0x7fa>
C:/Users/86158/Desktop/IEECS-Design/Hardware/Reference/CHV307_Library-master/Example/libraries/sdk/Peripheral/ch32v30x_usbotg_device.c:644
                            else if( ( pMySetupReqPakHD->bRequestType & 0x1F ) == 0x02 )
    3c68:	85018793          	addi	a5,gp,-1968 # 20000280 <EP0_DatabufHD>
    3c6c:	0007c783          	lbu	a5,0(a5)
    3c70:	01f7f713          	andi	a4,a5,31
    3c74:	4789                	li	a5,2
    3c76:	10f71c63          	bne	a4,a5,3d8e <OTG_FS_IRQHandler+0x690>
C:/Users/86158/Desktop/IEECS-Design/Hardware/Reference/CHV307_Library-master/Example/libraries/sdk/Peripheral/ch32v30x_usbotg_device.c:647
                                if( pMySetupReqPakHD->wValue == 0x00 )
    3c7a:	85018793          	addi	a5,gp,-1968 # 20000280 <EP0_DatabufHD>
    3c7e:	0027c703          	lbu	a4,2(a5)
    3c82:	0037c783          	lbu	a5,3(a5)
    3c86:	07a2                	slli	a5,a5,0x8
    3c88:	8fd9                	or	a5,a5,a4
    3c8a:	07c2                	slli	a5,a5,0x10
    3c8c:	83c1                	srli	a5,a5,0x10
    3c8e:	efe5                	bnez	a5,3d86 <OTG_FS_IRQHandler+0x688>
C:/Users/86158/Desktop/IEECS-Design/Hardware/Reference/CHV307_Library-master/Example/libraries/sdk/Peripheral/ch32v30x_usbotg_device.c:650
                                    switch( ( pMySetupReqPakHD->wIndex ) & 0xff )
    3c90:	85018793          	addi	a5,gp,-1968 # 20000280 <EP0_DatabufHD>
    3c94:	0047c703          	lbu	a4,4(a5)
    3c98:	0057c783          	lbu	a5,5(a5)
    3c9c:	07a2                	slli	a5,a5,0x8
    3c9e:	8fd9                	or	a5,a5,a4
    3ca0:	07c2                	slli	a5,a5,0x10
    3ca2:	83c1                	srli	a5,a5,0x10
    3ca4:	0ff7f793          	andi	a5,a5,255
    3ca8:	4709                	li	a4,2
    3caa:	04e78763          	beq	a5,a4,3cf8 <OTG_FS_IRQHandler+0x5fa>
    3cae:	4709                	li	a4,2
    3cb0:	00f74663          	blt	a4,a5,3cbc <OTG_FS_IRQHandler+0x5be>
    3cb4:	4705                	li	a4,1
    3cb6:	08e78d63          	beq	a5,a4,3d50 <OTG_FS_IRQHandler+0x652>
    3cba:	a0c9                	j	3d7c <OTG_FS_IRQHandler+0x67e>
    3cbc:	08100713          	li	a4,129
    3cc0:	06e78263          	beq	a5,a4,3d24 <OTG_FS_IRQHandler+0x626>
    3cc4:	08200713          	li	a4,130
    3cc8:	0ae79a63          	bne	a5,a4,3d7c <OTG_FS_IRQHandler+0x67e>
C:/Users/86158/Desktop/IEECS-Design/Hardware/Reference/CHV307_Library-master/Example/libraries/sdk/Peripheral/ch32v30x_usbotg_device.c:654
                                            USBOTG_FS->UEP2_TX_CTRL = ( USBOTG_FS->UEP2_TX_CTRL &= ~USBHD_UEP_T_RES_MASK ) | USBHD_UEP_T_RES_STALL;
    3ccc:	500007b7          	lui	a5,0x50000
    3cd0:	03a7c783          	lbu	a5,58(a5) # 5000003a <_eusrstack+0x2fff003a>
    3cd4:	0ff7f793          	andi	a5,a5,255
    3cd8:	50000737          	lui	a4,0x50000
    3cdc:	9bf1                	andi	a5,a5,-4
    3cde:	0ff7f793          	andi	a5,a5,255
    3ce2:	02f70d23          	sb	a5,58(a4) # 5000003a <_eusrstack+0x2fff003a>
    3ce6:	50000737          	lui	a4,0x50000
    3cea:	0037e793          	ori	a5,a5,3
    3cee:	0ff7f793          	andi	a5,a5,255
    3cf2:	02f70d23          	sb	a5,58(a4) # 5000003a <_eusrstack+0x2fff003a>
C:/Users/86158/Desktop/IEECS-Design/Hardware/Reference/CHV307_Library-master/Example/libraries/sdk/Peripheral/ch32v30x_usbotg_device.c:656
                                            break;
    3cf6:	a045                	j	3d96 <OTG_FS_IRQHandler+0x698>
C:/Users/86158/Desktop/IEECS-Design/Hardware/Reference/CHV307_Library-master/Example/libraries/sdk/Peripheral/ch32v30x_usbotg_device.c:660
                                            USBOTG_FS->UEP2_RX_CTRL = ( USBOTG_FS->UEP2_RX_CTRL &= ~USBHD_UEP_R_RES_MASK ) | USBHD_UEP_R_RES_STALL;
    3cf8:	500007b7          	lui	a5,0x50000
    3cfc:	03b7c783          	lbu	a5,59(a5) # 5000003b <_eusrstack+0x2fff003b>
    3d00:	0ff7f793          	andi	a5,a5,255
    3d04:	50000737          	lui	a4,0x50000
    3d08:	9bf1                	andi	a5,a5,-4
    3d0a:	0ff7f793          	andi	a5,a5,255
    3d0e:	02f70da3          	sb	a5,59(a4) # 5000003b <_eusrstack+0x2fff003b>
    3d12:	50000737          	lui	a4,0x50000
    3d16:	0037e793          	ori	a5,a5,3
    3d1a:	0ff7f793          	andi	a5,a5,255
    3d1e:	02f70da3          	sb	a5,59(a4) # 5000003b <_eusrstack+0x2fff003b>
C:/Users/86158/Desktop/IEECS-Design/Hardware/Reference/CHV307_Library-master/Example/libraries/sdk/Peripheral/ch32v30x_usbotg_device.c:662
                                            break;
    3d22:	a895                	j	3d96 <OTG_FS_IRQHandler+0x698>
C:/Users/86158/Desktop/IEECS-Design/Hardware/Reference/CHV307_Library-master/Example/libraries/sdk/Peripheral/ch32v30x_usbotg_device.c:666
                                            USBOTG_FS->UEP1_TX_CTRL = ( USBOTG_FS->UEP1_TX_CTRL &= ~USBHD_UEP_T_RES_MASK ) | USBHD_UEP_T_RES_STALL;
    3d24:	500007b7          	lui	a5,0x50000
    3d28:	0367c783          	lbu	a5,54(a5) # 50000036 <_eusrstack+0x2fff0036>
    3d2c:	0ff7f793          	andi	a5,a5,255
    3d30:	50000737          	lui	a4,0x50000
    3d34:	9bf1                	andi	a5,a5,-4
    3d36:	0ff7f793          	andi	a5,a5,255
    3d3a:	02f70b23          	sb	a5,54(a4) # 50000036 <_eusrstack+0x2fff0036>
    3d3e:	50000737          	lui	a4,0x50000
    3d42:	0037e793          	ori	a5,a5,3
    3d46:	0ff7f793          	andi	a5,a5,255
    3d4a:	02f70b23          	sb	a5,54(a4) # 50000036 <_eusrstack+0x2fff0036>
C:/Users/86158/Desktop/IEECS-Design/Hardware/Reference/CHV307_Library-master/Example/libraries/sdk/Peripheral/ch32v30x_usbotg_device.c:668
                                            break;
    3d4e:	a0a1                	j	3d96 <OTG_FS_IRQHandler+0x698>
C:/Users/86158/Desktop/IEECS-Design/Hardware/Reference/CHV307_Library-master/Example/libraries/sdk/Peripheral/ch32v30x_usbotg_device.c:672
                                            USBOTG_FS->UEP1_RX_CTRL = ( USBOTG_FS->UEP1_RX_CTRL &= ~USBHD_UEP_R_RES_MASK ) | USBHD_UEP_R_RES_STALL;
    3d50:	500007b7          	lui	a5,0x50000
    3d54:	0377c783          	lbu	a5,55(a5) # 50000037 <_eusrstack+0x2fff0037>
    3d58:	0ff7f793          	andi	a5,a5,255
    3d5c:	50000737          	lui	a4,0x50000
    3d60:	9bf1                	andi	a5,a5,-4
    3d62:	0ff7f793          	andi	a5,a5,255
    3d66:	02f70ba3          	sb	a5,55(a4) # 50000037 <_eusrstack+0x2fff0037>
    3d6a:	50000737          	lui	a4,0x50000
    3d6e:	0037e793          	ori	a5,a5,3
    3d72:	0ff7f793          	andi	a5,a5,255
    3d76:	02f70ba3          	sb	a5,55(a4) # 50000037 <_eusrstack+0x2fff0037>
C:/Users/86158/Desktop/IEECS-Design/Hardware/Reference/CHV307_Library-master/Example/libraries/sdk/Peripheral/ch32v30x_usbotg_device.c:674
                                            break;
    3d7a:	a831                	j	3d96 <OTG_FS_IRQHandler+0x698>
C:/Users/86158/Desktop/IEECS-Design/Hardware/Reference/CHV307_Library-master/Example/libraries/sdk/Peripheral/ch32v30x_usbotg_device.c:677
                                            errflag = 0xFF;
    3d7c:	57fd                	li	a5,-1
    3d7e:	fef40723          	sb	a5,-18(s0)
C:/Users/86158/Desktop/IEECS-Design/Hardware/Reference/CHV307_Library-master/Example/libraries/sdk/Peripheral/ch32v30x_usbotg_device.c:678
                                            break;
    3d82:	0001                	nop
    3d84:	a809                	j	3d96 <OTG_FS_IRQHandler+0x698>
C:/Users/86158/Desktop/IEECS-Design/Hardware/Reference/CHV307_Library-master/Example/libraries/sdk/Peripheral/ch32v30x_usbotg_device.c:683
                                    errflag = 0xFF;
    3d86:	57fd                	li	a5,-1
    3d88:	fef40723          	sb	a5,-18(s0)
C:/Users/86158/Desktop/IEECS-Design/Hardware/Reference/CHV307_Library-master/Example/libraries/sdk/Peripheral/ch32v30x_usbotg_device.c:690
                            break;
    3d8c:	a2b5                	j	3ef8 <OTG_FS_IRQHandler+0x7fa>
C:/Users/86158/Desktop/IEECS-Design/Hardware/Reference/CHV307_Library-master/Example/libraries/sdk/Peripheral/ch32v30x_usbotg_device.c:688
                                errflag = 0xFF;
    3d8e:	57fd                	li	a5,-1
    3d90:	fef40723          	sb	a5,-18(s0)
C:/Users/86158/Desktop/IEECS-Design/Hardware/Reference/CHV307_Library-master/Example/libraries/sdk/Peripheral/ch32v30x_usbotg_device.c:690
                            break;
    3d94:	a295                	j	3ef8 <OTG_FS_IRQHandler+0x7fa>
C:/Users/86158/Desktop/IEECS-Design/Hardware/Reference/CHV307_Library-master/Example/libraries/sdk/Peripheral/ch32v30x_usbotg_device.c:690 (discriminator 4)
    3d96:	a28d                	j	3ef8 <OTG_FS_IRQHandler+0x7fa>
C:/Users/86158/Desktop/IEECS-Design/Hardware/Reference/CHV307_Library-master/Example/libraries/sdk/Peripheral/ch32v30x_usbotg_device.c:694
                            pEP0_DataBuf[0] = 0x00;
    3d98:	8581a783          	lw	a5,-1960(gp) # 20000288 <pEP0_RAM_Addr>
    3d9c:	00078023          	sb	zero,0(a5)
C:/Users/86158/Desktop/IEECS-Design/Hardware/Reference/CHV307_Library-master/Example/libraries/sdk/Peripheral/ch32v30x_usbotg_device.c:695
                            if ( SetupReqLen > 1 ) SetupReqLen = 1;
    3da0:	86e1d783          	lhu	a5,-1938(gp) # 2000029e <SetupReqLen>
    3da4:	01079713          	slli	a4,a5,0x10
    3da8:	8341                	srli	a4,a4,0x10
    3daa:	4785                	li	a5,1
    3dac:	14e7f163          	bgeu	a5,a4,3eee <OTG_FS_IRQHandler+0x7f0>
C:/Users/86158/Desktop/IEECS-Design/Hardware/Reference/CHV307_Library-master/Example/libraries/sdk/Peripheral/ch32v30x_usbotg_device.c:695 (discriminator 1)
    3db0:	4705                	li	a4,1
    3db2:	86e19723          	sh	a4,-1938(gp) # 2000029e <SetupReqLen>
C:/Users/86158/Desktop/IEECS-Design/Hardware/Reference/CHV307_Library-master/Example/libraries/sdk/Peripheral/ch32v30x_usbotg_device.c:696 (discriminator 1)
                            break;
    3db6:	aa25                	j	3eee <OTG_FS_IRQHandler+0x7f0>
C:/Users/86158/Desktop/IEECS-Design/Hardware/Reference/CHV307_Library-master/Example/libraries/sdk/Peripheral/ch32v30x_usbotg_device.c:700
                            EP0_DatabufHD[ 0 ] = 0x00;
    3db8:	84018823          	sb	zero,-1968(gp) # 20000280 <EP0_DatabufHD>
C:/Users/86158/Desktop/IEECS-Design/Hardware/Reference/CHV307_Library-master/Example/libraries/sdk/Peripheral/ch32v30x_usbotg_device.c:701
                            if( USBHD_Dev_SetupReqLen > 1 )
    3dbc:	8681d783          	lhu	a5,-1944(gp) # 20000298 <USBHD_Dev_SetupReqLen>
    3dc0:	01079713          	slli	a4,a5,0x10
    3dc4:	8341                	srli	a4,a4,0x10
    3dc6:	4785                	li	a5,1
    3dc8:	12e7f563          	bgeu	a5,a4,3ef2 <OTG_FS_IRQHandler+0x7f4>
C:/Users/86158/Desktop/IEECS-Design/Hardware/Reference/CHV307_Library-master/Example/libraries/sdk/Peripheral/ch32v30x_usbotg_device.c:703
                                USBHD_Dev_SetupReqLen = 1;
    3dcc:	4705                	li	a4,1
    3dce:	86e19423          	sh	a4,-1944(gp) # 20000298 <USBHD_Dev_SetupReqLen>
C:/Users/86158/Desktop/IEECS-Design/Hardware/Reference/CHV307_Library-master/Example/libraries/sdk/Peripheral/ch32v30x_usbotg_device.c:705
                            break;
    3dd2:	a205                	j	3ef2 <OTG_FS_IRQHandler+0x7f4>
C:/Users/86158/Desktop/IEECS-Design/Hardware/Reference/CHV307_Library-master/Example/libraries/sdk/Peripheral/ch32v30x_usbotg_device.c:709
                            EP0_DatabufHD[ 0 ] = 0x00;
    3dd4:	84018823          	sb	zero,-1968(gp) # 20000280 <EP0_DatabufHD>
C:/Users/86158/Desktop/IEECS-Design/Hardware/Reference/CHV307_Library-master/Example/libraries/sdk/Peripheral/ch32v30x_usbotg_device.c:710
                            EP0_DatabufHD[ 1 ] = 0x00;
    3dd8:	85018793          	addi	a5,gp,-1968 # 20000280 <EP0_DatabufHD>
    3ddc:	000780a3          	sb	zero,1(a5)
C:/Users/86158/Desktop/IEECS-Design/Hardware/Reference/CHV307_Library-master/Example/libraries/sdk/Peripheral/ch32v30x_usbotg_device.c:711
                            if( pMySetupReqPakHD->wIndex == 0x81 )
    3de0:	85018793          	addi	a5,gp,-1968 # 20000280 <EP0_DatabufHD>
    3de4:	0047c703          	lbu	a4,4(a5)
    3de8:	0057c783          	lbu	a5,5(a5)
    3dec:	07a2                	slli	a5,a5,0x8
    3dee:	8fd9                	or	a5,a5,a4
    3df0:	01079713          	slli	a4,a5,0x10
    3df4:	8341                	srli	a4,a4,0x10
    3df6:	08100793          	li	a5,129
    3dfa:	02f71163          	bne	a4,a5,3e1c <OTG_FS_IRQHandler+0x71e>
C:/Users/86158/Desktop/IEECS-Design/Hardware/Reference/CHV307_Library-master/Example/libraries/sdk/Peripheral/ch32v30x_usbotg_device.c:713
                                if( ( USBOTG_FS->UEP1_TX_CTRL & USBHD_UEP_T_RES_MASK ) == USBHD_UEP_T_RES_STALL )
    3dfe:	500007b7          	lui	a5,0x50000
    3e02:	0367c783          	lbu	a5,54(a5) # 50000036 <_eusrstack+0x2fff0036>
    3e06:	0ff7f793          	andi	a5,a5,255
    3e0a:	0037f713          	andi	a4,a5,3
    3e0e:	478d                	li	a5,3
    3e10:	0af71d63          	bne	a4,a5,3eca <OTG_FS_IRQHandler+0x7cc>
C:/Users/86158/Desktop/IEECS-Design/Hardware/Reference/CHV307_Library-master/Example/libraries/sdk/Peripheral/ch32v30x_usbotg_device.c:715
                                    EP0_DatabufHD[ 0 ] = 0x01;
    3e14:	4705                	li	a4,1
    3e16:	84e18823          	sb	a4,-1968(gp) # 20000280 <EP0_DatabufHD>
    3e1a:	a845                	j	3eca <OTG_FS_IRQHandler+0x7cc>
C:/Users/86158/Desktop/IEECS-Design/Hardware/Reference/CHV307_Library-master/Example/libraries/sdk/Peripheral/ch32v30x_usbotg_device.c:718
                            else if( pMySetupReqPakHD->wIndex == 0x01 )
    3e1c:	85018793          	addi	a5,gp,-1968 # 20000280 <EP0_DatabufHD>
    3e20:	0047c703          	lbu	a4,4(a5)
    3e24:	0057c783          	lbu	a5,5(a5)
    3e28:	07a2                	slli	a5,a5,0x8
    3e2a:	8fd9                	or	a5,a5,a4
    3e2c:	01079713          	slli	a4,a5,0x10
    3e30:	8341                	srli	a4,a4,0x10
    3e32:	4785                	li	a5,1
    3e34:	02f71163          	bne	a4,a5,3e56 <OTG_FS_IRQHandler+0x758>
C:/Users/86158/Desktop/IEECS-Design/Hardware/Reference/CHV307_Library-master/Example/libraries/sdk/Peripheral/ch32v30x_usbotg_device.c:720
                                if( ( USBOTG_FS->UEP1_RX_CTRL & USBHD_UEP_R_RES_MASK ) == USBHD_UEP_R_RES_STALL )
    3e38:	500007b7          	lui	a5,0x50000
    3e3c:	0377c783          	lbu	a5,55(a5) # 50000037 <_eusrstack+0x2fff0037>
    3e40:	0ff7f793          	andi	a5,a5,255
    3e44:	0037f713          	andi	a4,a5,3
    3e48:	478d                	li	a5,3
    3e4a:	08f71063          	bne	a4,a5,3eca <OTG_FS_IRQHandler+0x7cc>
C:/Users/86158/Desktop/IEECS-Design/Hardware/Reference/CHV307_Library-master/Example/libraries/sdk/Peripheral/ch32v30x_usbotg_device.c:722
                                    EP0_DatabufHD[ 0 ] = 0x01;
    3e4e:	4705                	li	a4,1
    3e50:	84e18823          	sb	a4,-1968(gp) # 20000280 <EP0_DatabufHD>
    3e54:	a89d                	j	3eca <OTG_FS_IRQHandler+0x7cc>
C:/Users/86158/Desktop/IEECS-Design/Hardware/Reference/CHV307_Library-master/Example/libraries/sdk/Peripheral/ch32v30x_usbotg_device.c:725
                            else if( pMySetupReqPakHD->wIndex == 0x82 )
    3e56:	85018793          	addi	a5,gp,-1968 # 20000280 <EP0_DatabufHD>
    3e5a:	0047c703          	lbu	a4,4(a5)
    3e5e:	0057c783          	lbu	a5,5(a5)
    3e62:	07a2                	slli	a5,a5,0x8
    3e64:	8fd9                	or	a5,a5,a4
    3e66:	01079713          	slli	a4,a5,0x10
    3e6a:	8341                	srli	a4,a4,0x10
    3e6c:	08200793          	li	a5,130
    3e70:	02f71163          	bne	a4,a5,3e92 <OTG_FS_IRQHandler+0x794>
C:/Users/86158/Desktop/IEECS-Design/Hardware/Reference/CHV307_Library-master/Example/libraries/sdk/Peripheral/ch32v30x_usbotg_device.c:727
                                if( ( USBOTG_FS->UEP2_TX_CTRL & USBHD_UEP_T_RES_MASK ) == USBHD_UEP_T_RES_STALL )
    3e74:	500007b7          	lui	a5,0x50000
    3e78:	03a7c783          	lbu	a5,58(a5) # 5000003a <_eusrstack+0x2fff003a>
    3e7c:	0ff7f793          	andi	a5,a5,255
    3e80:	0037f713          	andi	a4,a5,3
    3e84:	478d                	li	a5,3
    3e86:	04f71263          	bne	a4,a5,3eca <OTG_FS_IRQHandler+0x7cc>
C:/Users/86158/Desktop/IEECS-Design/Hardware/Reference/CHV307_Library-master/Example/libraries/sdk/Peripheral/ch32v30x_usbotg_device.c:729
                                    EP0_DatabufHD[ 0 ] = 0x01;
    3e8a:	4705                	li	a4,1
    3e8c:	84e18823          	sb	a4,-1968(gp) # 20000280 <EP0_DatabufHD>
    3e90:	a82d                	j	3eca <OTG_FS_IRQHandler+0x7cc>
C:/Users/86158/Desktop/IEECS-Design/Hardware/Reference/CHV307_Library-master/Example/libraries/sdk/Peripheral/ch32v30x_usbotg_device.c:732
                            else if( pMySetupReqPakHD->wIndex == 0x02 )
    3e92:	85018793          	addi	a5,gp,-1968 # 20000280 <EP0_DatabufHD>
    3e96:	0047c703          	lbu	a4,4(a5)
    3e9a:	0057c783          	lbu	a5,5(a5)
    3e9e:	07a2                	slli	a5,a5,0x8
    3ea0:	8fd9                	or	a5,a5,a4
    3ea2:	01079713          	slli	a4,a5,0x10
    3ea6:	8341                	srli	a4,a4,0x10
    3ea8:	4789                	li	a5,2
    3eaa:	02f71063          	bne	a4,a5,3eca <OTG_FS_IRQHandler+0x7cc>
C:/Users/86158/Desktop/IEECS-Design/Hardware/Reference/CHV307_Library-master/Example/libraries/sdk/Peripheral/ch32v30x_usbotg_device.c:734
                                if( ( USBOTG_FS->UEP2_RX_CTRL & USBHD_UEP_R_RES_MASK ) == USBHD_UEP_R_RES_STALL )
    3eae:	500007b7          	lui	a5,0x50000
    3eb2:	03b7c783          	lbu	a5,59(a5) # 5000003b <_eusrstack+0x2fff003b>
    3eb6:	0ff7f793          	andi	a5,a5,255
    3eba:	0037f713          	andi	a4,a5,3
    3ebe:	478d                	li	a5,3
    3ec0:	00f71563          	bne	a4,a5,3eca <OTG_FS_IRQHandler+0x7cc>
C:/Users/86158/Desktop/IEECS-Design/Hardware/Reference/CHV307_Library-master/Example/libraries/sdk/Peripheral/ch32v30x_usbotg_device.c:736
                                    EP0_DatabufHD[ 0 ] = 0x01;
    3ec4:	4705                	li	a4,1
    3ec6:	84e18823          	sb	a4,-1968(gp) # 20000280 <EP0_DatabufHD>
C:/Users/86158/Desktop/IEECS-Design/Hardware/Reference/CHV307_Library-master/Example/libraries/sdk/Peripheral/ch32v30x_usbotg_device.c:739
                            if( USBHD_Dev_SetupReqLen > 2 )
    3eca:	8681d783          	lhu	a5,-1944(gp) # 20000298 <USBHD_Dev_SetupReqLen>
    3ece:	01079713          	slli	a4,a5,0x10
    3ed2:	8341                	srli	a4,a4,0x10
    3ed4:	4789                	li	a5,2
    3ed6:	02e7f063          	bgeu	a5,a4,3ef6 <OTG_FS_IRQHandler+0x7f8>
C:/Users/86158/Desktop/IEECS-Design/Hardware/Reference/CHV307_Library-master/Example/libraries/sdk/Peripheral/ch32v30x_usbotg_device.c:741
                                USBHD_Dev_SetupReqLen = 2;
    3eda:	4709                	li	a4,2
    3edc:	86e19423          	sh	a4,-1944(gp) # 20000298 <USBHD_Dev_SetupReqLen>
C:/Users/86158/Desktop/IEECS-Design/Hardware/Reference/CHV307_Library-master/Example/libraries/sdk/Peripheral/ch32v30x_usbotg_device.c:743
                            break;
    3ee0:	a819                	j	3ef6 <OTG_FS_IRQHandler+0x7f8>
C:/Users/86158/Desktop/IEECS-Design/Hardware/Reference/CHV307_Library-master/Example/libraries/sdk/Peripheral/ch32v30x_usbotg_device.c:746
                            errflag = 0xFF;
    3ee2:	57fd                	li	a5,-1
    3ee4:	fef40723          	sb	a5,-18(s0)
C:/Users/86158/Desktop/IEECS-Design/Hardware/Reference/CHV307_Library-master/Example/libraries/sdk/Peripheral/ch32v30x_usbotg_device.c:747
                            break;
    3ee8:	a801                	j	3ef8 <OTG_FS_IRQHandler+0x7fa>
C:/Users/86158/Desktop/IEECS-Design/Hardware/Reference/CHV307_Library-master/Example/libraries/sdk/Peripheral/ch32v30x_usbotg_device.c:583
                            break;
    3eea:	0001                	nop
    3eec:	a031                	j	3ef8 <OTG_FS_IRQHandler+0x7fa>
C:/Users/86158/Desktop/IEECS-Design/Hardware/Reference/CHV307_Library-master/Example/libraries/sdk/Peripheral/ch32v30x_usbotg_device.c:696
                            break;
    3eee:	0001                	nop
    3ef0:	a021                	j	3ef8 <OTG_FS_IRQHandler+0x7fa>
C:/Users/86158/Desktop/IEECS-Design/Hardware/Reference/CHV307_Library-master/Example/libraries/sdk/Peripheral/ch32v30x_usbotg_device.c:705
                            break;
    3ef2:	0001                	nop
    3ef4:	a011                	j	3ef8 <OTG_FS_IRQHandler+0x7fa>
C:/Users/86158/Desktop/IEECS-Design/Hardware/Reference/CHV307_Library-master/Example/libraries/sdk/Peripheral/ch32v30x_usbotg_device.c:743
                            break;
    3ef6:	0001                	nop
C:/Users/86158/Desktop/IEECS-Design/Hardware/Reference/CHV307_Library-master/Example/libraries/sdk/Peripheral/ch32v30x_usbotg_device.c:750
                if( errflag == 0xff)
    3ef8:	fee44703          	lbu	a4,-18(s0)
    3efc:	0ff00793          	li	a5,255
    3f00:	00f71d63          	bne	a4,a5,3f1a <OTG_FS_IRQHandler+0x81c>
C:/Users/86158/Desktop/IEECS-Design/Hardware/Reference/CHV307_Library-master/Example/libraries/sdk/Peripheral/ch32v30x_usbotg_device.c:753
                    USBOTG_FS->UEP0_TX_CTRL = USBHD_UEP_T_TOG|USBHD_UEP_T_RES_STALL;
    3f04:	500007b7          	lui	a5,0x50000
    3f08:	471d                	li	a4,7
    3f0a:	02e78923          	sb	a4,50(a5) # 50000032 <_eusrstack+0x2fff0032>
C:/Users/86158/Desktop/IEECS-Design/Hardware/Reference/CHV307_Library-master/Example/libraries/sdk/Peripheral/ch32v30x_usbotg_device.c:754
                    USBOTG_FS->UEP0_RX_CTRL = USBHD_UEP_R_TOG|USBHD_UEP_R_RES_STALL;
    3f0e:	500007b7          	lui	a5,0x50000
    3f12:	471d                	li	a4,7
    3f14:	02e789a3          	sb	a4,51(a5) # 50000033 <_eusrstack+0x2fff0033>
C:/Users/86158/Desktop/IEECS-Design/Hardware/Reference/CHV307_Library-master/Example/libraries/sdk/Peripheral/ch32v30x_usbotg_device.c:769
                break;
    3f18:	ae65                	j	42d0 <OTG_FS_IRQHandler+0xbd2>
C:/Users/86158/Desktop/IEECS-Design/Hardware/Reference/CHV307_Library-master/Example/libraries/sdk/Peripheral/ch32v30x_usbotg_device.c:758
                    if( chtype & 0x80 )
    3f1a:	fec40783          	lb	a5,-20(s0)
    3f1e:	0407d563          	bgez	a5,3f68 <OTG_FS_IRQHandler+0x86a>
C:/Users/86158/Desktop/IEECS-Design/Hardware/Reference/CHV307_Library-master/Example/libraries/sdk/Peripheral/ch32v30x_usbotg_device.c:760
                        len = (SetupReqLen>DevEP0SIZE) ? DevEP0SIZE : SetupReqLen;
    3f22:	86e1d783          	lhu	a5,-1938(gp) # 2000029e <SetupReqLen>
    3f26:	01079713          	slli	a4,a5,0x10
    3f2a:	8341                	srli	a4,a4,0x10
    3f2c:	47a1                	li	a5,8
    3f2e:	00e7e963          	bltu	a5,a4,3f40 <OTG_FS_IRQHandler+0x842>
C:/Users/86158/Desktop/IEECS-Design/Hardware/Reference/CHV307_Library-master/Example/libraries/sdk/Peripheral/ch32v30x_usbotg_device.c:760 (discriminator 1)
    3f32:	86e1d783          	lhu	a5,-1938(gp) # 2000029e <SetupReqLen>
    3f36:	07c2                	slli	a5,a5,0x10
    3f38:	83c1                	srli	a5,a5,0x10
    3f3a:	0ff7f793          	andi	a5,a5,255
    3f3e:	a011                	j	3f42 <OTG_FS_IRQHandler+0x844>
C:/Users/86158/Desktop/IEECS-Design/Hardware/Reference/CHV307_Library-master/Example/libraries/sdk/Peripheral/ch32v30x_usbotg_device.c:760 (discriminator 2)
    3f40:	47a1                	li	a5,8
C:/Users/86158/Desktop/IEECS-Design/Hardware/Reference/CHV307_Library-master/Example/libraries/sdk/Peripheral/ch32v30x_usbotg_device.c:760 (discriminator 4)
    3f42:	fef407a3          	sb	a5,-17(s0)
C:/Users/86158/Desktop/IEECS-Design/Hardware/Reference/CHV307_Library-master/Example/libraries/sdk/Peripheral/ch32v30x_usbotg_device.c:761 (discriminator 4)
                        SetupReqLen -= len;
    3f46:	86e1d783          	lhu	a5,-1938(gp) # 2000029e <SetupReqLen>
    3f4a:	01079713          	slli	a4,a5,0x10
    3f4e:	8341                	srli	a4,a4,0x10
    3f50:	fef44783          	lbu	a5,-17(s0)
    3f54:	07c2                	slli	a5,a5,0x10
    3f56:	83c1                	srli	a5,a5,0x10
    3f58:	40f707b3          	sub	a5,a4,a5
    3f5c:	01079713          	slli	a4,a5,0x10
    3f60:	8341                	srli	a4,a4,0x10
    3f62:	86e19723          	sh	a4,-1938(gp) # 2000029e <SetupReqLen>
    3f66:	a019                	j	3f6c <OTG_FS_IRQHandler+0x86e>
C:/Users/86158/Desktop/IEECS-Design/Hardware/Reference/CHV307_Library-master/Example/libraries/sdk/Peripheral/ch32v30x_usbotg_device.c:763
                    else  len = 0;
    3f68:	fe0407a3          	sb	zero,-17(s0)
C:/Users/86158/Desktop/IEECS-Design/Hardware/Reference/CHV307_Library-master/Example/libraries/sdk/Peripheral/ch32v30x_usbotg_device.c:765
                    USBOTG_FS->UEP0_TX_LEN  = len;
    3f6c:	500007b7          	lui	a5,0x50000
    3f70:	fef44703          	lbu	a4,-17(s0)
    3f74:	0742                	slli	a4,a4,0x10
    3f76:	8341                	srli	a4,a4,0x10
    3f78:	02e79823          	sh	a4,48(a5) # 50000030 <_eusrstack+0x2fff0030>
C:/Users/86158/Desktop/IEECS-Design/Hardware/Reference/CHV307_Library-master/Example/libraries/sdk/Peripheral/ch32v30x_usbotg_device.c:766
                    USBOTG_FS->UEP0_TX_CTRL = USBHD_UEP_T_TOG|USBHD_UEP_T_RES_ACK;
    3f7c:	500007b7          	lui	a5,0x50000
    3f80:	4711                	li	a4,4
    3f82:	02e78923          	sb	a4,50(a5) # 50000032 <_eusrstack+0x2fff0032>
C:/Users/86158/Desktop/IEECS-Design/Hardware/Reference/CHV307_Library-master/Example/libraries/sdk/Peripheral/ch32v30x_usbotg_device.c:767
                    USBOTG_FS->UEP0_RX_CTRL = USBHD_UEP_R_TOG|USBHD_UEP_R_RES_ACK;
    3f86:	500007b7          	lui	a5,0x50000
    3f8a:	4711                	li	a4,4
    3f8c:	02e789a3          	sb	a4,51(a5) # 50000033 <_eusrstack+0x2fff0033>
C:/Users/86158/Desktop/IEECS-Design/Hardware/Reference/CHV307_Library-master/Example/libraries/sdk/Peripheral/ch32v30x_usbotg_device.c:769
                break;
    3f90:	a681                	j	42d0 <OTG_FS_IRQHandler+0xbd2>
C:/Users/86158/Desktop/IEECS-Design/Hardware/Reference/CHV307_Library-master/Example/libraries/sdk/Peripheral/ch32v30x_usbotg_device.c:772
                switch ( USBOTG_FS->INT_ST & ( USBHD_UIS_TOKEN_MASK | USBHD_UIS_ENDP_MASK ) )
    3f92:	500007b7          	lui	a5,0x50000
    3f96:	0077c783          	lbu	a5,7(a5) # 50000007 <_eusrstack+0x2fff0007>
    3f9a:	0ff7f793          	andi	a5,a5,255
    3f9e:	03f7f793          	andi	a5,a5,63
    3fa2:	02100713          	li	a4,33
    3fa6:	12e78563          	beq	a5,a4,40d0 <OTG_FS_IRQHandler+0x9d2>
    3faa:	02200713          	li	a4,34
    3fae:	14e78d63          	beq	a5,a4,4108 <OTG_FS_IRQHandler+0xa0a>
    3fb2:	02000713          	li	a4,32
    3fb6:	18e79e63          	bne	a5,a4,4152 <OTG_FS_IRQHandler+0xa54>
C:/Users/86158/Desktop/IEECS-Design/Hardware/Reference/CHV307_Library-master/Example/libraries/sdk/Peripheral/ch32v30x_usbotg_device.c:775 (discriminator 6)
                        switch( SetupReqCode )
    3fba:	86c1c783          	lbu	a5,-1940(gp) # 2000029c <SetupReqCode>
    3fbe:	0ff7f793          	andi	a5,a5,255
    3fc2:	4715                	li	a4,5
    3fc4:	0ae78063          	beq	a5,a4,4064 <OTG_FS_IRQHandler+0x966>
    3fc8:	4719                	li	a4,6
    3fca:	0ee79463          	bne	a5,a4,40b2 <OTG_FS_IRQHandler+0x9b4>
C:/Users/86158/Desktop/IEECS-Design/Hardware/Reference/CHV307_Library-master/Example/libraries/sdk/Peripheral/ch32v30x_usbotg_device.c:778
                                    len = SetupReqLen >= DevEP0SIZE ? DevEP0SIZE : SetupReqLen;
    3fce:	86e1d783          	lhu	a5,-1938(gp) # 2000029e <SetupReqLen>
    3fd2:	01079713          	slli	a4,a5,0x10
    3fd6:	8341                	srli	a4,a4,0x10
    3fd8:	479d                	li	a5,7
    3fda:	00e7e963          	bltu	a5,a4,3fec <OTG_FS_IRQHandler+0x8ee>
C:/Users/86158/Desktop/IEECS-Design/Hardware/Reference/CHV307_Library-master/Example/libraries/sdk/Peripheral/ch32v30x_usbotg_device.c:778 (discriminator 1)
    3fde:	86e1d783          	lhu	a5,-1938(gp) # 2000029e <SetupReqLen>
    3fe2:	07c2                	slli	a5,a5,0x10
    3fe4:	83c1                	srli	a5,a5,0x10
    3fe6:	0ff7f793          	andi	a5,a5,255
    3fea:	a011                	j	3fee <OTG_FS_IRQHandler+0x8f0>
C:/Users/86158/Desktop/IEECS-Design/Hardware/Reference/CHV307_Library-master/Example/libraries/sdk/Peripheral/ch32v30x_usbotg_device.c:778 (discriminator 2)
    3fec:	47a1                	li	a5,8
C:/Users/86158/Desktop/IEECS-Design/Hardware/Reference/CHV307_Library-master/Example/libraries/sdk/Peripheral/ch32v30x_usbotg_device.c:778 (discriminator 4)
    3fee:	fef407a3          	sb	a5,-17(s0)
C:/Users/86158/Desktop/IEECS-Design/Hardware/Reference/CHV307_Library-master/Example/libraries/sdk/Peripheral/ch32v30x_usbotg_device.c:779 (discriminator 4)
                                    memcpy( pEP0_DataBuf, pDescr, len );
    3ff2:	8581a703          	lw	a4,-1960(gp) # 20000288 <pEP0_RAM_Addr>
    3ff6:	8641a783          	lw	a5,-1948(gp) # 20000294 <pDescr>
    3ffa:	fef44683          	lbu	a3,-17(s0)
    3ffe:	8636                	mv	a2,a3
    4000:	85be                	mv	a1,a5
    4002:	853a                	mv	a0,a4
    4004:	6b3010ef          	jal	ra,5eb6 <memcpy>
C:/Users/86158/Desktop/IEECS-Design/Hardware/Reference/CHV307_Library-master/Example/libraries/sdk/Peripheral/ch32v30x_usbotg_device.c:780 (discriminator 4)
                                    SetupReqLen -= len;
    4008:	86e1d783          	lhu	a5,-1938(gp) # 2000029e <SetupReqLen>
    400c:	01079713          	slli	a4,a5,0x10
    4010:	8341                	srli	a4,a4,0x10
    4012:	fef44783          	lbu	a5,-17(s0)
    4016:	07c2                	slli	a5,a5,0x10
    4018:	83c1                	srli	a5,a5,0x10
    401a:	40f707b3          	sub	a5,a4,a5
    401e:	01079713          	slli	a4,a5,0x10
    4022:	8341                	srli	a4,a4,0x10
    4024:	86e19723          	sh	a4,-1938(gp) # 2000029e <SetupReqLen>
C:/Users/86158/Desktop/IEECS-Design/Hardware/Reference/CHV307_Library-master/Example/libraries/sdk/Peripheral/ch32v30x_usbotg_device.c:781 (discriminator 4)
                                    pDescr += len;
    4028:	8641a703          	lw	a4,-1948(gp) # 20000294 <pDescr>
    402c:	fef44783          	lbu	a5,-17(s0)
    4030:	973e                	add	a4,a4,a5
    4032:	86e1a223          	sw	a4,-1948(gp) # 20000294 <pDescr>
C:/Users/86158/Desktop/IEECS-Design/Hardware/Reference/CHV307_Library-master/Example/libraries/sdk/Peripheral/ch32v30x_usbotg_device.c:782 (discriminator 4)
                                    USBOTG_FS->UEP0_TX_LEN   = len;
    4036:	500007b7          	lui	a5,0x50000
    403a:	fef44703          	lbu	a4,-17(s0)
    403e:	0742                	slli	a4,a4,0x10
    4040:	8341                	srli	a4,a4,0x10
    4042:	02e79823          	sh	a4,48(a5) # 50000030 <_eusrstack+0x2fff0030>
C:/Users/86158/Desktop/IEECS-Design/Hardware/Reference/CHV307_Library-master/Example/libraries/sdk/Peripheral/ch32v30x_usbotg_device.c:783 (discriminator 4)
                                    USBOTG_FS->UEP0_TX_CTRL ^= USBHD_UEP_T_TOG;
    4046:	500007b7          	lui	a5,0x50000
    404a:	0327c783          	lbu	a5,50(a5) # 50000032 <_eusrstack+0x2fff0032>
    404e:	0ff7f713          	andi	a4,a5,255
    4052:	500007b7          	lui	a5,0x50000
    4056:	00474713          	xori	a4,a4,4
    405a:	0ff77713          	andi	a4,a4,255
    405e:	02e78923          	sb	a4,50(a5) # 50000032 <_eusrstack+0x2fff0032>
C:/Users/86158/Desktop/IEECS-Design/Hardware/Reference/CHV307_Library-master/Example/libraries/sdk/Peripheral/ch32v30x_usbotg_device.c:784 (discriminator 4)
                                    break;
    4062:	a0b5                	j	40ce <OTG_FS_IRQHandler+0x9d0>
C:/Users/86158/Desktop/IEECS-Design/Hardware/Reference/CHV307_Library-master/Example/libraries/sdk/Peripheral/ch32v30x_usbotg_device.c:787
                                    USBOTG_FS->DEV_ADDR = (USBOTG_FS->DEV_ADDR&USBHD_UDA_GP_BIT) | SetupReqLen;
    4064:	500007b7          	lui	a5,0x50000
    4068:	0037c783          	lbu	a5,3(a5) # 50000003 <_eusrstack+0x2fff0003>
    406c:	0ff7f793          	andi	a5,a5,255
    4070:	07e2                	slli	a5,a5,0x18
    4072:	87e1                	srai	a5,a5,0x18
    4074:	f807f793          	andi	a5,a5,-128
    4078:	01879713          	slli	a4,a5,0x18
    407c:	8761                	srai	a4,a4,0x18
    407e:	86e1d783          	lhu	a5,-1938(gp) # 2000029e <SetupReqLen>
    4082:	07c2                	slli	a5,a5,0x10
    4084:	83c1                	srli	a5,a5,0x10
    4086:	07e2                	slli	a5,a5,0x18
    4088:	87e1                	srai	a5,a5,0x18
    408a:	8fd9                	or	a5,a5,a4
    408c:	01879713          	slli	a4,a5,0x18
    4090:	8761                	srai	a4,a4,0x18
    4092:	500007b7          	lui	a5,0x50000
    4096:	0ff77713          	andi	a4,a4,255
    409a:	00e781a3          	sb	a4,3(a5) # 50000003 <_eusrstack+0x2fff0003>
C:/Users/86158/Desktop/IEECS-Design/Hardware/Reference/CHV307_Library-master/Example/libraries/sdk/Peripheral/ch32v30x_usbotg_device.c:788
                                    USBOTG_FS->UEP0_TX_CTRL = USBHD_UEP_T_RES_NAK;
    409e:	500007b7          	lui	a5,0x50000
    40a2:	4709                	li	a4,2
    40a4:	02e78923          	sb	a4,50(a5) # 50000032 <_eusrstack+0x2fff0032>
C:/Users/86158/Desktop/IEECS-Design/Hardware/Reference/CHV307_Library-master/Example/libraries/sdk/Peripheral/ch32v30x_usbotg_device.c:789
                                    USBOTG_FS->UEP0_RX_CTRL = USBHD_UEP_R_RES_ACK;
    40a8:	500007b7          	lui	a5,0x50000
    40ac:	020789a3          	sb	zero,51(a5) # 50000033 <_eusrstack+0x2fff0033>
C:/Users/86158/Desktop/IEECS-Design/Hardware/Reference/CHV307_Library-master/Example/libraries/sdk/Peripheral/ch32v30x_usbotg_device.c:790
                                    break;
    40b0:	a839                	j	40ce <OTG_FS_IRQHandler+0x9d0>
C:/Users/86158/Desktop/IEECS-Design/Hardware/Reference/CHV307_Library-master/Example/libraries/sdk/Peripheral/ch32v30x_usbotg_device.c:793
                                    USBOTG_FS->UEP0_TX_LEN = 0;
    40b2:	500007b7          	lui	a5,0x50000
    40b6:	02079823          	sh	zero,48(a5) # 50000030 <_eusrstack+0x2fff0030>
C:/Users/86158/Desktop/IEECS-Design/Hardware/Reference/CHV307_Library-master/Example/libraries/sdk/Peripheral/ch32v30x_usbotg_device.c:794
                                    USBOTG_FS->UEP0_TX_CTRL = USBHD_UEP_T_RES_NAK;
    40ba:	500007b7          	lui	a5,0x50000
    40be:	4709                	li	a4,2
    40c0:	02e78923          	sb	a4,50(a5) # 50000032 <_eusrstack+0x2fff0032>
C:/Users/86158/Desktop/IEECS-Design/Hardware/Reference/CHV307_Library-master/Example/libraries/sdk/Peripheral/ch32v30x_usbotg_device.c:795
                                    USBOTG_FS->UEP0_RX_CTRL = USBHD_UEP_R_RES_ACK;
    40c4:	500007b7          	lui	a5,0x50000
    40c8:	020789a3          	sb	zero,51(a5) # 50000033 <_eusrstack+0x2fff0033>
C:/Users/86158/Desktop/IEECS-Design/Hardware/Reference/CHV307_Library-master/Example/libraries/sdk/Peripheral/ch32v30x_usbotg_device.c:796
                                    break;
    40cc:	0001                	nop
C:/Users/86158/Desktop/IEECS-Design/Hardware/Reference/CHV307_Library-master/Example/libraries/sdk/Peripheral/ch32v30x_usbotg_device.c:799
                        break;
    40ce:	a059                	j	4154 <OTG_FS_IRQHandler+0xa56>
C:/Users/86158/Desktop/IEECS-Design/Hardware/Reference/CHV307_Library-master/Example/libraries/sdk/Peripheral/ch32v30x_usbotg_device.c:802
                    USBOTG_FS->UEP1_TX_CTRL  = (USBHD_UEP1_TX_CTRL & ~USBHD_UEP_T_RES_MASK) | USBHD_UEP_T_RES_ACK;
    40d0:	500007b7          	lui	a5,0x50000
    40d4:	0367c783          	lbu	a5,54(a5) # 50000036 <_eusrstack+0x2fff0036>
    40d8:	0ff7f713          	andi	a4,a5,255
    40dc:	500007b7          	lui	a5,0x50000
    40e0:	9b71                	andi	a4,a4,-4
    40e2:	0ff77713          	andi	a4,a4,255
    40e6:	02e78b23          	sb	a4,54(a5) # 50000036 <_eusrstack+0x2fff0036>
C:/Users/86158/Desktop/IEECS-Design/Hardware/Reference/CHV307_Library-master/Example/libraries/sdk/Peripheral/ch32v30x_usbotg_device.c:803
                    USBOTG_FS->UEP1_TX_CTRL ^= USBHD_UEP_T_TOG;
    40ea:	500007b7          	lui	a5,0x50000
    40ee:	0367c783          	lbu	a5,54(a5) # 50000036 <_eusrstack+0x2fff0036>
    40f2:	0ff7f713          	andi	a4,a5,255
    40f6:	500007b7          	lui	a5,0x50000
    40fa:	00474713          	xori	a4,a4,4
    40fe:	0ff77713          	andi	a4,a4,255
    4102:	02e78b23          	sb	a4,54(a5) # 50000036 <_eusrstack+0x2fff0036>
C:/Users/86158/Desktop/IEECS-Design/Hardware/Reference/CHV307_Library-master/Example/libraries/sdk/Peripheral/ch32v30x_usbotg_device.c:804
                    break;
    4106:	a0b9                	j	4154 <OTG_FS_IRQHandler+0xa56>
C:/Users/86158/Desktop/IEECS-Design/Hardware/Reference/CHV307_Library-master/Example/libraries/sdk/Peripheral/ch32v30x_usbotg_device.c:807
                    USBOTG_FS->UEP2_TX_CTRL ^= USBHD_UEP_T_TOG;
    4108:	500007b7          	lui	a5,0x50000
    410c:	03a7c783          	lbu	a5,58(a5) # 5000003a <_eusrstack+0x2fff003a>
    4110:	0ff7f713          	andi	a4,a5,255
    4114:	500007b7          	lui	a5,0x50000
    4118:	00474713          	xori	a4,a4,4
    411c:	0ff77713          	andi	a4,a4,255
    4120:	02e78d23          	sb	a4,58(a5) # 5000003a <_eusrstack+0x2fff003a>
C:/Users/86158/Desktop/IEECS-Design/Hardware/Reference/CHV307_Library-master/Example/libraries/sdk/Peripheral/ch32v30x_usbotg_device.c:808
                    USBOTG_FS->UEP2_TX_CTRL = (USBOTG_FS->UEP2_TX_CTRL & ~USBHD_UEP_T_RES_MASK) | USBHD_UEP_T_RES_NAK;
    4124:	500007b7          	lui	a5,0x50000
    4128:	03a7c783          	lbu	a5,58(a5) # 5000003a <_eusrstack+0x2fff003a>
    412c:	0ff7f793          	andi	a5,a5,255
    4130:	07e2                	slli	a5,a5,0x18
    4132:	87e1                	srai	a5,a5,0x18
    4134:	9bf1                	andi	a5,a5,-4
    4136:	07e2                	slli	a5,a5,0x18
    4138:	87e1                	srai	a5,a5,0x18
    413a:	0027e793          	ori	a5,a5,2
    413e:	01879713          	slli	a4,a5,0x18
    4142:	8761                	srai	a4,a4,0x18
    4144:	500007b7          	lui	a5,0x50000
    4148:	0ff77713          	andi	a4,a4,255
    414c:	02e78d23          	sb	a4,58(a5) # 5000003a <_eusrstack+0x2fff003a>
C:/Users/86158/Desktop/IEECS-Design/Hardware/Reference/CHV307_Library-master/Example/libraries/sdk/Peripheral/ch32v30x_usbotg_device.c:809
                    break;
    4150:	a011                	j	4154 <OTG_FS_IRQHandler+0xa56>
C:/Users/86158/Desktop/IEECS-Design/Hardware/Reference/CHV307_Library-master/Example/libraries/sdk/Peripheral/ch32v30x_usbotg_device.c:813
                    break;
    4152:	0001                	nop
C:/Users/86158/Desktop/IEECS-Design/Hardware/Reference/CHV307_Library-master/Example/libraries/sdk/Peripheral/ch32v30x_usbotg_device.c:816
                break;
    4154:	aab5                	j	42d0 <OTG_FS_IRQHandler+0xbd2>
C:/Users/86158/Desktop/IEECS-Design/Hardware/Reference/CHV307_Library-master/Example/libraries/sdk/Peripheral/ch32v30x_usbotg_device.c:820
                switch ( USBOTG_FS->INT_ST & ( USBHD_UIS_TOKEN_MASK | USBHD_UIS_ENDP_MASK ) )
    4156:	500007b7          	lui	a5,0x50000
    415a:	0077c783          	lbu	a5,7(a5) # 50000007 <_eusrstack+0x2fff0007>
    415e:	0ff7f793          	andi	a5,a5,255
    4162:	03f7f793          	andi	a5,a5,63
    4166:	4705                	li	a4,1
    4168:	0ce78763          	beq	a5,a4,4236 <OTG_FS_IRQHandler+0xb38>
    416c:	4709                	li	a4,2
    416e:	10e78663          	beq	a5,a4,427a <OTG_FS_IRQHandler+0xb7c>
    4172:	14079e63          	bnez	a5,42ce <OTG_FS_IRQHandler+0xbd0>
C:/Users/86158/Desktop/IEECS-Design/Hardware/Reference/CHV307_Library-master/Example/libraries/sdk/Peripheral/ch32v30x_usbotg_device.c:823 (discriminator 7)
                        switch( SetupReqCode )
    4176:	86c1c783          	lbu	a5,-1940(gp) # 2000029c <SetupReqCode>
    417a:	0ff7f793          	andi	a5,a5,255
    417e:	873e                	mv	a4,a5
    4180:	02000793          	li	a5,32
    4184:	0af71363          	bne	a4,a5,422a <OTG_FS_IRQHandler+0xb2c>
C:/Users/86158/Desktop/IEECS-Design/Hardware/Reference/CHV307_Library-master/Example/libraries/sdk/Peripheral/ch32v30x_usbotg_device.c:826
                                if((((LINECODINGST *)pEP0_DataBuf)->dataRat[0] || ((LINECODINGST *)pEP0_DataBuf)->dataRat[1] ||
    4188:	8581a783          	lw	a5,-1960(gp) # 20000288 <pEP0_RAM_Addr>
    418c:	0007c783          	lbu	a5,0(a5)
    4190:	e385                	bnez	a5,41b0 <OTG_FS_IRQHandler+0xab2>
C:/Users/86158/Desktop/IEECS-Design/Hardware/Reference/CHV307_Library-master/Example/libraries/sdk/Peripheral/ch32v30x_usbotg_device.c:826 (discriminator 1)
    4192:	8581a783          	lw	a5,-1960(gp) # 20000288 <pEP0_RAM_Addr>
    4196:	0017c783          	lbu	a5,1(a5)
    419a:	eb99                	bnez	a5,41b0 <OTG_FS_IRQHandler+0xab2>
C:/Users/86158/Desktop/IEECS-Design/Hardware/Reference/CHV307_Library-master/Example/libraries/sdk/Peripheral/ch32v30x_usbotg_device.c:827 (discriminator 2)
                                  ((LINECODINGST *)pEP0_DataBuf)->dataRat[2] || ((LINECODINGST *)pEP0_DataBuf)->dataRat[3]))
    419c:	8581a783          	lw	a5,-1960(gp) # 20000288 <pEP0_RAM_Addr>
    41a0:	0027c783          	lbu	a5,2(a5)
C:/Users/86158/Desktop/IEECS-Design/Hardware/Reference/CHV307_Library-master/Example/libraries/sdk/Peripheral/ch32v30x_usbotg_device.c:826 (discriminator 2)
                                if((((LINECODINGST *)pEP0_DataBuf)->dataRat[0] || ((LINECODINGST *)pEP0_DataBuf)->dataRat[1] ||
    41a4:	e791                	bnez	a5,41b0 <OTG_FS_IRQHandler+0xab2>
C:/Users/86158/Desktop/IEECS-Design/Hardware/Reference/CHV307_Library-master/Example/libraries/sdk/Peripheral/ch32v30x_usbotg_device.c:827
                                  ((LINECODINGST *)pEP0_DataBuf)->dataRat[2] || ((LINECODINGST *)pEP0_DataBuf)->dataRat[3]))
    41a6:	8581a783          	lw	a5,-1960(gp) # 20000288 <pEP0_RAM_Addr>
    41aa:	0037c783          	lbu	a5,3(a5)
    41ae:	cf9d                	beqz	a5,41ec <OTG_FS_IRQHandler+0xaee>
C:/Users/86158/Desktop/IEECS-Design/Hardware/Reference/CHV307_Library-master/Example/libraries/sdk/Peripheral/ch32v30x_usbotg_device.c:831
                                            (((LINECODINGST *)pEP0_DataBuf)->dataRat[3] <<24) |
    41b0:	8581a783          	lw	a5,-1960(gp) # 20000288 <pEP0_RAM_Addr>
    41b4:	0037c783          	lbu	a5,3(a5)
    41b8:	01879713          	slli	a4,a5,0x18
C:/Users/86158/Desktop/IEECS-Design/Hardware/Reference/CHV307_Library-master/Example/libraries/sdk/Peripheral/ch32v30x_usbotg_device.c:832
                                            (((LINECODINGST *)pEP0_DataBuf)->dataRat[2] <<16) |
    41bc:	8581a783          	lw	a5,-1960(gp) # 20000288 <pEP0_RAM_Addr>
    41c0:	0027c783          	lbu	a5,2(a5)
    41c4:	07c2                	slli	a5,a5,0x10
C:/Users/86158/Desktop/IEECS-Design/Hardware/Reference/CHV307_Library-master/Example/libraries/sdk/Peripheral/ch32v30x_usbotg_device.c:831
                                            (((LINECODINGST *)pEP0_DataBuf)->dataRat[3] <<24) |
    41c6:	8f5d                	or	a4,a4,a5
C:/Users/86158/Desktop/IEECS-Design/Hardware/Reference/CHV307_Library-master/Example/libraries/sdk/Peripheral/ch32v30x_usbotg_device.c:833
                                            (((LINECODINGST *)pEP0_DataBuf)->dataRat[1] <<8) |
    41c8:	8581a783          	lw	a5,-1960(gp) # 20000288 <pEP0_RAM_Addr>
    41cc:	0017c783          	lbu	a5,1(a5)
    41d0:	07a2                	slli	a5,a5,0x8
C:/Users/86158/Desktop/IEECS-Design/Hardware/Reference/CHV307_Library-master/Example/libraries/sdk/Peripheral/ch32v30x_usbotg_device.c:832
                                            (((LINECODINGST *)pEP0_DataBuf)->dataRat[2] <<16) |
    41d2:	8fd9                	or	a5,a5,a4
C:/Users/86158/Desktop/IEECS-Design/Hardware/Reference/CHV307_Library-master/Example/libraries/sdk/Peripheral/ch32v30x_usbotg_device.c:834
                                            (((LINECODINGST *)pEP0_DataBuf)->dataRat[0]));
    41d4:	8581a703          	lw	a4,-1960(gp) # 20000288 <pEP0_RAM_Addr>
    41d8:	00074703          	lbu	a4,0(a4)
C:/Users/86158/Desktop/IEECS-Design/Hardware/Reference/CHV307_Library-master/Example/libraries/sdk/Peripheral/ch32v30x_usbotg_device.c:830
                                    printf( "\nBaud Rate = %d",
    41dc:	8fd9                	or	a5,a5,a4
    41de:	85be                	mv	a1,a5
    41e0:	67a5                	lui	a5,0x9
    41e2:	53078513          	addi	a0,a5,1328 # 9530 <_sbrk+0x142>
    41e6:	776020ef          	jal	ra,695c <iprintf>
C:/Users/86158/Desktop/IEECS-Design/Hardware/Reference/CHV307_Library-master/Example/libraries/sdk/Peripheral/ch32v30x_usbotg_device.c:843
                               break;
    41ea:	a83d                	j	4228 <OTG_FS_IRQHandler+0xb2a>
C:/Users/86158/Desktop/IEECS-Design/Hardware/Reference/CHV307_Library-master/Example/libraries/sdk/Peripheral/ch32v30x_usbotg_device.c:838
                                    printf( "\ndataBit = %d",  ((LINECODINGST *)pEP0_DataBuf)->dataBit);
    41ec:	8581a783          	lw	a5,-1960(gp) # 20000288 <pEP0_RAM_Addr>
    41f0:	0067c783          	lbu	a5,6(a5)
    41f4:	85be                	mv	a1,a5
    41f6:	67a5                	lui	a5,0x9
    41f8:	54078513          	addi	a0,a5,1344 # 9540 <_sbrk+0x152>
    41fc:	760020ef          	jal	ra,695c <iprintf>
C:/Users/86158/Desktop/IEECS-Design/Hardware/Reference/CHV307_Library-master/Example/libraries/sdk/Peripheral/ch32v30x_usbotg_device.c:839
                                    printf( "\nstopBit = %d",  ((LINECODINGST *)pEP0_DataBuf)->stopBit);
    4200:	8581a783          	lw	a5,-1960(gp) # 20000288 <pEP0_RAM_Addr>
    4204:	0047c783          	lbu	a5,4(a5)
    4208:	85be                	mv	a1,a5
    420a:	67a5                	lui	a5,0x9
    420c:	55078513          	addi	a0,a5,1360 # 9550 <_sbrk+0x162>
    4210:	74c020ef          	jal	ra,695c <iprintf>
C:/Users/86158/Desktop/IEECS-Design/Hardware/Reference/CHV307_Library-master/Example/libraries/sdk/Peripheral/ch32v30x_usbotg_device.c:840
                                    printf( "\nparityType = %d",  ((LINECODINGST *)pEP0_DataBuf)->parityType);
    4214:	8581a783          	lw	a5,-1960(gp) # 20000288 <pEP0_RAM_Addr>
    4218:	0057c783          	lbu	a5,5(a5)
    421c:	85be                	mv	a1,a5
    421e:	67a5                	lui	a5,0x9
    4220:	56078513          	addi	a0,a5,1376 # 9560 <_sbrk+0x172>
    4224:	738020ef          	jal	ra,695c <iprintf>
C:/Users/86158/Desktop/IEECS-Design/Hardware/Reference/CHV307_Library-master/Example/libraries/sdk/Peripheral/ch32v30x_usbotg_device.c:843
                               break;
    4228:	0001                	nop
C:/Users/86158/Desktop/IEECS-Design/Hardware/Reference/CHV307_Library-master/Example/libraries/sdk/Peripheral/ch32v30x_usbotg_device.c:847
                    len = USBOTG_FS->RX_LEN;
    422a:	500007b7          	lui	a5,0x50000
    422e:	479c                	lw	a5,8(a5)
    4230:	fef407a3          	sb	a5,-17(s0)
C:/Users/86158/Desktop/IEECS-Design/Hardware/Reference/CHV307_Library-master/Example/libraries/sdk/Peripheral/ch32v30x_usbotg_device.c:848
                    break;
    4234:	a841                	j	42c4 <OTG_FS_IRQHandler+0xbc6>
C:/Users/86158/Desktop/IEECS-Design/Hardware/Reference/CHV307_Library-master/Example/libraries/sdk/Peripheral/ch32v30x_usbotg_device.c:851
                        if ( USBOTG_FS->INT_ST & USBHD_UIS_TOG_OK )
    4236:	500007b7          	lui	a5,0x50000
    423a:	0077c783          	lbu	a5,7(a5) # 50000007 <_eusrstack+0x2fff0007>
    423e:	0ff7f793          	andi	a5,a5,255
    4242:	0407f793          	andi	a5,a5,64
    4246:	cfa5                	beqz	a5,42be <OTG_FS_IRQHandler+0xbc0>
C:/Users/86158/Desktop/IEECS-Design/Hardware/Reference/CHV307_Library-master/Example/libraries/sdk/Peripheral/ch32v30x_usbotg_device.c:853
                            USBOTG_FS->UEP1_RX_CTRL ^= USBHD_UEP_R_TOG;
    4248:	500007b7          	lui	a5,0x50000
    424c:	0377c783          	lbu	a5,55(a5) # 50000037 <_eusrstack+0x2fff0037>
    4250:	0ff7f713          	andi	a4,a5,255
    4254:	500007b7          	lui	a5,0x50000
    4258:	00474713          	xori	a4,a4,4
    425c:	0ff77713          	andi	a4,a4,255
    4260:	02e78ba3          	sb	a4,55(a5) # 50000037 <_eusrstack+0x2fff0037>
C:/Users/86158/Desktop/IEECS-Design/Hardware/Reference/CHV307_Library-master/Example/libraries/sdk/Peripheral/ch32v30x_usbotg_device.c:854
                            len = USBOTG_FS->RX_LEN;
    4264:	500007b7          	lui	a5,0x50000
    4268:	479c                	lw	a5,8(a5)
    426a:	fef407a3          	sb	a5,-17(s0)
C:/Users/86158/Desktop/IEECS-Design/Hardware/Reference/CHV307_Library-master/Example/libraries/sdk/Peripheral/ch32v30x_usbotg_device.c:856
                            DevEP1_OUT_Deal( len );
    426e:	fef44783          	lbu	a5,-17(s0)
    4272:	853e                	mv	a0,a5
    4274:	bc2ff0ef          	jal	ra,3636 <DevEP1_OUT_Deal>
C:/Users/86158/Desktop/IEECS-Design/Hardware/Reference/CHV307_Library-master/Example/libraries/sdk/Peripheral/ch32v30x_usbotg_device.c:858
                        break;
    4278:	a099                	j	42be <OTG_FS_IRQHandler+0xbc0>
C:/Users/86158/Desktop/IEECS-Design/Hardware/Reference/CHV307_Library-master/Example/libraries/sdk/Peripheral/ch32v30x_usbotg_device.c:861
                        if ( USBOTG_FS->INT_ST & USBHD_UIS_TOG_OK )
    427a:	500007b7          	lui	a5,0x50000
    427e:	0077c783          	lbu	a5,7(a5) # 50000007 <_eusrstack+0x2fff0007>
    4282:	0ff7f793          	andi	a5,a5,255
    4286:	0407f793          	andi	a5,a5,64
    428a:	cf85                	beqz	a5,42c2 <OTG_FS_IRQHandler+0xbc4>
C:/Users/86158/Desktop/IEECS-Design/Hardware/Reference/CHV307_Library-master/Example/libraries/sdk/Peripheral/ch32v30x_usbotg_device.c:863
                            USBOTG_FS->UEP2_RX_CTRL ^= USBHD_UEP_R_TOG;
    428c:	500007b7          	lui	a5,0x50000
    4290:	03b7c783          	lbu	a5,59(a5) # 5000003b <_eusrstack+0x2fff003b>
    4294:	0ff7f713          	andi	a4,a5,255
    4298:	500007b7          	lui	a5,0x50000
    429c:	00474713          	xori	a4,a4,4
    42a0:	0ff77713          	andi	a4,a4,255
    42a4:	02e78da3          	sb	a4,59(a5) # 5000003b <_eusrstack+0x2fff003b>
C:/Users/86158/Desktop/IEECS-Design/Hardware/Reference/CHV307_Library-master/Example/libraries/sdk/Peripheral/ch32v30x_usbotg_device.c:864
                            len = USBOTG_FS->RX_LEN;
    42a8:	500007b7          	lui	a5,0x50000
    42ac:	479c                	lw	a5,8(a5)
    42ae:	fef407a3          	sb	a5,-17(s0)
C:/Users/86158/Desktop/IEECS-Design/Hardware/Reference/CHV307_Library-master/Example/libraries/sdk/Peripheral/ch32v30x_usbotg_device.c:866
                            DevEP2_OUT_Deal( len );
    42b2:	fef44783          	lbu	a5,-17(s0)
    42b6:	853e                	mv	a0,a5
    42b8:	be2ff0ef          	jal	ra,369a <DevEP2_OUT_Deal>
C:/Users/86158/Desktop/IEECS-Design/Hardware/Reference/CHV307_Library-master/Example/libraries/sdk/Peripheral/ch32v30x_usbotg_device.c:868
                        break;
    42bc:	a019                	j	42c2 <OTG_FS_IRQHandler+0xbc4>
C:/Users/86158/Desktop/IEECS-Design/Hardware/Reference/CHV307_Library-master/Example/libraries/sdk/Peripheral/ch32v30x_usbotg_device.c:858
                        break;
    42be:	0001                	nop
    42c0:	a039                	j	42ce <OTG_FS_IRQHandler+0xbd0>
C:/Users/86158/Desktop/IEECS-Design/Hardware/Reference/CHV307_Library-master/Example/libraries/sdk/Peripheral/ch32v30x_usbotg_device.c:868
                        break;
    42c2:	0001                	nop
C:/Users/86158/Desktop/IEECS-Design/Hardware/Reference/CHV307_Library-master/Example/libraries/sdk/Peripheral/ch32v30x_usbotg_device.c:871
                break;
    42c4:	a029                	j	42ce <OTG_FS_IRQHandler+0xbd0>
C:/Users/86158/Desktop/IEECS-Design/Hardware/Reference/CHV307_Library-master/Example/libraries/sdk/Peripheral/ch32v30x_usbotg_device.c:875
                break;
    42c6:	0001                	nop
    42c8:	a021                	j	42d0 <OTG_FS_IRQHandler+0xbd2>
C:/Users/86158/Desktop/IEECS-Design/Hardware/Reference/CHV307_Library-master/Example/libraries/sdk/Peripheral/ch32v30x_usbotg_device.c:878
                break;
    42ca:	0001                	nop
    42cc:	a011                	j	42d0 <OTG_FS_IRQHandler+0xbd2>
C:/Users/86158/Desktop/IEECS-Design/Hardware/Reference/CHV307_Library-master/Example/libraries/sdk/Peripheral/ch32v30x_usbotg_device.c:871
                break;
    42ce:	0001                	nop
C:/Users/86158/Desktop/IEECS-Design/Hardware/Reference/CHV307_Library-master/Example/libraries/sdk/Peripheral/ch32v30x_usbotg_device.c:882

        }

        USBOTG_FS->INT_FG = USBHD_UIF_TRANSFER;
    42d0:	500007b7          	lui	a5,0x50000
    42d4:	4709                	li	a4,2
    42d6:	00e78323          	sb	a4,6(a5) # 50000006 <_eusrstack+0x2fff0006>
C:/Users/86158/Desktop/IEECS-Design/Hardware/Reference/CHV307_Library-master/Example/libraries/sdk/Peripheral/ch32v30x_usbotg_device.c:908
    }
    else
    {
        USBOTG_FS->INT_FG = intflag;
    }
}
    42da:	a079                	j	4368 <OTG_FS_IRQHandler+0xc6a>
C:/Users/86158/Desktop/IEECS-Design/Hardware/Reference/CHV307_Library-master/Example/libraries/sdk/Peripheral/ch32v30x_usbotg_device.c:884
    else if( intflag & USBHD_UIF_BUS_RST )
    42dc:	fed44783          	lbu	a5,-19(s0)
    42e0:	8b85                	andi	a5,a5,1
    42e2:	cfb9                	beqz	a5,4340 <OTG_FS_IRQHandler+0xc42>
C:/Users/86158/Desktop/IEECS-Design/Hardware/Reference/CHV307_Library-master/Example/libraries/sdk/Peripheral/ch32v30x_usbotg_device.c:886
        USBOTG_FS->DEV_ADDR = 0;
    42e4:	500007b7          	lui	a5,0x50000
    42e8:	000781a3          	sb	zero,3(a5) # 50000003 <_eusrstack+0x2fff0003>
C:/Users/86158/Desktop/IEECS-Design/Hardware/Reference/CHV307_Library-master/Example/libraries/sdk/Peripheral/ch32v30x_usbotg_device.c:888
        USBOTG_FS->UEP0_RX_CTRL = USBHD_UEP_R_RES_ACK;
    42ec:	500007b7          	lui	a5,0x50000
    42f0:	020789a3          	sb	zero,51(a5) # 50000033 <_eusrstack+0x2fff0033>
C:/Users/86158/Desktop/IEECS-Design/Hardware/Reference/CHV307_Library-master/Example/libraries/sdk/Peripheral/ch32v30x_usbotg_device.c:889
        USBOTG_FS->UEP1_RX_CTRL = USBHD_UEP_R_RES_ACK;
    42f4:	500007b7          	lui	a5,0x50000
    42f8:	02078ba3          	sb	zero,55(a5) # 50000037 <_eusrstack+0x2fff0037>
C:/Users/86158/Desktop/IEECS-Design/Hardware/Reference/CHV307_Library-master/Example/libraries/sdk/Peripheral/ch32v30x_usbotg_device.c:890
        USBOTG_FS->UEP2_RX_CTRL = USBHD_UEP_R_RES_ACK;
    42fc:	500007b7          	lui	a5,0x50000
    4300:	02078da3          	sb	zero,59(a5) # 5000003b <_eusrstack+0x2fff003b>
C:/Users/86158/Desktop/IEECS-Design/Hardware/Reference/CHV307_Library-master/Example/libraries/sdk/Peripheral/ch32v30x_usbotg_device.c:892
        USBOTG_FS->UEP0_TX_CTRL = USBHD_UEP_T_RES_NAK;
    4304:	500007b7          	lui	a5,0x50000
    4308:	4709                	li	a4,2
    430a:	02e78923          	sb	a4,50(a5) # 50000032 <_eusrstack+0x2fff0032>
C:/Users/86158/Desktop/IEECS-Design/Hardware/Reference/CHV307_Library-master/Example/libraries/sdk/Peripheral/ch32v30x_usbotg_device.c:893
        USBOTG_FS->UEP1_TX_CTRL = USBHD_UEP_T_RES_NAK;
    430e:	500007b7          	lui	a5,0x50000
    4312:	4709                	li	a4,2
    4314:	02e78b23          	sb	a4,54(a5) # 50000036 <_eusrstack+0x2fff0036>
C:/Users/86158/Desktop/IEECS-Design/Hardware/Reference/CHV307_Library-master/Example/libraries/sdk/Peripheral/ch32v30x_usbotg_device.c:894
        USBOTG_FS->UEP2_TX_CTRL = USBHD_UEP_T_RES_NAK;
    4318:	500007b7          	lui	a5,0x50000
    431c:	4709                	li	a4,2
    431e:	02e78d23          	sb	a4,58(a5) # 5000003a <_eusrstack+0x2fff003a>
C:/Users/86158/Desktop/IEECS-Design/Hardware/Reference/CHV307_Library-master/Example/libraries/sdk/Peripheral/ch32v30x_usbotg_device.c:896
        USBOTG_FS->INT_FG |= USBHD_UIF_BUS_RST;
    4322:	500007b7          	lui	a5,0x50000
    4326:	0067c783          	lbu	a5,6(a5) # 50000006 <_eusrstack+0x2fff0006>
    432a:	0ff7f713          	andi	a4,a5,255
    432e:	500007b7          	lui	a5,0x50000
    4332:	00176713          	ori	a4,a4,1
    4336:	0ff77713          	andi	a4,a4,255
    433a:	00e78323          	sb	a4,6(a5) # 50000006 <_eusrstack+0x2fff0006>
C:/Users/86158/Desktop/IEECS-Design/Hardware/Reference/CHV307_Library-master/Example/libraries/sdk/Peripheral/ch32v30x_usbotg_device.c:908
}
    433e:	a02d                	j	4368 <OTG_FS_IRQHandler+0xc6a>
C:/Users/86158/Desktop/IEECS-Design/Hardware/Reference/CHV307_Library-master/Example/libraries/sdk/Peripheral/ch32v30x_usbotg_device.c:898
    else if( intflag & USBHD_UIF_SUSPEND )
    4340:	fed44783          	lbu	a5,-19(s0)
    4344:	8b91                	andi	a5,a5,4
    4346:	cb99                	beqz	a5,435c <OTG_FS_IRQHandler+0xc5e>
C:/Users/86158/Desktop/IEECS-Design/Hardware/Reference/CHV307_Library-master/Example/libraries/sdk/Peripheral/ch32v30x_usbotg_device.c:900
        if ( USBOTG_FS->MIS_ST & USBHD_UMS_SUSPEND ) {;}
    4348:	500007b7          	lui	a5,0x50000
    434c:	0057c783          	lbu	a5,5(a5) # 50000005 <_eusrstack+0x2fff0005>
C:/Users/86158/Desktop/IEECS-Design/Hardware/Reference/CHV307_Library-master/Example/libraries/sdk/Peripheral/ch32v30x_usbotg_device.c:902
        USBOTG_FS->INT_FG = USBHD_UIF_SUSPEND;
    4350:	500007b7          	lui	a5,0x50000
    4354:	4711                	li	a4,4
    4356:	00e78323          	sb	a4,6(a5) # 50000006 <_eusrstack+0x2fff0006>
C:/Users/86158/Desktop/IEECS-Design/Hardware/Reference/CHV307_Library-master/Example/libraries/sdk/Peripheral/ch32v30x_usbotg_device.c:908
}
    435a:	a039                	j	4368 <OTG_FS_IRQHandler+0xc6a>
C:/Users/86158/Desktop/IEECS-Design/Hardware/Reference/CHV307_Library-master/Example/libraries/sdk/Peripheral/ch32v30x_usbotg_device.c:906
        USBOTG_FS->INT_FG = intflag;
    435c:	500007b7          	lui	a5,0x50000
    4360:	fed44703          	lbu	a4,-19(s0)
    4364:	00e78323          	sb	a4,6(a5) # 50000006 <_eusrstack+0x2fff0006>
C:/Users/86158/Desktop/IEECS-Design/Hardware/Reference/CHV307_Library-master/Example/libraries/sdk/Peripheral/ch32v30x_usbotg_device.c:908
}
    4368:	0001                	nop
    436a:	4472                	lw	s0,28(sp)
    436c:	6105                	addi	sp,sp,32
    436e:	30200073          	mret

00004372 <__adddf3>:
__adddf3():
    4372:	00100837          	lui	a6,0x100
    4376:	1101                	addi	sp,sp,-32
    4378:	187d                	addi	a6,a6,-1
    437a:	00b87733          	and	a4,a6,a1
    437e:	ca26                	sw	s1,20(sp)
    4380:	00d87833          	and	a6,a6,a3
    4384:	0145d493          	srli	s1,a1,0x14
    4388:	0146d313          	srli	t1,a3,0x14
    438c:	00371e13          	slli	t3,a4,0x3
    4390:	c64e                	sw	s3,12(sp)
    4392:	01d55713          	srli	a4,a0,0x1d
    4396:	080e                	slli	a6,a6,0x3
    4398:	01d65793          	srli	a5,a2,0x1d
    439c:	7ff4f493          	andi	s1,s1,2047
    43a0:	7ff37313          	andi	t1,t1,2047
    43a4:	ce06                	sw	ra,28(sp)
    43a6:	cc22                	sw	s0,24(sp)
    43a8:	c84a                	sw	s2,16(sp)
    43aa:	01f5d993          	srli	s3,a1,0x1f
    43ae:	01f6de93          	srli	t4,a3,0x1f
    43b2:	01c76733          	or	a4,a4,t3
    43b6:	00351f13          	slli	t5,a0,0x3
    43ba:	0107e833          	or	a6,a5,a6
    43be:	00361f93          	slli	t6,a2,0x3
    43c2:	40648e33          	sub	t3,s1,t1
    43c6:	19d98063          	beq	s3,t4,4546 <__adddf3+0x1d4>
    43ca:	13c05663          	blez	t3,44f6 <__adddf3+0x184>
    43ce:	1c030463          	beqz	t1,4596 <__adddf3+0x224>
    43d2:	008006b7          	lui	a3,0x800
    43d6:	7ff00793          	li	a5,2047
    43da:	00d86833          	or	a6,a6,a3
    43de:	36f48f63          	beq	s1,a5,475c <__adddf3+0x3ea>
    43e2:	03800793          	li	a5,56
    43e6:	35c7c063          	blt	a5,t3,4726 <__adddf3+0x3b4>
    43ea:	47fd                	li	a5,31
    43ec:	47c7cd63          	blt	a5,t3,4866 <__adddf3+0x4f4>
    43f0:	02000513          	li	a0,32
    43f4:	41c50533          	sub	a0,a0,t3
    43f8:	01cfd7b3          	srl	a5,t6,t3
    43fc:	00a816b3          	sll	a3,a6,a0
    4400:	00af9933          	sll	s2,t6,a0
    4404:	8edd                	or	a3,a3,a5
    4406:	01203933          	snez	s2,s2
    440a:	01c857b3          	srl	a5,a6,t3
    440e:	0126e933          	or	s2,a3,s2
    4412:	8f1d                	sub	a4,a4,a5
    4414:	412f0933          	sub	s2,t5,s2
    4418:	012f37b3          	sltu	a5,t5,s2
    441c:	40f70633          	sub	a2,a4,a5
    4420:	00861793          	slli	a5,a2,0x8
    4424:	2407d463          	bgez	a5,466c <__adddf3+0x2fa>
    4428:	00800737          	lui	a4,0x800
    442c:	177d                	addi	a4,a4,-1
    442e:	00e67433          	and	s0,a2,a4
    4432:	2c040c63          	beqz	s0,470a <__adddf3+0x398>
    4436:	8522                	mv	a0,s0
    4438:	209010ef          	jal	ra,5e40 <__clzsi2>
    443c:	ff850713          	addi	a4,a0,-8
    4440:	02000793          	li	a5,32
    4444:	8f99                	sub	a5,a5,a4
    4446:	00f957b3          	srl	a5,s2,a5
    444a:	00e41633          	sll	a2,s0,a4
    444e:	8fd1                	or	a5,a5,a2
    4450:	00e91933          	sll	s2,s2,a4
    4454:	2a974163          	blt	a4,s1,46f6 <__adddf3+0x384>
    4458:	40970533          	sub	a0,a4,s1
    445c:	00150613          	addi	a2,a0,1
    4460:	477d                	li	a4,31
    4462:	38c74d63          	blt	a4,a2,47fc <__adddf3+0x48a>
    4466:	02000713          	li	a4,32
    446a:	8f11                	sub	a4,a4,a2
    446c:	00c956b3          	srl	a3,s2,a2
    4470:	00e91933          	sll	s2,s2,a4
    4474:	00e79733          	sll	a4,a5,a4
    4478:	8f55                	or	a4,a4,a3
    447a:	01203933          	snez	s2,s2
    447e:	01276933          	or	s2,a4,s2
    4482:	00c7d633          	srl	a2,a5,a2
    4486:	4481                	li	s1,0
    4488:	00797793          	andi	a5,s2,7
    448c:	cf81                	beqz	a5,44a4 <__adddf3+0x132>
    448e:	00f97713          	andi	a4,s2,15
    4492:	4791                	li	a5,4
    4494:	00f70863          	beq	a4,a5,44a4 <__adddf3+0x132>
    4498:	00490713          	addi	a4,s2,4
    449c:	01273933          	sltu	s2,a4,s2
    44a0:	964a                	add	a2,a2,s2
    44a2:	893a                	mv	s2,a4
    44a4:	00861793          	slli	a5,a2,0x8
    44a8:	1c07d663          	bgez	a5,4674 <__adddf3+0x302>
    44ac:	00148513          	addi	a0,s1,1
    44b0:	7ff00793          	li	a5,2047
    44b4:	85ce                	mv	a1,s3
    44b6:	20f50463          	beq	a0,a5,46be <__adddf3+0x34c>
    44ba:	ff8007b7          	lui	a5,0xff800
    44be:	17fd                	addi	a5,a5,-1
    44c0:	8ff1                	and	a5,a5,a2
    44c2:	01d79893          	slli	a7,a5,0x1d
    44c6:	00395913          	srli	s2,s2,0x3
    44ca:	07a6                	slli	a5,a5,0x9
    44cc:	0128e8b3          	or	a7,a7,s2
    44d0:	83b1                	srli	a5,a5,0xc
    44d2:	7ff57513          	andi	a0,a0,2047
    44d6:	00c79693          	slli	a3,a5,0xc
    44da:	0552                	slli	a0,a0,0x14
    44dc:	40f2                	lw	ra,28(sp)
    44de:	4462                	lw	s0,24(sp)
    44e0:	82b1                	srli	a3,a3,0xc
    44e2:	05fe                	slli	a1,a1,0x1f
    44e4:	8ec9                	or	a3,a3,a0
    44e6:	8ecd                	or	a3,a3,a1
    44e8:	44d2                	lw	s1,20(sp)
    44ea:	4942                	lw	s2,16(sp)
    44ec:	49b2                	lw	s3,12(sp)
    44ee:	8546                	mv	a0,a7
    44f0:	85b6                	mv	a1,a3
    44f2:	6105                	addi	sp,sp,32
    44f4:	8082                	ret
    44f6:	0a0e1e63          	bnez	t3,45b2 <__adddf3+0x240>
    44fa:	00148313          	addi	t1,s1,1
    44fe:	7fe37313          	andi	t1,t1,2046
    4502:	22031763          	bnez	t1,4730 <__adddf3+0x3be>
    4506:	01e767b3          	or	a5,a4,t5
    450a:	01f868b3          	or	a7,a6,t6
    450e:	1a049d63          	bnez	s1,46c8 <__adddf3+0x356>
    4512:	40078763          	beqz	a5,4920 <__adddf3+0x5ae>
    4516:	44088663          	beqz	a7,4962 <__adddf3+0x5f0>
    451a:	41ff0933          	sub	s2,t5,t6
    451e:	410707b3          	sub	a5,a4,a6
    4522:	012f3633          	sltu	a2,t5,s2
    4526:	40c78633          	sub	a2,a5,a2
    452a:	00861793          	slli	a5,a2,0x8
    452e:	4c07d663          	bgez	a5,49fa <__adddf3+0x688>
    4532:	41ef8933          	sub	s2,t6,t5
    4536:	40e807b3          	sub	a5,a6,a4
    453a:	012fb633          	sltu	a2,t6,s2
    453e:	40c78633          	sub	a2,a5,a2
    4542:	89f6                	mv	s3,t4
    4544:	b791                	j	4488 <__adddf3+0x116>
    4546:	0fc05063          	blez	t3,4626 <__adddf3+0x2b4>
    454a:	0c030063          	beqz	t1,460a <__adddf3+0x298>
    454e:	008006b7          	lui	a3,0x800
    4552:	7ff00793          	li	a5,2047
    4556:	00d86833          	or	a6,a6,a3
    455a:	3af48a63          	beq	s1,a5,490e <__adddf3+0x59c>
    455e:	03800793          	li	a5,56
    4562:	13c7cb63          	blt	a5,t3,4698 <__adddf3+0x326>
    4566:	47fd                	li	a5,31
    4568:	35c7df63          	bge	a5,t3,48c6 <__adddf3+0x554>
    456c:	fe0e0913          	addi	s2,t3,-32
    4570:	02000793          	li	a5,32
    4574:	012856b3          	srl	a3,a6,s2
    4578:	00fe0a63          	beq	t3,a5,458c <__adddf3+0x21a>
    457c:	04000913          	li	s2,64
    4580:	41c90933          	sub	s2,s2,t3
    4584:	01281933          	sll	s2,a6,s2
    4588:	012fefb3          	or	t6,t6,s2
    458c:	01f03933          	snez	s2,t6
    4590:	00d96933          	or	s2,s2,a3
    4594:	a231                	j	46a0 <__adddf3+0x32e>
    4596:	01f867b3          	or	a5,a6,t6
    459a:	1c078a63          	beqz	a5,476e <__adddf3+0x3fc>
    459e:	fffe0793          	addi	a5,t3,-1
    45a2:	38078c63          	beqz	a5,493a <__adddf3+0x5c8>
    45a6:	7ff00693          	li	a3,2047
    45aa:	1ade0963          	beq	t3,a3,475c <__adddf3+0x3ea>
    45ae:	8e3e                	mv	t3,a5
    45b0:	bd0d                	j	43e2 <__adddf3+0x70>
    45b2:	409305b3          	sub	a1,t1,s1
    45b6:	22049163          	bnez	s1,47d8 <__adddf3+0x466>
    45ba:	01e767b3          	or	a5,a4,t5
    45be:	32078763          	beqz	a5,48ec <__adddf3+0x57a>
    45c2:	fff58793          	addi	a5,a1,-1
    45c6:	44078163          	beqz	a5,4a08 <__adddf3+0x696>
    45ca:	7ff00693          	li	a3,2047
    45ce:	20d58c63          	beq	a1,a3,47e6 <__adddf3+0x474>
    45d2:	85be                	mv	a1,a5
    45d4:	03800793          	li	a5,56
    45d8:	2ab7cc63          	blt	a5,a1,4890 <__adddf3+0x51e>
    45dc:	47fd                	li	a5,31
    45de:	3cb7cf63          	blt	a5,a1,49bc <__adddf3+0x64a>
    45e2:	02000793          	li	a5,32
    45e6:	8f8d                	sub	a5,a5,a1
    45e8:	00f71933          	sll	s2,a4,a5
    45ec:	00bf56b3          	srl	a3,t5,a1
    45f0:	00ff17b3          	sll	a5,t5,a5
    45f4:	00d96933          	or	s2,s2,a3
    45f8:	00f037b3          	snez	a5,a5
    45fc:	00b75733          	srl	a4,a4,a1
    4600:	00f96933          	or	s2,s2,a5
    4604:	40e80833          	sub	a6,a6,a4
    4608:	ac41                	j	4898 <__adddf3+0x526>
    460a:	01f867b3          	or	a5,a6,t6
    460e:	34078063          	beqz	a5,494e <__adddf3+0x5dc>
    4612:	fffe0793          	addi	a5,t3,-1
    4616:	20078a63          	beqz	a5,482a <__adddf3+0x4b8>
    461a:	7ff00693          	li	a3,2047
    461e:	2ede0863          	beq	t3,a3,490e <__adddf3+0x59c>
    4622:	8e3e                	mv	t3,a5
    4624:	bf2d                	j	455e <__adddf3+0x1ec>
    4626:	140e1e63          	bnez	t3,4782 <__adddf3+0x410>
    462a:	00148693          	addi	a3,s1,1
    462e:	7fe6f793          	andi	a5,a3,2046
    4632:	34079163          	bnez	a5,4974 <__adddf3+0x602>
    4636:	01e767b3          	or	a5,a4,t5
    463a:	2c049563          	bnez	s1,4904 <__adddf3+0x592>
    463e:	3e078063          	beqz	a5,4a1e <__adddf3+0x6ac>
    4642:	01f867b3          	or	a5,a6,t6
    4646:	30078e63          	beqz	a5,4962 <__adddf3+0x5f0>
    464a:	01ff0933          	add	s2,t5,t6
    464e:	010707b3          	add	a5,a4,a6
    4652:	01e93f33          	sltu	t5,s2,t5
    4656:	01e78633          	add	a2,a5,t5
    465a:	00861793          	slli	a5,a2,0x8
    465e:	0007d763          	bgez	a5,466c <__adddf3+0x2fa>
    4662:	ff8007b7          	lui	a5,0xff800
    4666:	17fd                	addi	a5,a5,-1
    4668:	8e7d                	and	a2,a2,a5
    466a:	4485                	li	s1,1
    466c:	00797793          	andi	a5,s2,7
    4670:	e0079fe3          	bnez	a5,448e <__adddf3+0x11c>
    4674:	01d61793          	slli	a5,a2,0x1d
    4678:	00395893          	srli	a7,s2,0x3
    467c:	00f8e8b3          	or	a7,a7,a5
    4680:	00365793          	srli	a5,a2,0x3
    4684:	7ff00713          	li	a4,2047
    4688:	04e48d63          	beq	s1,a4,46e2 <__adddf3+0x370>
    468c:	07b2                	slli	a5,a5,0xc
    468e:	83b1                	srli	a5,a5,0xc
    4690:	7ff4f513          	andi	a0,s1,2047
    4694:	85ce                	mv	a1,s3
    4696:	b581                	j	44d6 <__adddf3+0x164>
    4698:	01f86933          	or	s2,a6,t6
    469c:	01203933          	snez	s2,s2
    46a0:	997a                	add	s2,s2,t5
    46a2:	01e937b3          	sltu	a5,s2,t5
    46a6:	00e78633          	add	a2,a5,a4
    46aa:	00861793          	slli	a5,a2,0x8
    46ae:	fa07dfe3          	bgez	a5,466c <__adddf3+0x2fa>
    46b2:	0485                	addi	s1,s1,1
    46b4:	7ff00793          	li	a5,2047
    46b8:	18f49663          	bne	s1,a5,4844 <__adddf3+0x4d2>
    46bc:	85ce                	mv	a1,s3
    46be:	7ff00513          	li	a0,2047
    46c2:	4781                	li	a5,0
    46c4:	4881                	li	a7,0
    46c6:	bd01                	j	44d6 <__adddf3+0x164>
    46c8:	ebc1                	bnez	a5,4758 <__adddf3+0x3e6>
    46ca:	3a088463          	beqz	a7,4a72 <__adddf3+0x700>
    46ce:	00361693          	slli	a3,a2,0x3
    46d2:	01d81793          	slli	a5,a6,0x1d
    46d6:	828d                	srli	a3,a3,0x3
    46d8:	00d7e8b3          	or	a7,a5,a3
    46dc:	89f6                	mv	s3,t4
    46de:	00385793          	srli	a5,a6,0x3
    46e2:	00f8e7b3          	or	a5,a7,a5
    46e6:	dbf9                	beqz	a5,46bc <__adddf3+0x34a>
    46e8:	4581                	li	a1,0
    46ea:	7ff00513          	li	a0,2047
    46ee:	000807b7          	lui	a5,0x80
    46f2:	4881                	li	a7,0
    46f4:	b3cd                	j	44d6 <__adddf3+0x164>
    46f6:	ff800637          	lui	a2,0xff800
    46fa:	167d                	addi	a2,a2,-1
    46fc:	8e7d                	and	a2,a2,a5
    46fe:	00797793          	andi	a5,s2,7
    4702:	8c99                	sub	s1,s1,a4
    4704:	d80795e3          	bnez	a5,448e <__adddf3+0x11c>
    4708:	b7b5                	j	4674 <__adddf3+0x302>
    470a:	854a                	mv	a0,s2
    470c:	734010ef          	jal	ra,5e40 <__clzsi2>
    4710:	01850713          	addi	a4,a0,24
    4714:	47fd                	li	a5,31
    4716:	d2e7d5e3          	bge	a5,a4,4440 <__adddf3+0xce>
    471a:	ff850613          	addi	a2,a0,-8
    471e:	00c917b3          	sll	a5,s2,a2
    4722:	4901                	li	s2,0
    4724:	bb05                	j	4454 <__adddf3+0xe2>
    4726:	01f86933          	or	s2,a6,t6
    472a:	01203933          	snez	s2,s2
    472e:	b1dd                	j	4414 <__adddf3+0xa2>
    4730:	41ff0933          	sub	s2,t5,t6
    4734:	41070633          	sub	a2,a4,a6
    4738:	012f3433          	sltu	s0,t5,s2
    473c:	40860433          	sub	s0,a2,s0
    4740:	00841793          	slli	a5,s0,0x8
    4744:	2407cd63          	bltz	a5,499e <__adddf3+0x62c>
    4748:	008968b3          	or	a7,s2,s0
    474c:	ce0893e3          	bnez	a7,4432 <__adddf3+0xc0>
    4750:	4781                	li	a5,0
    4752:	4981                	li	s3,0
    4754:	4481                	li	s1,0
    4756:	bf1d                	j	468c <__adddf3+0x31a>
    4758:	f80898e3          	bnez	a7,46e8 <__adddf3+0x376>
    475c:	050e                	slli	a0,a0,0x3
    475e:	01d71793          	slli	a5,a4,0x1d
    4762:	810d                	srli	a0,a0,0x3
    4764:	00a7e8b3          	or	a7,a5,a0
    4768:	00375793          	srli	a5,a4,0x3
    476c:	bf9d                	j	46e2 <__adddf3+0x370>
    476e:	050e                	slli	a0,a0,0x3
    4770:	01d71793          	slli	a5,a4,0x1d
    4774:	810d                	srli	a0,a0,0x3
    4776:	00a7e8b3          	or	a7,a5,a0
    477a:	84f2                	mv	s1,t3
    477c:	00375793          	srli	a5,a4,0x3
    4780:	b711                	j	4684 <__adddf3+0x312>
    4782:	40930533          	sub	a0,t1,s1
    4786:	12048263          	beqz	s1,48aa <__adddf3+0x538>
    478a:	008006b7          	lui	a3,0x800
    478e:	7ff00793          	li	a5,2047
    4792:	8f55                	or	a4,a4,a3
    4794:	2ef30d63          	beq	t1,a5,4a8e <__adddf3+0x71c>
    4798:	03800793          	li	a5,56
    479c:	20a7cb63          	blt	a5,a0,49b2 <__adddf3+0x640>
    47a0:	47fd                	li	a5,31
    47a2:	2aa7c363          	blt	a5,a0,4a48 <__adddf3+0x6d6>
    47a6:	02000793          	li	a5,32
    47aa:	8f89                	sub	a5,a5,a0
    47ac:	00f71933          	sll	s2,a4,a5
    47b0:	00af56b3          	srl	a3,t5,a0
    47b4:	00ff17b3          	sll	a5,t5,a5
    47b8:	00d96933          	or	s2,s2,a3
    47bc:	00f037b3          	snez	a5,a5
    47c0:	00a75733          	srl	a4,a4,a0
    47c4:	00f96933          	or	s2,s2,a5
    47c8:	983a                	add	a6,a6,a4
    47ca:	997e                	add	s2,s2,t6
    47cc:	01f937b3          	sltu	a5,s2,t6
    47d0:	01078633          	add	a2,a5,a6
    47d4:	849a                	mv	s1,t1
    47d6:	bdd1                	j	46aa <__adddf3+0x338>
    47d8:	008006b7          	lui	a3,0x800
    47dc:	7ff00793          	li	a5,2047
    47e0:	8f55                	or	a4,a4,a3
    47e2:	def319e3          	bne	t1,a5,45d4 <__adddf3+0x262>
    47e6:	00361793          	slli	a5,a2,0x3
    47ea:	838d                	srli	a5,a5,0x3
    47ec:	01d81893          	slli	a7,a6,0x1d
    47f0:	0117e8b3          	or	a7,a5,a7
    47f4:	89f6                	mv	s3,t4
    47f6:	00385793          	srli	a5,a6,0x3
    47fa:	b5e5                	j	46e2 <__adddf3+0x370>
    47fc:	fe150713          	addi	a4,a0,-31
    4800:	02000693          	li	a3,32
    4804:	00e7d733          	srl	a4,a5,a4
    4808:	00d60a63          	beq	a2,a3,481c <__adddf3+0x4aa>
    480c:	04000693          	li	a3,64
    4810:	40c68633          	sub	a2,a3,a2
    4814:	00c79633          	sll	a2,a5,a2
    4818:	00c96933          	or	s2,s2,a2
    481c:	01203933          	snez	s2,s2
    4820:	00e96933          	or	s2,s2,a4
    4824:	4601                	li	a2,0
    4826:	4481                	li	s1,0
    4828:	b591                	j	466c <__adddf3+0x2fa>
    482a:	01ff0933          	add	s2,t5,t6
    482e:	010707b3          	add	a5,a4,a6
    4832:	01e93633          	sltu	a2,s2,t5
    4836:	963e                	add	a2,a2,a5
    4838:	00861793          	slli	a5,a2,0x8
    483c:	4485                	li	s1,1
    483e:	e207d7e3          	bgez	a5,466c <__adddf3+0x2fa>
    4842:	4489                	li	s1,2
    4844:	ff8007b7          	lui	a5,0xff800
    4848:	17fd                	addi	a5,a5,-1
    484a:	8ff1                	and	a5,a5,a2
    484c:	00195713          	srli	a4,s2,0x1
    4850:	00197913          	andi	s2,s2,1
    4854:	01276933          	or	s2,a4,s2
    4858:	01f79893          	slli	a7,a5,0x1f
    485c:	0128e933          	or	s2,a7,s2
    4860:	0017d613          	srli	a2,a5,0x1
    4864:	b115                	j	4488 <__adddf3+0x116>
    4866:	fe0e0913          	addi	s2,t3,-32
    486a:	02000793          	li	a5,32
    486e:	012856b3          	srl	a3,a6,s2
    4872:	00fe0a63          	beq	t3,a5,4886 <__adddf3+0x514>
    4876:	04000913          	li	s2,64
    487a:	41c90933          	sub	s2,s2,t3
    487e:	01281933          	sll	s2,a6,s2
    4882:	012fefb3          	or	t6,t6,s2
    4886:	01f03933          	snez	s2,t6
    488a:	00d96933          	or	s2,s2,a3
    488e:	b659                	j	4414 <__adddf3+0xa2>
    4890:	01e76933          	or	s2,a4,t5
    4894:	01203933          	snez	s2,s2
    4898:	412f8933          	sub	s2,t6,s2
    489c:	012fb7b3          	sltu	a5,t6,s2
    48a0:	40f80633          	sub	a2,a6,a5
    48a4:	849a                	mv	s1,t1
    48a6:	89f6                	mv	s3,t4
    48a8:	bea5                	j	4420 <__adddf3+0xae>
    48aa:	01e767b3          	or	a5,a4,t5
    48ae:	18078263          	beqz	a5,4a32 <__adddf3+0x6c0>
    48b2:	fff50793          	addi	a5,a0,-1
    48b6:	1c078463          	beqz	a5,4a7e <__adddf3+0x70c>
    48ba:	7ff00693          	li	a3,2047
    48be:	12d50463          	beq	a0,a3,49e6 <__adddf3+0x674>
    48c2:	853e                	mv	a0,a5
    48c4:	bdd1                	j	4798 <__adddf3+0x426>
    48c6:	02000793          	li	a5,32
    48ca:	41c787b3          	sub	a5,a5,t3
    48ce:	00f816b3          	sll	a3,a6,a5
    48d2:	00ff9933          	sll	s2,t6,a5
    48d6:	01cfd633          	srl	a2,t6,t3
    48da:	8ed1                	or	a3,a3,a2
    48dc:	01203933          	snez	s2,s2
    48e0:	01c857b3          	srl	a5,a6,t3
    48e4:	0126e933          	or	s2,a3,s2
    48e8:	973e                	add	a4,a4,a5
    48ea:	bb5d                	j	46a0 <__adddf3+0x32e>
    48ec:	00361793          	slli	a5,a2,0x3
    48f0:	838d                	srli	a5,a5,0x3
    48f2:	01d81893          	slli	a7,a6,0x1d
    48f6:	0117e8b3          	or	a7,a5,a7
    48fa:	84ae                	mv	s1,a1
    48fc:	00385793          	srli	a5,a6,0x3
    4900:	89f6                	mv	s3,t4
    4902:	b349                	j	4684 <__adddf3+0x312>
    4904:	c3ed                	beqz	a5,49e6 <__adddf3+0x674>
    4906:	01f86933          	or	s2,a6,t6
    490a:	dc091fe3          	bnez	s2,46e8 <__adddf3+0x376>
    490e:	050e                	slli	a0,a0,0x3
    4910:	01d71793          	slli	a5,a4,0x1d
    4914:	810d                	srli	a0,a0,0x3
    4916:	00f568b3          	or	a7,a0,a5
    491a:	00375793          	srli	a5,a4,0x3
    491e:	b3d1                	j	46e2 <__adddf3+0x370>
    4920:	0e088163          	beqz	a7,4a02 <__adddf3+0x690>
    4924:	00361693          	slli	a3,a2,0x3
    4928:	01d81793          	slli	a5,a6,0x1d
    492c:	828d                	srli	a3,a3,0x3
    492e:	00d7e8b3          	or	a7,a5,a3
    4932:	89f6                	mv	s3,t4
    4934:	00385793          	srli	a5,a6,0x3
    4938:	bb91                	j	468c <__adddf3+0x31a>
    493a:	41ff0933          	sub	s2,t5,t6
    493e:	410707b3          	sub	a5,a4,a6
    4942:	012f3f33          	sltu	t5,t5,s2
    4946:	41e78633          	sub	a2,a5,t5
    494a:	4485                	li	s1,1
    494c:	bcd1                	j	4420 <__adddf3+0xae>
    494e:	050e                	slli	a0,a0,0x3
    4950:	01d71793          	slli	a5,a4,0x1d
    4954:	810d                	srli	a0,a0,0x3
    4956:	00f568b3          	or	a7,a0,a5
    495a:	84f2                	mv	s1,t3
    495c:	00375793          	srli	a5,a4,0x3
    4960:	b315                	j	4684 <__adddf3+0x312>
    4962:	050e                	slli	a0,a0,0x3
    4964:	01d71793          	slli	a5,a4,0x1d
    4968:	810d                	srli	a0,a0,0x3
    496a:	00a7e8b3          	or	a7,a5,a0
    496e:	00375793          	srli	a5,a4,0x3
    4972:	bb29                	j	468c <__adddf3+0x31a>
    4974:	7ff00793          	li	a5,2047
    4978:	d4f682e3          	beq	a3,a5,46bc <__adddf3+0x34a>
    497c:	01ff0933          	add	s2,t5,t6
    4980:	01e93633          	sltu	a2,s2,t5
    4984:	010707b3          	add	a5,a4,a6
    4988:	97b2                	add	a5,a5,a2
    498a:	01f79893          	slli	a7,a5,0x1f
    498e:	00195913          	srli	s2,s2,0x1
    4992:	0128e933          	or	s2,a7,s2
    4996:	0017d613          	srli	a2,a5,0x1
    499a:	84b6                	mv	s1,a3
    499c:	b9c1                	j	466c <__adddf3+0x2fa>
    499e:	41ef8933          	sub	s2,t6,t5
    49a2:	40e80733          	sub	a4,a6,a4
    49a6:	012fb633          	sltu	a2,t6,s2
    49aa:	40c70433          	sub	s0,a4,a2
    49ae:	89f6                	mv	s3,t4
    49b0:	b449                	j	4432 <__adddf3+0xc0>
    49b2:	01e76933          	or	s2,a4,t5
    49b6:	01203933          	snez	s2,s2
    49ba:	bd01                	j	47ca <__adddf3+0x458>
    49bc:	fe058793          	addi	a5,a1,-32
    49c0:	02000693          	li	a3,32
    49c4:	00f757b3          	srl	a5,a4,a5
    49c8:	00d58a63          	beq	a1,a3,49dc <__adddf3+0x66a>
    49cc:	04000693          	li	a3,64
    49d0:	40b685b3          	sub	a1,a3,a1
    49d4:	00b71733          	sll	a4,a4,a1
    49d8:	00ef6f33          	or	t5,t5,a4
    49dc:	01e03933          	snez	s2,t5
    49e0:	00f96933          	or	s2,s2,a5
    49e4:	bd55                	j	4898 <__adddf3+0x526>
    49e6:	00361793          	slli	a5,a2,0x3
    49ea:	838d                	srli	a5,a5,0x3
    49ec:	01d81893          	slli	a7,a6,0x1d
    49f0:	0117e8b3          	or	a7,a5,a7
    49f4:	00385793          	srli	a5,a6,0x3
    49f8:	b1ed                	j	46e2 <__adddf3+0x370>
    49fa:	00c968b3          	or	a7,s2,a2
    49fe:	c60897e3          	bnez	a7,466c <__adddf3+0x2fa>
    4a02:	4781                	li	a5,0
    4a04:	4981                	li	s3,0
    4a06:	b159                	j	468c <__adddf3+0x31a>
    4a08:	41ef8933          	sub	s2,t6,t5
    4a0c:	40e807b3          	sub	a5,a6,a4
    4a10:	012fb633          	sltu	a2,t6,s2
    4a14:	40c78633          	sub	a2,a5,a2
    4a18:	89f6                	mv	s3,t4
    4a1a:	4485                	li	s1,1
    4a1c:	b411                	j	4420 <__adddf3+0xae>
    4a1e:	00361693          	slli	a3,a2,0x3
    4a22:	01d81793          	slli	a5,a6,0x1d
    4a26:	828d                	srli	a3,a3,0x3
    4a28:	00d7e8b3          	or	a7,a5,a3
    4a2c:	00385793          	srli	a5,a6,0x3
    4a30:	b9b1                	j	468c <__adddf3+0x31a>
    4a32:	00361693          	slli	a3,a2,0x3
    4a36:	01d81793          	slli	a5,a6,0x1d
    4a3a:	828d                	srli	a3,a3,0x3
    4a3c:	00d7e8b3          	or	a7,a5,a3
    4a40:	84aa                	mv	s1,a0
    4a42:	00385793          	srli	a5,a6,0x3
    4a46:	b93d                	j	4684 <__adddf3+0x312>
    4a48:	fe050793          	addi	a5,a0,-32
    4a4c:	02000693          	li	a3,32
    4a50:	00f757b3          	srl	a5,a4,a5
    4a54:	00d50a63          	beq	a0,a3,4a68 <__adddf3+0x6f6>
    4a58:	04000693          	li	a3,64
    4a5c:	40a68533          	sub	a0,a3,a0
    4a60:	00a71733          	sll	a4,a4,a0
    4a64:	00ef6f33          	or	t5,t5,a4
    4a68:	01e03933          	snez	s2,t5
    4a6c:	00f96933          	or	s2,s2,a5
    4a70:	bba9                	j	47ca <__adddf3+0x458>
    4a72:	4581                	li	a1,0
    4a74:	7ff00513          	li	a0,2047
    4a78:	000807b7          	lui	a5,0x80
    4a7c:	bca9                	j	44d6 <__adddf3+0x164>
    4a7e:	01ff0933          	add	s2,t5,t6
    4a82:	010707b3          	add	a5,a4,a6
    4a86:	01f93633          	sltu	a2,s2,t6
    4a8a:	963e                	add	a2,a2,a5
    4a8c:	b375                	j	4838 <__adddf3+0x4c6>
    4a8e:	00361693          	slli	a3,a2,0x3
    4a92:	01d81793          	slli	a5,a6,0x1d
    4a96:	828d                	srli	a3,a3,0x3
    4a98:	00d7e8b3          	or	a7,a5,a3
    4a9c:	00385793          	srli	a5,a6,0x3
    4aa0:	b189                	j	46e2 <__adddf3+0x370>

00004aa2 <__divdf3>:
__divdf3():
    4aa2:	7139                	addi	sp,sp,-64
    4aa4:	0145d793          	srli	a5,a1,0x14
    4aa8:	dc22                	sw	s0,56(sp)
    4aaa:	d84a                	sw	s2,48(sp)
    4aac:	d256                	sw	s5,36(sp)
    4aae:	892a                	mv	s2,a0
    4ab0:	00c59413          	slli	s0,a1,0xc
    4ab4:	de06                	sw	ra,60(sp)
    4ab6:	da26                	sw	s1,52(sp)
    4ab8:	d64e                	sw	s3,44(sp)
    4aba:	d452                	sw	s4,40(sp)
    4abc:	d05a                	sw	s6,32(sp)
    4abe:	ce5e                	sw	s7,28(sp)
    4ac0:	7ff7f513          	andi	a0,a5,2047
    4ac4:	8031                	srli	s0,s0,0xc
    4ac6:	01f5da93          	srli	s5,a1,0x1f
    4aca:	10050b63          	beqz	a0,4be0 <__divdf3+0x13e>
    4ace:	7ff00793          	li	a5,2047
    4ad2:	14f50b63          	beq	a0,a5,4c28 <__divdf3+0x186>
    4ad6:	01d95a13          	srli	s4,s2,0x1d
    4ada:	040e                	slli	s0,s0,0x3
    4adc:	008a6433          	or	s0,s4,s0
    4ae0:	00800a37          	lui	s4,0x800
    4ae4:	01446a33          	or	s4,s0,s4
    4ae8:	00391b13          	slli	s6,s2,0x3
    4aec:	c0150493          	addi	s1,a0,-1023
    4af0:	4401                	li	s0,0
    4af2:	4b81                	li	s7,0
    4af4:	0146d813          	srli	a6,a3,0x14
    4af8:	00c69913          	slli	s2,a3,0xc
    4afc:	7ff87813          	andi	a6,a6,2047
    4b00:	88b2                	mv	a7,a2
    4b02:	00c95913          	srli	s2,s2,0xc
    4b06:	01f6d993          	srli	s3,a3,0x1f
    4b0a:	08080e63          	beqz	a6,4ba6 <__divdf3+0x104>
    4b0e:	7ff00793          	li	a5,2047
    4b12:	04f80063          	beq	a6,a5,4b52 <__divdf3+0xb0>
    4b16:	01d65713          	srli	a4,a2,0x1d
    4b1a:	090e                	slli	s2,s2,0x3
    4b1c:	01276933          	or	s2,a4,s2
    4b20:	c0180813          	addi	a6,a6,-1023 # ffc01 <_data_lma+0xf6025>
    4b24:	008007b7          	lui	a5,0x800
    4b28:	00f96733          	or	a4,s2,a5
    4b2c:	00361893          	slli	a7,a2,0x3
    4b30:	410484b3          	sub	s1,s1,a6
    4b34:	4581                	li	a1,0
    4b36:	47bd                	li	a5,15
    4b38:	013ac833          	xor	a6,s5,s3
    4b3c:	1a87e463          	bltu	a5,s0,4ce4 <__divdf3+0x242>
    4b40:	00005797          	auipc	a5,0x5
    4b44:	bf878793          	addi	a5,a5,-1032 # 9738 <MyUSBQUADescHD+0xc8>
    4b48:	040a                	slli	s0,s0,0x2
    4b4a:	943e                	add	s0,s0,a5
    4b4c:	4010                	lw	a2,0(s0)
    4b4e:	963e                	add	a2,a2,a5
    4b50:	8602                	jr	a2
    4b52:	00c96733          	or	a4,s2,a2
    4b56:	80148493          	addi	s1,s1,-2047
    4b5a:	10071263          	bnez	a4,4c5e <__divdf3+0x1bc>
    4b5e:	00246413          	ori	s0,s0,2
    4b62:	4881                	li	a7,0
    4b64:	4589                	li	a1,2
    4b66:	bfc1                	j	4b36 <__divdf3+0x94>
    4b68:	7ff00613          	li	a2,2047
    4b6c:	4781                	li	a5,0
    4b6e:	4701                	li	a4,0
    4b70:	07b2                	slli	a5,a5,0xc
    4b72:	50f2                	lw	ra,60(sp)
    4b74:	5462                	lw	s0,56(sp)
    4b76:	0652                	slli	a2,a2,0x14
    4b78:	83b1                	srli	a5,a5,0xc
    4b7a:	087e                	slli	a6,a6,0x1f
    4b7c:	8fd1                	or	a5,a5,a2
    4b7e:	0107e7b3          	or	a5,a5,a6
    4b82:	54d2                	lw	s1,52(sp)
    4b84:	5942                	lw	s2,48(sp)
    4b86:	59b2                	lw	s3,44(sp)
    4b88:	5a22                	lw	s4,40(sp)
    4b8a:	5a92                	lw	s5,36(sp)
    4b8c:	5b02                	lw	s6,32(sp)
    4b8e:	4bf2                	lw	s7,28(sp)
    4b90:	853a                	mv	a0,a4
    4b92:	85be                	mv	a1,a5
    4b94:	6121                	addi	sp,sp,64
    4b96:	8082                	ret
    4b98:	4801                	li	a6,0
    4b9a:	7ff00613          	li	a2,2047
    4b9e:	000807b7          	lui	a5,0x80
    4ba2:	4701                	li	a4,0
    4ba4:	b7f1                	j	4b70 <__divdf3+0xce>
    4ba6:	00c96733          	or	a4,s2,a2
    4baa:	c74d                	beqz	a4,4c54 <__divdf3+0x1b2>
    4bac:	30090863          	beqz	s2,4ebc <__divdf3+0x41a>
    4bb0:	854a                	mv	a0,s2
    4bb2:	c432                	sw	a2,8(sp)
    4bb4:	28c010ef          	jal	ra,5e40 <__clzsi2>
    4bb8:	4622                	lw	a2,8(sp)
    4bba:	ff550713          	addi	a4,a0,-11
    4bbe:	47f5                	li	a5,29
    4bc0:	ff850693          	addi	a3,a0,-8
    4bc4:	8f99                	sub	a5,a5,a4
    4bc6:	00d91933          	sll	s2,s2,a3
    4bca:	00f657b3          	srl	a5,a2,a5
    4bce:	0127e733          	or	a4,a5,s2
    4bd2:	00d618b3          	sll	a7,a2,a3
    4bd6:	9526                	add	a0,a0,s1
    4bd8:	3f350493          	addi	s1,a0,1011
    4bdc:	4581                	li	a1,0
    4bde:	bfa1                	j	4b36 <__divdf3+0x94>
    4be0:	01246a33          	or	s4,s0,s2
    4be4:	060a0363          	beqz	s4,4c4a <__divdf3+0x1a8>
    4be8:	c636                	sw	a3,12(sp)
    4bea:	c432                	sw	a2,8(sp)
    4bec:	2a040663          	beqz	s0,4e98 <__divdf3+0x3f6>
    4bf0:	8522                	mv	a0,s0
    4bf2:	24e010ef          	jal	ra,5e40 <__clzsi2>
    4bf6:	4622                	lw	a2,8(sp)
    4bf8:	46b2                	lw	a3,12(sp)
    4bfa:	84aa                	mv	s1,a0
    4bfc:	ff550713          	addi	a4,a0,-11
    4c00:	4a75                	li	s4,29
    4c02:	ff848b13          	addi	s6,s1,-8
    4c06:	40ea0a33          	sub	s4,s4,a4
    4c0a:	01641433          	sll	s0,s0,s6
    4c0e:	01495a33          	srl	s4,s2,s4
    4c12:	008a6a33          	or	s4,s4,s0
    4c16:	01691b33          	sll	s6,s2,s6
    4c1a:	c0d00513          	li	a0,-1011
    4c1e:	409504b3          	sub	s1,a0,s1
    4c22:	4401                	li	s0,0
    4c24:	4b81                	li	s7,0
    4c26:	b5f9                	j	4af4 <__divdf3+0x52>
    4c28:	01246a33          	or	s4,s0,s2
    4c2c:	000a1863          	bnez	s4,4c3c <__divdf3+0x19a>
    4c30:	4421                	li	s0,8
    4c32:	4b01                	li	s6,0
    4c34:	7ff00493          	li	s1,2047
    4c38:	4b89                	li	s7,2
    4c3a:	bd6d                	j	4af4 <__divdf3+0x52>
    4c3c:	8a22                	mv	s4,s0
    4c3e:	8b4a                	mv	s6,s2
    4c40:	4431                	li	s0,12
    4c42:	7ff00493          	li	s1,2047
    4c46:	4b8d                	li	s7,3
    4c48:	b575                	j	4af4 <__divdf3+0x52>
    4c4a:	4411                	li	s0,4
    4c4c:	4b01                	li	s6,0
    4c4e:	4481                	li	s1,0
    4c50:	4b85                	li	s7,1
    4c52:	b54d                	j	4af4 <__divdf3+0x52>
    4c54:	00146413          	ori	s0,s0,1
    4c58:	4881                	li	a7,0
    4c5a:	4585                	li	a1,1
    4c5c:	bde9                	j	4b36 <__divdf3+0x94>
    4c5e:	00346413          	ori	s0,s0,3
    4c62:	874a                	mv	a4,s2
    4c64:	458d                	li	a1,3
    4c66:	bdc1                	j	4b36 <__divdf3+0x94>
    4c68:	2e050a63          	beqz	a0,4f5c <__divdf3+0x4ba>
    4c6c:	4785                	li	a5,1
    4c6e:	8f89                	sub	a5,a5,a0
    4c70:	03800693          	li	a3,56
    4c74:	32f6dd63          	bge	a3,a5,4fae <__divdf3+0x50c>
    4c78:	4601                	li	a2,0
    4c7a:	4781                	li	a5,0
    4c7c:	4701                	li	a4,0
    4c7e:	bdcd                	j	4b70 <__divdf3+0xce>
    4c80:	86ce                	mv	a3,s3
    4c82:	4789                	li	a5,2
    4c84:	3af58d63          	beq	a1,a5,503e <__divdf3+0x59c>
    4c88:	478d                	li	a5,3
    4c8a:	f0f587e3          	beq	a1,a5,4b98 <__divdf3+0xf6>
    4c8e:	4785                	li	a5,1
    4c90:	8836                	mv	a6,a3
    4c92:	fef583e3          	beq	a1,a5,4c78 <__divdf3+0x1d6>
    4c96:	3ff48513          	addi	a0,s1,1023
    4c9a:	fca057e3          	blez	a0,4c68 <__divdf3+0x1c6>
    4c9e:	0078f793          	andi	a5,a7,7
    4ca2:	28079663          	bnez	a5,4f2e <__divdf3+0x48c>
    4ca6:	0038d693          	srli	a3,a7,0x3
    4caa:	00771793          	slli	a5,a4,0x7
    4cae:	0007d863          	bgez	a5,4cbe <__divdf3+0x21c>
    4cb2:	ff0007b7          	lui	a5,0xff000
    4cb6:	17fd                	addi	a5,a5,-1
    4cb8:	8f7d                	and	a4,a4,a5
    4cba:	40048513          	addi	a0,s1,1024
    4cbe:	7fe00793          	li	a5,2046
    4cc2:	eaa7c3e3          	blt	a5,a0,4b68 <__divdf3+0xc6>
    4cc6:	01d71613          	slli	a2,a4,0x1d
    4cca:	00971793          	slli	a5,a4,0x9
    4cce:	83b1                	srli	a5,a5,0xc
    4cd0:	00d66733          	or	a4,a2,a3
    4cd4:	7ff57613          	andi	a2,a0,2047
    4cd8:	bd61                	j	4b70 <__divdf3+0xce>
    4cda:	86d6                	mv	a3,s5
    4cdc:	8752                	mv	a4,s4
    4cde:	88da                	mv	a7,s6
    4ce0:	85de                	mv	a1,s7
    4ce2:	b745                	j	4c82 <__divdf3+0x1e0>
    4ce4:	23476163          	bltu	a4,s4,4f06 <__divdf3+0x464>
    4ce8:	20ea0d63          	beq	s4,a4,4f02 <__divdf3+0x460>
    4cec:	86da                	mv	a3,s6
    4cee:	14fd                	addi	s1,s1,-1
    4cf0:	8452                	mv	s0,s4
    4cf2:	4b01                	li	s6,0
    4cf4:	00871793          	slli	a5,a4,0x8
    4cf8:	0188d313          	srli	t1,a7,0x18
    4cfc:	00f36333          	or	t1,t1,a5
    4d00:	01035e93          	srli	t4,t1,0x10
    4d04:	03d457b3          	divu	a5,s0,t4
    4d08:	01031f13          	slli	t5,t1,0x10
    4d0c:	010f5f13          	srli	t5,t5,0x10
    4d10:	0106d593          	srli	a1,a3,0x10
    4d14:	00889e13          	slli	t3,a7,0x8
    4d18:	03d47433          	remu	s0,s0,t4
    4d1c:	02ff0733          	mul	a4,t5,a5
    4d20:	0442                	slli	s0,s0,0x10
    4d22:	8dc1                	or	a1,a1,s0
    4d24:	00e5fb63          	bgeu	a1,a4,4d3a <__divdf3+0x298>
    4d28:	959a                	add	a1,a1,t1
    4d2a:	fff78613          	addi	a2,a5,-1 # feffffff <_eusrstack+0xdefeffff>
    4d2e:	2665ee63          	bltu	a1,t1,4faa <__divdf3+0x508>
    4d32:	26e5fc63          	bgeu	a1,a4,4faa <__divdf3+0x508>
    4d36:	17f9                	addi	a5,a5,-2
    4d38:	959a                	add	a1,a1,t1
    4d3a:	8d99                	sub	a1,a1,a4
    4d3c:	03d5d733          	divu	a4,a1,t4
    4d40:	06c2                	slli	a3,a3,0x10
    4d42:	82c1                	srli	a3,a3,0x10
    4d44:	03d5f5b3          	remu	a1,a1,t4
    4d48:	02ef0633          	mul	a2,t5,a4
    4d4c:	05c2                	slli	a1,a1,0x10
    4d4e:	8dd5                	or	a1,a1,a3
    4d50:	00c5fb63          	bgeu	a1,a2,4d66 <__divdf3+0x2c4>
    4d54:	959a                	add	a1,a1,t1
    4d56:	fff70693          	addi	a3,a4,-1 # 7fffff <_data_lma+0x7f6423>
    4d5a:	2465e663          	bltu	a1,t1,4fa6 <__divdf3+0x504>
    4d5e:	24c5f463          	bgeu	a1,a2,4fa6 <__divdf3+0x504>
    4d62:	1779                	addi	a4,a4,-2
    4d64:	959a                	add	a1,a1,t1
    4d66:	07c2                	slli	a5,a5,0x10
    4d68:	6441                	lui	s0,0x10
    4d6a:	8f5d                	or	a4,a4,a5
    4d6c:	fff40793          	addi	a5,s0,-1 # ffff <_data_lma+0x6423>
    4d70:	00f77533          	and	a0,a4,a5
    4d74:	01075893          	srli	a7,a4,0x10
    4d78:	010e5f93          	srli	t6,t3,0x10
    4d7c:	00fe77b3          	and	a5,t3,a5
    4d80:	02f502b3          	mul	t0,a0,a5
    4d84:	40c586b3          	sub	a3,a1,a2
    4d88:	02f883b3          	mul	t2,a7,a5
    4d8c:	0102d593          	srli	a1,t0,0x10
    4d90:	02af8633          	mul	a2,t6,a0
    4d94:	961e                	add	a2,a2,t2
    4d96:	962e                	add	a2,a2,a1
    4d98:	03f88533          	mul	a0,a7,t6
    4d9c:	00767363          	bgeu	a2,t2,4da2 <__divdf3+0x300>
    4da0:	9522                	add	a0,a0,s0
    4da2:	68c1                	lui	a7,0x10
    4da4:	18fd                	addi	a7,a7,-1
    4da6:	01065593          	srli	a1,a2,0x10
    4daa:	01167633          	and	a2,a2,a7
    4dae:	0642                	slli	a2,a2,0x10
    4db0:	0112f8b3          	and	a7,t0,a7
    4db4:	95aa                	add	a1,a1,a0
    4db6:	9646                	add	a2,a2,a7
    4db8:	12b6e663          	bltu	a3,a1,4ee4 <__divdf3+0x442>
    4dbc:	12b68263          	beq	a3,a1,4ee0 <__divdf3+0x43e>
    4dc0:	40cb0633          	sub	a2,s6,a2
    4dc4:	8e8d                	sub	a3,a3,a1
    4dc6:	00cb3b33          	sltu	s6,s6,a2
    4dca:	41668b33          	sub	s6,a3,s6
    4dce:	3ff48513          	addi	a0,s1,1023
    4dd2:	17630c63          	beq	t1,s6,4f4a <__divdf3+0x4a8>
    4dd6:	03db58b3          	divu	a7,s6,t4
    4dda:	01065593          	srli	a1,a2,0x10
    4dde:	03db7b33          	remu	s6,s6,t4
    4de2:	031f06b3          	mul	a3,t5,a7
    4de6:	0b42                	slli	s6,s6,0x10
    4de8:	0165eb33          	or	s6,a1,s6
    4dec:	00db7b63          	bgeu	s6,a3,4e02 <__divdf3+0x360>
    4df0:	9b1a                	add	s6,s6,t1
    4df2:	fff88593          	addi	a1,a7,-1 # ffff <_data_lma+0x6423>
    4df6:	206b6d63          	bltu	s6,t1,5010 <__divdf3+0x56e>
    4dfa:	20db7b63          	bgeu	s6,a3,5010 <__divdf3+0x56e>
    4dfe:	18f9                	addi	a7,a7,-2
    4e00:	9b1a                	add	s6,s6,t1
    4e02:	40db0b33          	sub	s6,s6,a3
    4e06:	03db56b3          	divu	a3,s6,t4
    4e0a:	0642                	slli	a2,a2,0x10
    4e0c:	8241                	srli	a2,a2,0x10
    4e0e:	03db7b33          	remu	s6,s6,t4
    4e12:	02df0f33          	mul	t5,t5,a3
    4e16:	0b42                	slli	s6,s6,0x10
    4e18:	01666633          	or	a2,a2,s6
    4e1c:	01e67b63          	bgeu	a2,t5,4e32 <__divdf3+0x390>
    4e20:	961a                	add	a2,a2,t1
    4e22:	fff68593          	addi	a1,a3,-1 # 7fffff <_data_lma+0x7f6423>
    4e26:	1e666763          	bltu	a2,t1,5014 <__divdf3+0x572>
    4e2a:	1fe67563          	bgeu	a2,t5,5014 <__divdf3+0x572>
    4e2e:	16f9                	addi	a3,a3,-2
    4e30:	961a                	add	a2,a2,t1
    4e32:	08c2                	slli	a7,a7,0x10
    4e34:	00d8e8b3          	or	a7,a7,a3
    4e38:	01089593          	slli	a1,a7,0x10
    4e3c:	0108d293          	srli	t0,a7,0x10
    4e40:	81c1                	srli	a1,a1,0x10
    4e42:	02f58eb3          	mul	t4,a1,a5
    4e46:	41e60633          	sub	a2,a2,t5
    4e4a:	02bf85b3          	mul	a1,t6,a1
    4e4e:	010ed693          	srli	a3,t4,0x10
    4e52:	02f287b3          	mul	a5,t0,a5
    4e56:	95be                	add	a1,a1,a5
    4e58:	96ae                	add	a3,a3,a1
    4e5a:	025f8fb3          	mul	t6,t6,t0
    4e5e:	00f6f463          	bgeu	a3,a5,4e66 <__divdf3+0x3c4>
    4e62:	67c1                	lui	a5,0x10
    4e64:	9fbe                	add	t6,t6,a5
    4e66:	65c1                	lui	a1,0x10
    4e68:	15fd                	addi	a1,a1,-1
    4e6a:	0106d793          	srli	a5,a3,0x10
    4e6e:	8eed                	and	a3,a3,a1
    4e70:	06c2                	slli	a3,a3,0x10
    4e72:	00befeb3          	and	t4,t4,a1
    4e76:	9fbe                	add	t6,t6,a5
    4e78:	96f6                	add	a3,a3,t4
    4e7a:	09f67f63          	bgeu	a2,t6,4f18 <__divdf3+0x476>
    4e7e:	961a                	add	a2,a2,t1
    4e80:	fff88793          	addi	a5,a7,-1
    4e84:	1a666963          	bltu	a2,t1,5036 <__divdf3+0x594>
    4e88:	19f66863          	bltu	a2,t6,5018 <__divdf3+0x576>
    4e8c:	1bf60f63          	beq	a2,t6,504a <__divdf3+0x5a8>
    4e90:	88be                	mv	a7,a5
    4e92:	0018e893          	ori	a7,a7,1
    4e96:	b511                	j	4c9a <__divdf3+0x1f8>
    4e98:	854a                	mv	a0,s2
    4e9a:	7a7000ef          	jal	ra,5e40 <__clzsi2>
    4e9e:	01550713          	addi	a4,a0,21
    4ea2:	45f1                	li	a1,28
    4ea4:	02050493          	addi	s1,a0,32
    4ea8:	4622                	lw	a2,8(sp)
    4eaa:	46b2                	lw	a3,12(sp)
    4eac:	d4e5dae3          	bge	a1,a4,4c00 <__divdf3+0x15e>
    4eb0:	ff850413          	addi	s0,a0,-8
    4eb4:	00891a33          	sll	s4,s2,s0
    4eb8:	4b01                	li	s6,0
    4eba:	b385                	j	4c1a <__divdf3+0x178>
    4ebc:	8532                	mv	a0,a2
    4ebe:	c432                	sw	a2,8(sp)
    4ec0:	781000ef          	jal	ra,5e40 <__clzsi2>
    4ec4:	01550713          	addi	a4,a0,21
    4ec8:	46f1                	li	a3,28
    4eca:	87aa                	mv	a5,a0
    4ecc:	4622                	lw	a2,8(sp)
    4ece:	02050513          	addi	a0,a0,32
    4ed2:	cee6d6e3          	bge	a3,a4,4bbe <__divdf3+0x11c>
    4ed6:	17e1                	addi	a5,a5,-8
    4ed8:	00f61733          	sll	a4,a2,a5
    4edc:	4881                	li	a7,0
    4ede:	b9e5                	j	4bd6 <__divdf3+0x134>
    4ee0:	eecb70e3          	bgeu	s6,a2,4dc0 <__divdf3+0x31e>
    4ee4:	9b72                	add	s6,s6,t3
    4ee6:	01cb3533          	sltu	a0,s6,t3
    4eea:	951a                	add	a0,a0,t1
    4eec:	96aa                	add	a3,a3,a0
    4eee:	fff70513          	addi	a0,a4,-1
    4ef2:	02d37863          	bgeu	t1,a3,4f22 <__divdf3+0x480>
    4ef6:	10b6e663          	bltu	a3,a1,5002 <__divdf3+0x560>
    4efa:	10d58263          	beq	a1,a3,4ffe <__divdf3+0x55c>
    4efe:	872a                	mv	a4,a0
    4f00:	b5c1                	j	4dc0 <__divdf3+0x31e>
    4f02:	df1b65e3          	bltu	s6,a7,4cec <__divdf3+0x24a>
    4f06:	001b5593          	srli	a1,s6,0x1
    4f0a:	01fa1693          	slli	a3,s4,0x1f
    4f0e:	001a5413          	srli	s0,s4,0x1
    4f12:	8ecd                	or	a3,a3,a1
    4f14:	0b7e                	slli	s6,s6,0x1f
    4f16:	bbf9                	j	4cf4 <__divdf3+0x252>
    4f18:	f7f61de3          	bne	a2,t6,4e92 <__divdf3+0x3f0>
    4f1c:	d6068fe3          	beqz	a3,4c9a <__divdf3+0x1f8>
    4f20:	bfb9                	j	4e7e <__divdf3+0x3dc>
    4f22:	fcd31ee3          	bne	t1,a3,4efe <__divdf3+0x45c>
    4f26:	fdcb78e3          	bgeu	s6,t3,4ef6 <__divdf3+0x454>
    4f2a:	872a                	mv	a4,a0
    4f2c:	bd51                	j	4dc0 <__divdf3+0x31e>
    4f2e:	00f8f793          	andi	a5,a7,15
    4f32:	4691                	li	a3,4
    4f34:	d6d789e3          	beq	a5,a3,4ca6 <__divdf3+0x204>
    4f38:	ffc8b793          	sltiu	a5,a7,-4
    4f3c:	00488693          	addi	a3,a7,4
    4f40:	0017c793          	xori	a5,a5,1
    4f44:	828d                	srli	a3,a3,0x3
    4f46:	973e                	add	a4,a4,a5
    4f48:	b38d                	j	4caa <__divdf3+0x208>
    4f4a:	4681                	li	a3,0
    4f4c:	4785                	li	a5,1
    4f4e:	fea04ce3          	bgtz	a0,4f46 <__divdf3+0x4a4>
    4f52:	58fd                	li	a7,-1
    4f54:	d0051ce3          	bnez	a0,4c6c <__divdf3+0x1ca>
    4f58:	c0100493          	li	s1,-1023
    4f5c:	4785                	li	a5,1
    4f5e:	41e48513          	addi	a0,s1,1054
    4f62:	00a716b3          	sll	a3,a4,a0
    4f66:	00f8d633          	srl	a2,a7,a5
    4f6a:	00a89533          	sll	a0,a7,a0
    4f6e:	8ed1                	or	a3,a3,a2
    4f70:	00a03533          	snez	a0,a0
    4f74:	8ec9                	or	a3,a3,a0
    4f76:	0076f613          	andi	a2,a3,7
    4f7a:	00f75733          	srl	a4,a4,a5
    4f7e:	ce01                	beqz	a2,4f96 <__divdf3+0x4f4>
    4f80:	00f6f793          	andi	a5,a3,15
    4f84:	4611                	li	a2,4
    4f86:	00c78863          	beq	a5,a2,4f96 <__divdf3+0x4f4>
    4f8a:	00468793          	addi	a5,a3,4
    4f8e:	00d7b6b3          	sltu	a3,a5,a3
    4f92:	9736                	add	a4,a4,a3
    4f94:	86be                	mv	a3,a5
    4f96:	00871793          	slli	a5,a4,0x8
    4f9a:	0407d863          	bgez	a5,4fea <__divdf3+0x548>
    4f9e:	4605                	li	a2,1
    4fa0:	4781                	li	a5,0
    4fa2:	4701                	li	a4,0
    4fa4:	b6f1                	j	4b70 <__divdf3+0xce>
    4fa6:	8736                	mv	a4,a3
    4fa8:	bb7d                	j	4d66 <__divdf3+0x2c4>
    4faa:	87b2                	mv	a5,a2
    4fac:	b379                	j	4d3a <__divdf3+0x298>
    4fae:	46fd                	li	a3,31
    4fb0:	faf6d7e3          	bge	a3,a5,4f5e <__divdf3+0x4bc>
    4fb4:	5605                	li	a2,-31
    4fb6:	8e09                	sub	a2,a2,a0
    4fb8:	02000693          	li	a3,32
    4fbc:	00c75633          	srl	a2,a4,a2
    4fc0:	00d78863          	beq	a5,a3,4fd0 <__divdf3+0x52e>
    4fc4:	43e48793          	addi	a5,s1,1086
    4fc8:	00f717b3          	sll	a5,a4,a5
    4fcc:	00f8e8b3          	or	a7,a7,a5
    4fd0:	011036b3          	snez	a3,a7
    4fd4:	8ed1                	or	a3,a3,a2
    4fd6:	0076f613          	andi	a2,a3,7
    4fda:	4781                	li	a5,0
    4fdc:	ce01                	beqz	a2,4ff4 <__divdf3+0x552>
    4fde:	00f6f793          	andi	a5,a3,15
    4fe2:	4611                	li	a2,4
    4fe4:	4701                	li	a4,0
    4fe6:	fac792e3          	bne	a5,a2,4f8a <__divdf3+0x4e8>
    4fea:	00971793          	slli	a5,a4,0x9
    4fee:	01d71613          	slli	a2,a4,0x1d
    4ff2:	83b1                	srli	a5,a5,0xc
    4ff4:	0036d713          	srli	a4,a3,0x3
    4ff8:	8f51                	or	a4,a4,a2
    4ffa:	4601                	li	a2,0
    4ffc:	be95                	j	4b70 <__divdf3+0xce>
    4ffe:	f0cb70e3          	bgeu	s6,a2,4efe <__divdf3+0x45c>
    5002:	9b72                	add	s6,s6,t3
    5004:	01cb3533          	sltu	a0,s6,t3
    5008:	951a                	add	a0,a0,t1
    500a:	1779                	addi	a4,a4,-2
    500c:	96aa                	add	a3,a3,a0
    500e:	bb4d                	j	4dc0 <__divdf3+0x31e>
    5010:	88ae                	mv	a7,a1
    5012:	bbc5                	j	4e02 <__divdf3+0x360>
    5014:	86ae                	mv	a3,a1
    5016:	bd31                	j	4e32 <__divdf3+0x390>
    5018:	001e1793          	slli	a5,t3,0x1
    501c:	01c7be33          	sltu	t3,a5,t3
    5020:	9372                	add	t1,t1,t3
    5022:	961a                	add	a2,a2,t1
    5024:	18f9                	addi	a7,a7,-2
    5026:	8e3e                	mv	t3,a5
    5028:	e7f615e3          	bne	a2,t6,4e92 <__divdf3+0x3f0>
    502c:	c6de07e3          	beq	t3,a3,4c9a <__divdf3+0x1f8>
    5030:	0018e893          	ori	a7,a7,1
    5034:	b19d                	j	4c9a <__divdf3+0x1f8>
    5036:	88be                	mv	a7,a5
    5038:	fff60ae3          	beq	a2,t6,502c <__divdf3+0x58a>
    503c:	bd99                	j	4e92 <__divdf3+0x3f0>
    503e:	8836                	mv	a6,a3
    5040:	7ff00613          	li	a2,2047
    5044:	4781                	li	a5,0
    5046:	4701                	li	a4,0
    5048:	b625                	j	4b70 <__divdf3+0xce>
    504a:	fcde67e3          	bltu	t3,a3,5018 <__divdf3+0x576>
    504e:	88be                	mv	a7,a5
    5050:	fede10e3          	bne	t3,a3,5030 <__divdf3+0x58e>
    5054:	b199                	j	4c9a <__divdf3+0x1f8>

00005056 <__eqdf2>:
__eqdf2():
    5056:	0145d713          	srli	a4,a1,0x14
    505a:	001007b7          	lui	a5,0x100
    505e:	17fd                	addi	a5,a5,-1
    5060:	0146d813          	srli	a6,a3,0x14
    5064:	7ff77713          	andi	a4,a4,2047
    5068:	7ff00893          	li	a7,2047
    506c:	00b7fe33          	and	t3,a5,a1
    5070:	8eaa                	mv	t4,a0
    5072:	8ff5                	and	a5,a5,a3
    5074:	81fd                	srli	a1,a1,0x1f
    5076:	8f32                	mv	t5,a2
    5078:	7ff87813          	andi	a6,a6,2047
    507c:	82fd                	srli	a3,a3,0x1f
    507e:	01170b63          	beq	a4,a7,5094 <__eqdf2+0x3e>
    5082:	4305                	li	t1,1
    5084:	01180663          	beq	a6,a7,5090 <__eqdf2+0x3a>
    5088:	01071463          	bne	a4,a6,5090 <__eqdf2+0x3a>
    508c:	00fe0d63          	beq	t3,a5,50a6 <__eqdf2+0x50>
    5090:	851a                	mv	a0,t1
    5092:	8082                	ret
    5094:	00ae68b3          	or	a7,t3,a0
    5098:	4305                	li	t1,1
    509a:	fe089be3          	bnez	a7,5090 <__eqdf2+0x3a>
    509e:	fee819e3          	bne	a6,a4,5090 <__eqdf2+0x3a>
    50a2:	8fd1                	or	a5,a5,a2
    50a4:	f7f5                	bnez	a5,5090 <__eqdf2+0x3a>
    50a6:	4305                	li	t1,1
    50a8:	ffee94e3          	bne	t4,t5,5090 <__eqdf2+0x3a>
    50ac:	4301                	li	t1,0
    50ae:	fed581e3          	beq	a1,a3,5090 <__eqdf2+0x3a>
    50b2:	4305                	li	t1,1
    50b4:	ff71                	bnez	a4,5090 <__eqdf2+0x3a>
    50b6:	00ae6533          	or	a0,t3,a0
    50ba:	00a03333          	snez	t1,a0
    50be:	bfc9                	j	5090 <__eqdf2+0x3a>

000050c0 <__ledf2>:
__ltdf2():
    50c0:	0145d713          	srli	a4,a1,0x14
    50c4:	001007b7          	lui	a5,0x100
    50c8:	17fd                	addi	a5,a5,-1
    50ca:	0146d813          	srli	a6,a3,0x14
    50ce:	7ff77713          	andi	a4,a4,2047
    50d2:	7ff00893          	li	a7,2047
    50d6:	00b7fe33          	and	t3,a5,a1
    50da:	8eaa                	mv	t4,a0
    50dc:	8ff5                	and	a5,a5,a3
    50de:	81fd                	srli	a1,a1,0x1f
    50e0:	8f32                	mv	t5,a2
    50e2:	7ff87813          	andi	a6,a6,2047
    50e6:	82fd                	srli	a3,a3,0x1f
    50e8:	03170e63          	beq	a4,a7,5124 <__ledf2+0x64>
    50ec:	01180d63          	beq	a6,a7,5106 <__ledf2+0x46>
    50f0:	e329                	bnez	a4,5132 <__ledf2+0x72>
    50f2:	00ae68b3          	or	a7,t3,a0
    50f6:	00081f63          	bnez	a6,5114 <__ledf2+0x54>
    50fa:	8e5d                	or	a2,a2,a5
    50fc:	ee01                	bnez	a2,5114 <__ledf2+0x54>
    50fe:	4301                	li	t1,0
    5100:	04088c63          	beqz	a7,5158 <__ledf2+0x98>
    5104:	a821                	j	511c <__ledf2+0x5c>
    5106:	00c7e8b3          	or	a7,a5,a2
    510a:	4309                	li	t1,2
    510c:	04089663          	bnez	a7,5158 <__ledf2+0x98>
    5110:	d36d                	beqz	a4,50f2 <__ledf2+0x32>
    5112:	a005                	j	5132 <__ledf2+0x72>
    5114:	04088463          	beqz	a7,515c <__ledf2+0x9c>
    5118:	02d58563          	beq	a1,a3,5142 <__ledf2+0x82>
    511c:	4305                	li	t1,1
    511e:	cd8d                	beqz	a1,5158 <__ledf2+0x98>
    5120:	537d                	li	t1,-1
    5122:	a81d                	j	5158 <__ledf2+0x98>
    5124:	00ae68b3          	or	a7,t3,a0
    5128:	4309                	li	t1,2
    512a:	02089763          	bnez	a7,5158 <__ledf2+0x98>
    512e:	02e80a63          	beq	a6,a4,5162 <__ledf2+0xa2>
    5132:	00081463          	bnez	a6,513a <__ledf2+0x7a>
    5136:	8e5d                	or	a2,a2,a5
    5138:	d275                	beqz	a2,511c <__ledf2+0x5c>
    513a:	fed591e3          	bne	a1,a3,511c <__ledf2+0x5c>
    513e:	fce84fe3          	blt	a6,a4,511c <__ledf2+0x5c>
    5142:	01074963          	blt	a4,a6,5154 <__ledf2+0x94>
    5146:	fdc7ebe3          	bltu	a5,t3,511c <__ledf2+0x5c>
    514a:	00fe0f63          	beq	t3,a5,5168 <__ledf2+0xa8>
    514e:	4301                	li	t1,0
    5150:	00fe7463          	bgeu	t3,a5,5158 <__ledf2+0x98>
    5154:	d5f1                	beqz	a1,5120 <__ledf2+0x60>
    5156:	4305                	li	t1,1
    5158:	851a                	mv	a0,t1
    515a:	8082                	ret
    515c:	feed                	bnez	a3,5156 <__ledf2+0x96>
    515e:	537d                	li	t1,-1
    5160:	bfe5                	j	5158 <__ledf2+0x98>
    5162:	8e5d                	or	a2,a2,a5
    5164:	da79                	beqz	a2,513a <__ledf2+0x7a>
    5166:	bfcd                	j	5158 <__ledf2+0x98>
    5168:	fbdf6ae3          	bltu	t5,t4,511c <__ledf2+0x5c>
    516c:	4301                	li	t1,0
    516e:	ffeef5e3          	bgeu	t4,t5,5158 <__ledf2+0x98>
    5172:	f1f5                	bnez	a1,5156 <__ledf2+0x96>
    5174:	b775                	j	5120 <__ledf2+0x60>

00005176 <__muldf3>:
__muldf3():
    5176:	7139                	addi	sp,sp,-64
    5178:	d84a                	sw	s2,48(sp)
    517a:	0145d913          	srli	s2,a1,0x14
    517e:	d64e                	sw	s3,44(sp)
    5180:	d452                	sw	s4,40(sp)
    5182:	d256                	sw	s5,36(sp)
    5184:	00c59993          	slli	s3,a1,0xc
    5188:	de06                	sw	ra,60(sp)
    518a:	dc22                	sw	s0,56(sp)
    518c:	da26                	sw	s1,52(sp)
    518e:	d05a                	sw	s6,32(sp)
    5190:	ce5e                	sw	s7,28(sp)
    5192:	7ff97913          	andi	s2,s2,2047
    5196:	8a2a                	mv	s4,a0
    5198:	00c9d993          	srli	s3,s3,0xc
    519c:	01f5da93          	srli	s5,a1,0x1f
    51a0:	0e090d63          	beqz	s2,529a <__muldf3+0x124>
    51a4:	7ff00793          	li	a5,2047
    51a8:	18f90663          	beq	s2,a5,5334 <__muldf3+0x1be>
    51ac:	01d55413          	srli	s0,a0,0x1d
    51b0:	098e                	slli	s3,s3,0x3
    51b2:	013469b3          	or	s3,s0,s3
    51b6:	00800437          	lui	s0,0x800
    51ba:	0089e433          	or	s0,s3,s0
    51be:	00351493          	slli	s1,a0,0x3
    51c2:	c0190913          	addi	s2,s2,-1023
    51c6:	4981                	li	s3,0
    51c8:	4b81                	li	s7,0
    51ca:	0146d713          	srli	a4,a3,0x14
    51ce:	00c69a13          	slli	s4,a3,0xc
    51d2:	7ff77713          	andi	a4,a4,2047
    51d6:	85b2                	mv	a1,a2
    51d8:	00ca5a13          	srli	s4,s4,0xc
    51dc:	01f6db13          	srli	s6,a3,0x1f
    51e0:	10070b63          	beqz	a4,52f6 <__muldf3+0x180>
    51e4:	7ff00793          	li	a5,2047
    51e8:	04f70363          	beq	a4,a5,522e <__muldf3+0xb8>
    51ec:	01d65793          	srli	a5,a2,0x1d
    51f0:	0a0e                	slli	s4,s4,0x3
    51f2:	0147ea33          	or	s4,a5,s4
    51f6:	c0170713          	addi	a4,a4,-1023
    51fa:	008007b7          	lui	a5,0x800
    51fe:	00fa67b3          	or	a5,s4,a5
    5202:	00361593          	slli	a1,a2,0x3
    5206:	993a                	add	s2,s2,a4
    5208:	4881                	li	a7,0
    520a:	016ac733          	xor	a4,s5,s6
    520e:	46bd                	li	a3,15
    5210:	853a                	mv	a0,a4
    5212:	00190813          	addi	a6,s2,1
    5216:	1736e863          	bltu	a3,s3,5386 <__muldf3+0x210>
    521a:	00004617          	auipc	a2,0x4
    521e:	55e60613          	addi	a2,a2,1374 # 9778 <MyUSBQUADescHD+0x108>
    5222:	098a                	slli	s3,s3,0x2
    5224:	99b2                	add	s3,s3,a2
    5226:	0009a683          	lw	a3,0(s3)
    522a:	96b2                	add	a3,a3,a2
    522c:	8682                	jr	a3
    522e:	00ca67b3          	or	a5,s4,a2
    5232:	7ff90913          	addi	s2,s2,2047
    5236:	12079963          	bnez	a5,5368 <__muldf3+0x1f2>
    523a:	0029e993          	ori	s3,s3,2
    523e:	4581                	li	a1,0
    5240:	4889                	li	a7,2
    5242:	b7e1                	j	520a <__muldf3+0x94>
    5244:	4701                	li	a4,0
    5246:	7ff00793          	li	a5,2047
    524a:	00080437          	lui	s0,0x80
    524e:	4481                	li	s1,0
    5250:	0432                	slli	s0,s0,0xc
    5252:	07d2                	slli	a5,a5,0x14
    5254:	8031                	srli	s0,s0,0xc
    5256:	077e                	slli	a4,a4,0x1f
    5258:	8c5d                	or	s0,s0,a5
    525a:	8c59                	or	s0,s0,a4
    525c:	85a2                	mv	a1,s0
    525e:	50f2                	lw	ra,60(sp)
    5260:	5462                	lw	s0,56(sp)
    5262:	8526                	mv	a0,s1
    5264:	5942                	lw	s2,48(sp)
    5266:	54d2                	lw	s1,52(sp)
    5268:	59b2                	lw	s3,44(sp)
    526a:	5a22                	lw	s4,40(sp)
    526c:	5a92                	lw	s5,36(sp)
    526e:	5b02                	lw	s6,32(sp)
    5270:	4bf2                	lw	s7,28(sp)
    5272:	6121                	addi	sp,sp,64
    5274:	8082                	ret
    5276:	855a                	mv	a0,s6
    5278:	843e                	mv	s0,a5
    527a:	84ae                	mv	s1,a1
    527c:	8bc6                	mv	s7,a7
    527e:	4789                	li	a5,2
    5280:	0efb8d63          	beq	s7,a5,537a <__muldf3+0x204>
    5284:	478d                	li	a5,3
    5286:	fafb8fe3          	beq	s7,a5,5244 <__muldf3+0xce>
    528a:	4785                	li	a5,1
    528c:	872a                	mv	a4,a0
    528e:	38fb9e63          	bne	s7,a5,562a <__muldf3+0x4b4>
    5292:	4781                	li	a5,0
    5294:	4401                	li	s0,0
    5296:	4481                	li	s1,0
    5298:	bf65                	j	5250 <__muldf3+0xda>
    529a:	00a9e433          	or	s0,s3,a0
    529e:	c061                	beqz	s0,535e <__muldf3+0x1e8>
    52a0:	c636                	sw	a3,12(sp)
    52a2:	c432                	sw	a2,8(sp)
    52a4:	2a098c63          	beqz	s3,555c <__muldf3+0x3e6>
    52a8:	854e                	mv	a0,s3
    52aa:	397000ef          	jal	ra,5e40 <__clzsi2>
    52ae:	4622                	lw	a2,8(sp)
    52b0:	46b2                	lw	a3,12(sp)
    52b2:	87aa                	mv	a5,a0
    52b4:	ff550713          	addi	a4,a0,-11
    52b8:	4475                	li	s0,29
    52ba:	ff878493          	addi	s1,a5,-8 # 7ffff8 <_data_lma+0x7f641c>
    52be:	8c19                	sub	s0,s0,a4
    52c0:	009999b3          	sll	s3,s3,s1
    52c4:	008a5433          	srl	s0,s4,s0
    52c8:	01346433          	or	s0,s0,s3
    52cc:	009a14b3          	sll	s1,s4,s1
    52d0:	0146d713          	srli	a4,a3,0x14
    52d4:	c0d00913          	li	s2,-1011
    52d8:	00c69a13          	slli	s4,a3,0xc
    52dc:	7ff77713          	andi	a4,a4,2047
    52e0:	40f90933          	sub	s2,s2,a5
    52e4:	4981                	li	s3,0
    52e6:	4b81                	li	s7,0
    52e8:	85b2                	mv	a1,a2
    52ea:	00ca5a13          	srli	s4,s4,0xc
    52ee:	01f6db13          	srli	s6,a3,0x1f
    52f2:	ee0719e3          	bnez	a4,51e4 <__muldf3+0x6e>
    52f6:	00ca67b3          	or	a5,s4,a2
    52fa:	c7b1                	beqz	a5,5346 <__muldf3+0x1d0>
    52fc:	220a0f63          	beqz	s4,553a <__muldf3+0x3c4>
    5300:	8552                	mv	a0,s4
    5302:	c432                	sw	a2,8(sp)
    5304:	33d000ef          	jal	ra,5e40 <__clzsi2>
    5308:	4622                	lw	a2,8(sp)
    530a:	872a                	mv	a4,a0
    530c:	ff550693          	addi	a3,a0,-11
    5310:	47f5                	li	a5,29
    5312:	ff870593          	addi	a1,a4,-8
    5316:	8f95                	sub	a5,a5,a3
    5318:	00ba1a33          	sll	s4,s4,a1
    531c:	00f657b3          	srl	a5,a2,a5
    5320:	0147e7b3          	or	a5,a5,s4
    5324:	00b615b3          	sll	a1,a2,a1
    5328:	40e90933          	sub	s2,s2,a4
    532c:	c0d90913          	addi	s2,s2,-1011
    5330:	4881                	li	a7,0
    5332:	bde1                	j	520a <__muldf3+0x94>
    5334:	00a9e433          	or	s0,s3,a0
    5338:	ec01                	bnez	s0,5350 <__muldf3+0x1da>
    533a:	49a1                	li	s3,8
    533c:	4481                	li	s1,0
    533e:	7ff00913          	li	s2,2047
    5342:	4b89                	li	s7,2
    5344:	b559                	j	51ca <__muldf3+0x54>
    5346:	0019e993          	ori	s3,s3,1
    534a:	4581                	li	a1,0
    534c:	4885                	li	a7,1
    534e:	bd75                	j	520a <__muldf3+0x94>
    5350:	844e                	mv	s0,s3
    5352:	84aa                	mv	s1,a0
    5354:	49b1                	li	s3,12
    5356:	7ff00913          	li	s2,2047
    535a:	4b8d                	li	s7,3
    535c:	b5bd                	j	51ca <__muldf3+0x54>
    535e:	4991                	li	s3,4
    5360:	4481                	li	s1,0
    5362:	4901                	li	s2,0
    5364:	4b85                	li	s7,1
    5366:	b595                	j	51ca <__muldf3+0x54>
    5368:	0039e993          	ori	s3,s3,3
    536c:	87d2                	mv	a5,s4
    536e:	488d                	li	a7,3
    5370:	bd69                	j	520a <__muldf3+0x94>
    5372:	4789                	li	a5,2
    5374:	8556                	mv	a0,s5
    5376:	f0fb97e3          	bne	s7,a5,5284 <__muldf3+0x10e>
    537a:	872a                	mv	a4,a0
    537c:	7ff00793          	li	a5,2047
    5380:	4401                	li	s0,0
    5382:	4481                	li	s1,0
    5384:	b5f1                	j	5250 <__muldf3+0xda>
    5386:	6ec1                	lui	t4,0x10
    5388:	fffe8613          	addi	a2,t4,-1 # ffff <_data_lma+0x6423>
    538c:	0104d693          	srli	a3,s1,0x10
    5390:	0105de13          	srli	t3,a1,0x10
    5394:	8cf1                	and	s1,s1,a2
    5396:	8df1                	and	a1,a1,a2
    5398:	02958633          	mul	a2,a1,s1
    539c:	02b68333          	mul	t1,a3,a1
    53a0:	01065893          	srli	a7,a2,0x10
    53a4:	029e0533          	mul	a0,t3,s1
    53a8:	951a                	add	a0,a0,t1
    53aa:	98aa                	add	a7,a7,a0
    53ac:	03c682b3          	mul	t0,a3,t3
    53b0:	0068f363          	bgeu	a7,t1,53b6 <__muldf3+0x240>
    53b4:	92f6                	add	t0,t0,t4
    53b6:	6fc1                	lui	t6,0x10
    53b8:	ffff8313          	addi	t1,t6,-1 # ffff <_data_lma+0x6423>
    53bc:	0067f533          	and	a0,a5,t1
    53c0:	0107d393          	srli	t2,a5,0x10
    53c4:	0068f7b3          	and	a5,a7,t1
    53c8:	07c2                	slli	a5,a5,0x10
    53ca:	00667333          	and	t1,a2,t1
    53ce:	933e                	add	t1,t1,a5
    53d0:	02950633          	mul	a2,a0,s1
    53d4:	0108d893          	srli	a7,a7,0x10
    53d8:	02a687b3          	mul	a5,a3,a0
    53dc:	01065f13          	srli	t5,a2,0x10
    53e0:	029384b3          	mul	s1,t2,s1
    53e4:	94be                	add	s1,s1,a5
    53e6:	94fa                	add	s1,s1,t5
    53e8:	02768eb3          	mul	t4,a3,t2
    53ec:	00f4f363          	bgeu	s1,a5,53f2 <__muldf3+0x27c>
    53f0:	9efe                	add	t4,t4,t6
    53f2:	6a41                	lui	s4,0x10
    53f4:	fffa0793          	addi	a5,s4,-1 # ffff <_data_lma+0x6423>
    53f8:	01045f93          	srli	t6,s0,0x10
    53fc:	00f476b3          	and	a3,s0,a5
    5400:	00f4f9b3          	and	s3,s1,a5
    5404:	8e7d                	and	a2,a2,a5
    5406:	80c1                	srli	s1,s1,0x10
    5408:	02d58433          	mul	s0,a1,a3
    540c:	09c2                	slli	s3,s3,0x10
    540e:	01d48f33          	add	t5,s1,t4
    5412:	99b2                	add	s3,s3,a2
    5414:	98ce                	add	a7,a7,s3
    5416:	02de07b3          	mul	a5,t3,a3
    541a:	01045e93          	srli	t4,s0,0x10
    541e:	02bf85b3          	mul	a1,t6,a1
    5422:	97ae                	add	a5,a5,a1
    5424:	9ebe                	add	t4,t4,a5
    5426:	03fe0e33          	mul	t3,t3,t6
    542a:	00bef363          	bgeu	t4,a1,5430 <__muldf3+0x2ba>
    542e:	9e52                	add	t3,t3,s4
    5430:	67c1                	lui	a5,0x10
    5432:	fff78593          	addi	a1,a5,-1 # ffff <_data_lma+0x6423>
    5436:	00bef633          	and	a2,t4,a1
    543a:	8c6d                	and	s0,s0,a1
    543c:	0642                	slli	a2,a2,0x10
    543e:	9622                	add	a2,a2,s0
    5440:	010ede93          	srli	t4,t4,0x10
    5444:	02d505b3          	mul	a1,a0,a3
    5448:	9e76                	add	t3,t3,t4
    544a:	02af8533          	mul	a0,t6,a0
    544e:	0105d413          	srli	s0,a1,0x10
    5452:	02d386b3          	mul	a3,t2,a3
    5456:	96aa                	add	a3,a3,a0
    5458:	96a2                	add	a3,a3,s0
    545a:	03f38fb3          	mul	t6,t2,t6
    545e:	00a6f363          	bgeu	a3,a0,5464 <__muldf3+0x2ee>
    5462:	9fbe                	add	t6,t6,a5
    5464:	6541                	lui	a0,0x10
    5466:	157d                	addi	a0,a0,-1
    5468:	00a6f7b3          	and	a5,a3,a0
    546c:	07c2                	slli	a5,a5,0x10
    546e:	8d6d                	and	a0,a0,a1
    5470:	97aa                	add	a5,a5,a0
    5472:	005885b3          	add	a1,a7,t0
    5476:	0135b9b3          	sltu	s3,a1,s3
    547a:	97fa                	add	a5,a5,t5
    547c:	95b2                	add	a1,a1,a2
    547e:	01378433          	add	s0,a5,s3
    5482:	00c5b633          	sltu	a2,a1,a2
    5486:	01c40eb3          	add	t4,s0,t3
    548a:	00ce8533          	add	a0,t4,a2
    548e:	01343433          	sltu	s0,s0,s3
    5492:	01e7b7b3          	sltu	a5,a5,t5
    5496:	8fc1                	or	a5,a5,s0
    5498:	01cebe33          	sltu	t3,t4,t3
    549c:	0106d413          	srli	s0,a3,0x10
    54a0:	00c53633          	sltu	a2,a0,a2
    54a4:	943e                	add	s0,s0,a5
    54a6:	00ce6633          	or	a2,t3,a2
    54aa:	00959493          	slli	s1,a1,0x9
    54ae:	9432                	add	s0,s0,a2
    54b0:	947e                	add	s0,s0,t6
    54b2:	0064e4b3          	or	s1,s1,t1
    54b6:	0426                	slli	s0,s0,0x9
    54b8:	01755693          	srli	a3,a0,0x17
    54bc:	009034b3          	snez	s1,s1
    54c0:	81dd                	srli	a1,a1,0x17
    54c2:	00951793          	slli	a5,a0,0x9
    54c6:	8ccd                	or	s1,s1,a1
    54c8:	8c55                	or	s0,s0,a3
    54ca:	8cdd                	or	s1,s1,a5
    54cc:	00741793          	slli	a5,s0,0x7
    54d0:	0007db63          	bgez	a5,54e6 <__muldf3+0x370>
    54d4:	0014d793          	srli	a5,s1,0x1
    54d8:	8885                	andi	s1,s1,1
    54da:	01f41693          	slli	a3,s0,0x1f
    54de:	8cdd                	or	s1,s1,a5
    54e0:	8cd5                	or	s1,s1,a3
    54e2:	8005                	srli	s0,s0,0x1
    54e4:	8942                	mv	s2,a6
    54e6:	3ff90793          	addi	a5,s2,1023
    54ea:	08f05963          	blez	a5,557c <__muldf3+0x406>
    54ee:	0074f693          	andi	a3,s1,7
    54f2:	ce81                	beqz	a3,550a <__muldf3+0x394>
    54f4:	00f4f693          	andi	a3,s1,15
    54f8:	4611                	li	a2,4
    54fa:	00c68863          	beq	a3,a2,550a <__muldf3+0x394>
    54fe:	00448693          	addi	a3,s1,4
    5502:	0096b4b3          	sltu	s1,a3,s1
    5506:	9426                	add	s0,s0,s1
    5508:	84b6                	mv	s1,a3
    550a:	00741693          	slli	a3,s0,0x7
    550e:	0006d863          	bgez	a3,551e <__muldf3+0x3a8>
    5512:	ff0007b7          	lui	a5,0xff000
    5516:	17fd                	addi	a5,a5,-1
    5518:	8c7d                	and	s0,s0,a5
    551a:	40090793          	addi	a5,s2,1024
    551e:	7fe00693          	li	a3,2046
    5522:	0ef6cf63          	blt	a3,a5,5620 <__muldf3+0x4aa>
    5526:	0034d693          	srli	a3,s1,0x3
    552a:	01d41493          	slli	s1,s0,0x1d
    552e:	0426                	slli	s0,s0,0x9
    5530:	8cd5                	or	s1,s1,a3
    5532:	8031                	srli	s0,s0,0xc
    5534:	7ff7f793          	andi	a5,a5,2047
    5538:	bb21                	j	5250 <__muldf3+0xda>
    553a:	8532                	mv	a0,a2
    553c:	c432                	sw	a2,8(sp)
    553e:	103000ef          	jal	ra,5e40 <__clzsi2>
    5542:	01550693          	addi	a3,a0,21 # 10015 <_data_lma+0x6439>
    5546:	47f1                	li	a5,28
    5548:	02050713          	addi	a4,a0,32
    554c:	4622                	lw	a2,8(sp)
    554e:	dcd7d1e3          	bge	a5,a3,5310 <__muldf3+0x19a>
    5552:	1561                	addi	a0,a0,-8
    5554:	00a617b3          	sll	a5,a2,a0
    5558:	4581                	li	a1,0
    555a:	b3f9                	j	5328 <__muldf3+0x1b2>
    555c:	0e5000ef          	jal	ra,5e40 <__clzsi2>
    5560:	01550713          	addi	a4,a0,21
    5564:	45f1                	li	a1,28
    5566:	02050793          	addi	a5,a0,32
    556a:	4622                	lw	a2,8(sp)
    556c:	46b2                	lw	a3,12(sp)
    556e:	d4e5d5e3          	bge	a1,a4,52b8 <__muldf3+0x142>
    5572:	1561                	addi	a0,a0,-8
    5574:	00aa1433          	sll	s0,s4,a0
    5578:	4481                	li	s1,0
    557a:	bb99                	j	52d0 <__muldf3+0x15a>
    557c:	4685                	li	a3,1
    557e:	8e9d                	sub	a3,a3,a5
    5580:	e7b1                	bnez	a5,55cc <__muldf3+0x456>
    5582:	41e90913          	addi	s2,s2,1054
    5586:	012497b3          	sll	a5,s1,s2
    558a:	00d4d4b3          	srl	s1,s1,a3
    558e:	01241933          	sll	s2,s0,s2
    5592:	00f037b3          	snez	a5,a5
    5596:	009964b3          	or	s1,s2,s1
    559a:	8cdd                	or	s1,s1,a5
    559c:	0074f793          	andi	a5,s1,7
    55a0:	00d456b3          	srl	a3,s0,a3
    55a4:	cf81                	beqz	a5,55bc <__muldf3+0x446>
    55a6:	00f4f793          	andi	a5,s1,15
    55aa:	4611                	li	a2,4
    55ac:	00c78863          	beq	a5,a2,55bc <__muldf3+0x446>
    55b0:	00448793          	addi	a5,s1,4
    55b4:	0097b4b3          	sltu	s1,a5,s1
    55b8:	96a6                	add	a3,a3,s1
    55ba:	84be                	mv	s1,a5
    55bc:	00869793          	slli	a5,a3,0x8
    55c0:	0407d863          	bgez	a5,5610 <__muldf3+0x49a>
    55c4:	4785                	li	a5,1
    55c6:	4401                	li	s0,0
    55c8:	4481                	li	s1,0
    55ca:	b159                	j	5250 <__muldf3+0xda>
    55cc:	03800613          	li	a2,56
    55d0:	ccd641e3          	blt	a2,a3,5292 <__muldf3+0x11c>
    55d4:	467d                	li	a2,31
    55d6:	fad656e3          	bge	a2,a3,5582 <__muldf3+0x40c>
    55da:	5605                	li	a2,-31
    55dc:	40f607b3          	sub	a5,a2,a5
    55e0:	02000593          	li	a1,32
    55e4:	00f45633          	srl	a2,s0,a5
    55e8:	00b68763          	beq	a3,a1,55f6 <__muldf3+0x480>
    55ec:	43e90913          	addi	s2,s2,1086
    55f0:	012417b3          	sll	a5,s0,s2
    55f4:	8cdd                	or	s1,s1,a5
    55f6:	009034b3          	snez	s1,s1
    55fa:	8cd1                	or	s1,s1,a2
    55fc:	0074f693          	andi	a3,s1,7
    5600:	4401                	li	s0,0
    5602:	ca99                	beqz	a3,5618 <__muldf3+0x4a2>
    5604:	00f4f793          	andi	a5,s1,15
    5608:	4611                	li	a2,4
    560a:	4681                	li	a3,0
    560c:	fac792e3          	bne	a5,a2,55b0 <__muldf3+0x43a>
    5610:	00969413          	slli	s0,a3,0x9
    5614:	8031                	srli	s0,s0,0xc
    5616:	06f6                	slli	a3,a3,0x1d
    5618:	808d                	srli	s1,s1,0x3
    561a:	8cd5                	or	s1,s1,a3
    561c:	4781                	li	a5,0
    561e:	b90d                	j	5250 <__muldf3+0xda>
    5620:	7ff00793          	li	a5,2047
    5624:	4401                	li	s0,0
    5626:	4481                	li	s1,0
    5628:	b125                	j	5250 <__muldf3+0xda>
    562a:	8942                	mv	s2,a6
    562c:	bd6d                	j	54e6 <__muldf3+0x370>

0000562e <__subdf3>:
__subdf3():
    562e:	00100737          	lui	a4,0x100
    5632:	177d                	addi	a4,a4,-1
    5634:	1101                	addi	sp,sp,-32
    5636:	00b77333          	and	t1,a4,a1
    563a:	0146d893          	srli	a7,a3,0x14
    563e:	8f75                	and	a4,a4,a3
    5640:	01d65e93          	srli	t4,a2,0x1d
    5644:	cc22                	sw	s0,24(sp)
    5646:	ca26                	sw	s1,20(sp)
    5648:	030e                	slli	t1,t1,0x3
    564a:	0145d493          	srli	s1,a1,0x14
    564e:	01d55793          	srli	a5,a0,0x1d
    5652:	070e                	slli	a4,a4,0x3
    5654:	ce06                	sw	ra,28(sp)
    5656:	c84a                	sw	s2,16(sp)
    5658:	c64e                	sw	s3,12(sp)
    565a:	7ff8f893          	andi	a7,a7,2047
    565e:	7ff00e13          	li	t3,2047
    5662:	00eee733          	or	a4,t4,a4
    5666:	7ff4f493          	andi	s1,s1,2047
    566a:	01f5d413          	srli	s0,a1,0x1f
    566e:	0067e333          	or	t1,a5,t1
    5672:	00351f13          	slli	t5,a0,0x3
    5676:	82fd                	srli	a3,a3,0x1f
    5678:	00361e93          	slli	t4,a2,0x3
    567c:	17c88f63          	beq	a7,t3,57fa <__subdf3+0x1cc>
    5680:	0016c693          	xori	a3,a3,1
    5684:	411485b3          	sub	a1,s1,a7
    5688:	12d40463          	beq	s0,a3,57b0 <__subdf3+0x182>
    568c:	18b05063          	blez	a1,580c <__subdf3+0x1de>
    5690:	1a088a63          	beqz	a7,5844 <__subdf3+0x216>
    5694:	008007b7          	lui	a5,0x800
    5698:	8f5d                	or	a4,a4,a5
    569a:	57c48f63          	beq	s1,t3,5c18 <__subdf3+0x5ea>
    569e:	03800793          	li	a5,56
    56a2:	34b7c263          	blt	a5,a1,59e6 <__subdf3+0x3b8>
    56a6:	47fd                	li	a5,31
    56a8:	48b7c363          	blt	a5,a1,5b2e <__subdf3+0x500>
    56ac:	02000793          	li	a5,32
    56b0:	8f8d                	sub	a5,a5,a1
    56b2:	00bed9b3          	srl	s3,t4,a1
    56b6:	00f71833          	sll	a6,a4,a5
    56ba:	00fe9eb3          	sll	t4,t4,a5
    56be:	01386833          	or	a6,a6,s3
    56c2:	00b75733          	srl	a4,a4,a1
    56c6:	01d039b3          	snez	s3,t4
    56ca:	01386833          	or	a6,a6,s3
    56ce:	40e30333          	sub	t1,t1,a4
    56d2:	410f09b3          	sub	s3,t5,a6
    56d6:	013f37b3          	sltu	a5,t5,s3
    56da:	40f30633          	sub	a2,t1,a5
    56de:	00861793          	slli	a5,a2,0x8
    56e2:	2407d263          	bgez	a5,5926 <__subdf3+0x2f8>
    56e6:	00800937          	lui	s2,0x800
    56ea:	197d                	addi	s2,s2,-1
    56ec:	01267933          	and	s2,a2,s2
    56f0:	2c090e63          	beqz	s2,59cc <__subdf3+0x39e>
    56f4:	854a                	mv	a0,s2
    56f6:	27a9                	jal	5e40 <__clzsi2>
    56f8:	ff850713          	addi	a4,a0,-8
    56fc:	02000793          	li	a5,32
    5700:	8f99                	sub	a5,a5,a4
    5702:	00f9d7b3          	srl	a5,s3,a5
    5706:	00e91633          	sll	a2,s2,a4
    570a:	8fd1                	or	a5,a5,a2
    570c:	00e999b3          	sll	s3,s3,a4
    5710:	2a974463          	blt	a4,s1,59b8 <__subdf3+0x38a>
    5714:	8f05                	sub	a4,a4,s1
    5716:	00170613          	addi	a2,a4,1 # 100001 <_data_lma+0xf6425>
    571a:	46fd                	li	a3,31
    571c:	3ac6c463          	blt	a3,a2,5ac4 <__subdf3+0x496>
    5720:	02000713          	li	a4,32
    5724:	8f11                	sub	a4,a4,a2
    5726:	00c9d6b3          	srl	a3,s3,a2
    572a:	00e99833          	sll	a6,s3,a4
    572e:	00e79733          	sll	a4,a5,a4
    5732:	8f55                	or	a4,a4,a3
    5734:	01003833          	snez	a6,a6
    5738:	010769b3          	or	s3,a4,a6
    573c:	00c7d633          	srl	a2,a5,a2
    5740:	4481                	li	s1,0
    5742:	0079f793          	andi	a5,s3,7
    5746:	cf81                	beqz	a5,575e <__subdf3+0x130>
    5748:	00f9f693          	andi	a3,s3,15
    574c:	4791                	li	a5,4
    574e:	00f68863          	beq	a3,a5,575e <__subdf3+0x130>
    5752:	00498693          	addi	a3,s3,4
    5756:	0136b833          	sltu	a6,a3,s3
    575a:	9642                	add	a2,a2,a6
    575c:	89b6                	mv	s3,a3
    575e:	00861793          	slli	a5,a2,0x8
    5762:	1c07d663          	bgez	a5,592e <__subdf3+0x300>
    5766:	00148713          	addi	a4,s1,1
    576a:	7ff00793          	li	a5,2047
    576e:	8805                	andi	s0,s0,1
    5770:	20f70663          	beq	a4,a5,597c <__subdf3+0x34e>
    5774:	ff8007b7          	lui	a5,0xff800
    5778:	17fd                	addi	a5,a5,-1
    577a:	8ff1                	and	a5,a5,a2
    577c:	01d79813          	slli	a6,a5,0x1d
    5780:	0039d993          	srli	s3,s3,0x3
    5784:	07a6                	slli	a5,a5,0x9
    5786:	01386833          	or	a6,a6,s3
    578a:	83b1                	srli	a5,a5,0xc
    578c:	7ff77713          	andi	a4,a4,2047
    5790:	00c79693          	slli	a3,a5,0xc
    5794:	0752                	slli	a4,a4,0x14
    5796:	82b1                	srli	a3,a3,0xc
    5798:	047e                	slli	s0,s0,0x1f
    579a:	8ed9                	or	a3,a3,a4
    579c:	8ec1                	or	a3,a3,s0
    579e:	40f2                	lw	ra,28(sp)
    57a0:	4462                	lw	s0,24(sp)
    57a2:	44d2                	lw	s1,20(sp)
    57a4:	4942                	lw	s2,16(sp)
    57a6:	49b2                	lw	s3,12(sp)
    57a8:	8542                	mv	a0,a6
    57aa:	85b6                	mv	a1,a3
    57ac:	6105                	addi	sp,sp,32
    57ae:	8082                	ret
    57b0:	0ab05663          	blez	a1,585c <__subdf3+0x22e>
    57b4:	12088a63          	beqz	a7,58e8 <__subdf3+0x2ba>
    57b8:	008007b7          	lui	a5,0x800
    57bc:	8f5d                	or	a4,a4,a5
    57be:	2dc48663          	beq	s1,t3,5a8a <__subdf3+0x45c>
    57c2:	03800793          	li	a5,56
    57c6:	18b7c763          	blt	a5,a1,5954 <__subdf3+0x326>
    57ca:	47fd                	li	a5,31
    57cc:	3cb7d163          	bge	a5,a1,5b8e <__subdf3+0x560>
    57d0:	fe058813          	addi	a6,a1,-32 # ffe0 <_data_lma+0x6404>
    57d4:	02000793          	li	a5,32
    57d8:	010759b3          	srl	s3,a4,a6
    57dc:	00f58a63          	beq	a1,a5,57f0 <__subdf3+0x1c2>
    57e0:	04000793          	li	a5,64
    57e4:	40b785b3          	sub	a1,a5,a1
    57e8:	00b71733          	sll	a4,a4,a1
    57ec:	00eeeeb3          	or	t4,t4,a4
    57f0:	01d03833          	snez	a6,t4
    57f4:	01386833          	or	a6,a6,s3
    57f8:	a295                	j	595c <__subdf3+0x32e>
    57fa:	01d767b3          	or	a5,a4,t4
    57fe:	80148593          	addi	a1,s1,-2047
    5802:	e399                	bnez	a5,5808 <__subdf3+0x1da>
    5804:	0016c693          	xori	a3,a3,1
    5808:	04d40a63          	beq	s0,a3,585c <__subdf3+0x22e>
    580c:	e1d1                	bnez	a1,5890 <__subdf3+0x262>
    580e:	00148793          	addi	a5,s1,1
    5812:	7fe7f793          	andi	a5,a5,2046
    5816:	1e079863          	bnez	a5,5a06 <__subdf3+0x3d8>
    581a:	01e367b3          	or	a5,t1,t5
    581e:	01d76833          	or	a6,a4,t4
    5822:	16049263          	bnez	s1,5986 <__subdf3+0x358>
    5826:	3c078163          	beqz	a5,5be8 <__subdf3+0x5ba>
    582a:	42081563          	bnez	a6,5c54 <__subdf3+0x626>
    582e:	00351813          	slli	a6,a0,0x3
    5832:	01d31693          	slli	a3,t1,0x1d
    5836:	00385813          	srli	a6,a6,0x3
    583a:	0106e833          	or	a6,a3,a6
    583e:	00335793          	srli	a5,t1,0x3
    5842:	a219                	j	5948 <__subdf3+0x31a>
    5844:	01d767b3          	or	a5,a4,t4
    5848:	1a078463          	beqz	a5,59f0 <__subdf3+0x3c2>
    584c:	fff58793          	addi	a5,a1,-1
    5850:	3a078a63          	beqz	a5,5c04 <__subdf3+0x5d6>
    5854:	23c58b63          	beq	a1,t3,5a8a <__subdf3+0x45c>
    5858:	85be                	mv	a1,a5
    585a:	b591                	j	569e <__subdf3+0x70>
    585c:	1c059863          	bnez	a1,5a2c <__subdf3+0x3fe>
    5860:	00148693          	addi	a3,s1,1
    5864:	7fe6f793          	andi	a5,a3,2046
    5868:	efc1                	bnez	a5,5900 <__subdf3+0x2d2>
    586a:	01e367b3          	or	a5,t1,t5
    586e:	34049f63          	bnez	s1,5bcc <__subdf3+0x59e>
    5872:	44078c63          	beqz	a5,5cca <__subdf3+0x69c>
    5876:	01d767b3          	or	a5,a4,t4
    587a:	46079363          	bnez	a5,5ce0 <__subdf3+0x6b2>
    587e:	050e                	slli	a0,a0,0x3
    5880:	01d31813          	slli	a6,t1,0x1d
    5884:	810d                	srli	a0,a0,0x3
    5886:	00a86833          	or	a6,a6,a0
    588a:	00335793          	srli	a5,t1,0x3
    588e:	a86d                	j	5948 <__subdf3+0x31a>
    5890:	409885b3          	sub	a1,a7,s1
    5894:	20049663          	bnez	s1,5aa0 <__subdf3+0x472>
    5898:	01e367b3          	or	a5,t1,t5
    589c:	30078c63          	beqz	a5,5bb4 <__subdf3+0x586>
    58a0:	fff58793          	addi	a5,a1,-1
    58a4:	40078863          	beqz	a5,5cb4 <__subdf3+0x686>
    58a8:	7ff00513          	li	a0,2047
    58ac:	20a58263          	beq	a1,a0,5ab0 <__subdf3+0x482>
    58b0:	85be                	mv	a1,a5
    58b2:	03800793          	li	a5,56
    58b6:	2ab7c163          	blt	a5,a1,5b58 <__subdf3+0x52a>
    58ba:	47fd                	li	a5,31
    58bc:	3cb7c763          	blt	a5,a1,5c8a <__subdf3+0x65c>
    58c0:	02000793          	li	a5,32
    58c4:	8f8d                	sub	a5,a5,a1
    58c6:	00f31833          	sll	a6,t1,a5
    58ca:	00bf5633          	srl	a2,t5,a1
    58ce:	00ff17b3          	sll	a5,t5,a5
    58d2:	00c86833          	or	a6,a6,a2
    58d6:	00f039b3          	snez	s3,a5
    58da:	00b35333          	srl	t1,t1,a1
    58de:	01386833          	or	a6,a6,s3
    58e2:	40670733          	sub	a4,a4,t1
    58e6:	acad                	j	5b60 <__subdf3+0x532>
    58e8:	01d767b3          	or	a5,a4,t4
    58ec:	10078263          	beqz	a5,59f0 <__subdf3+0x3c2>
    58f0:	fff58793          	addi	a5,a1,-1
    58f4:	1e078e63          	beqz	a5,5af0 <__subdf3+0x4c2>
    58f8:	2dc58f63          	beq	a1,t3,5bd6 <__subdf3+0x5a8>
    58fc:	85be                	mv	a1,a5
    58fe:	b5d1                	j	57c2 <__subdf3+0x194>
    5900:	7ff00793          	li	a5,2047
    5904:	06f68b63          	beq	a3,a5,597a <__subdf3+0x34c>
    5908:	9efa                	add	t4,t4,t5
    590a:	01eeb633          	sltu	a2,t4,t5
    590e:	00e307b3          	add	a5,t1,a4
    5912:	97b2                	add	a5,a5,a2
    5914:	01f79813          	slli	a6,a5,0x1f
    5918:	001ede93          	srli	t4,t4,0x1
    591c:	01d869b3          	or	s3,a6,t4
    5920:	0017d613          	srli	a2,a5,0x1
    5924:	84b6                	mv	s1,a3
    5926:	0079f793          	andi	a5,s3,7
    592a:	e0079fe3          	bnez	a5,5748 <__subdf3+0x11a>
    592e:	01d61793          	slli	a5,a2,0x1d
    5932:	0039d813          	srli	a6,s3,0x3
    5936:	00f86833          	or	a6,a6,a5
    593a:	85a6                	mv	a1,s1
    593c:	00365793          	srli	a5,a2,0x3
    5940:	7ff00713          	li	a4,2047
    5944:	06e58063          	beq	a1,a4,59a4 <__subdf3+0x376>
    5948:	07b2                	slli	a5,a5,0xc
    594a:	83b1                	srli	a5,a5,0xc
    594c:	7ff5f713          	andi	a4,a1,2047
    5950:	8805                	andi	s0,s0,1
    5952:	bd3d                	j	5790 <__subdf3+0x162>
    5954:	01d76733          	or	a4,a4,t4
    5958:	00e03833          	snez	a6,a4
    595c:	01e809b3          	add	s3,a6,t5
    5960:	01e9b7b3          	sltu	a5,s3,t5
    5964:	00678633          	add	a2,a5,t1
    5968:	00861793          	slli	a5,a2,0x8
    596c:	fa07dde3          	bgez	a5,5926 <__subdf3+0x2f8>
    5970:	0485                	addi	s1,s1,1
    5972:	7ff00793          	li	a5,2047
    5976:	18f49b63          	bne	s1,a5,5b0c <__subdf3+0x4de>
    597a:	8805                	andi	s0,s0,1
    597c:	7ff00713          	li	a4,2047
    5980:	4781                	li	a5,0
    5982:	4801                	li	a6,0
    5984:	b531                	j	5790 <__subdf3+0x162>
    5986:	10079063          	bnez	a5,5a86 <__subdf3+0x458>
    598a:	3c080063          	beqz	a6,5d4a <__subdf3+0x71c>
    598e:	00361813          	slli	a6,a2,0x3
    5992:	01d71793          	slli	a5,a4,0x1d
    5996:	00385813          	srli	a6,a6,0x3
    599a:	00f86833          	or	a6,a6,a5
    599e:	8436                	mv	s0,a3
    59a0:	00375793          	srli	a5,a4,0x3
    59a4:	00f867b3          	or	a5,a6,a5
    59a8:	dbe9                	beqz	a5,597a <__subdf3+0x34c>
    59aa:	4401                	li	s0,0
    59ac:	7ff00713          	li	a4,2047
    59b0:	000807b7          	lui	a5,0x80
    59b4:	4801                	li	a6,0
    59b6:	bbe9                	j	5790 <__subdf3+0x162>
    59b8:	ff800637          	lui	a2,0xff800
    59bc:	167d                	addi	a2,a2,-1
    59be:	8e7d                	and	a2,a2,a5
    59c0:	0079f793          	andi	a5,s3,7
    59c4:	8c99                	sub	s1,s1,a4
    59c6:	d80791e3          	bnez	a5,5748 <__subdf3+0x11a>
    59ca:	b795                	j	592e <__subdf3+0x300>
    59cc:	854e                	mv	a0,s3
    59ce:	298d                	jal	5e40 <__clzsi2>
    59d0:	01850713          	addi	a4,a0,24
    59d4:	47fd                	li	a5,31
    59d6:	d2e7d3e3          	bge	a5,a4,56fc <__subdf3+0xce>
    59da:	ff850613          	addi	a2,a0,-8
    59de:	00c997b3          	sll	a5,s3,a2
    59e2:	4981                	li	s3,0
    59e4:	b335                	j	5710 <__subdf3+0xe2>
    59e6:	01d76833          	or	a6,a4,t4
    59ea:	01003833          	snez	a6,a6
    59ee:	b1d5                	j	56d2 <__subdf3+0xa4>
    59f0:	00351813          	slli	a6,a0,0x3
    59f4:	01d31793          	slli	a5,t1,0x1d
    59f8:	00385813          	srli	a6,a6,0x3
    59fc:	00f86833          	or	a6,a6,a5
    5a00:	00335793          	srli	a5,t1,0x3
    5a04:	bf35                	j	5940 <__subdf3+0x312>
    5a06:	41df09b3          	sub	s3,t5,t4
    5a0a:	40e30933          	sub	s2,t1,a4
    5a0e:	013f3633          	sltu	a2,t5,s3
    5a12:	40c90933          	sub	s2,s2,a2
    5a16:	00891793          	slli	a5,s2,0x8
    5a1a:	2007ca63          	bltz	a5,5c2e <__subdf3+0x600>
    5a1e:	0129e833          	or	a6,s3,s2
    5a22:	cc0817e3          	bnez	a6,56f0 <__subdf3+0xc2>
    5a26:	4781                	li	a5,0
    5a28:	4401                	li	s0,0
    5a2a:	bf39                	j	5948 <__subdf3+0x31a>
    5a2c:	409885b3          	sub	a1,a7,s1
    5a30:	14048163          	beqz	s1,5b72 <__subdf3+0x544>
    5a34:	008006b7          	lui	a3,0x800
    5a38:	7ff00793          	li	a5,2047
    5a3c:	00d36333          	or	t1,t1,a3
    5a40:	20f88163          	beq	a7,a5,5c42 <__subdf3+0x614>
    5a44:	03800793          	li	a5,56
    5a48:	22b7cc63          	blt	a5,a1,5c80 <__subdf3+0x652>
    5a4c:	47fd                	li	a5,31
    5a4e:	2cb7c963          	blt	a5,a1,5d20 <__subdf3+0x6f2>
    5a52:	02000793          	li	a5,32
    5a56:	8f8d                	sub	a5,a5,a1
    5a58:	00f31833          	sll	a6,t1,a5
    5a5c:	00bf56b3          	srl	a3,t5,a1
    5a60:	00ff17b3          	sll	a5,t5,a5
    5a64:	00d86833          	or	a6,a6,a3
    5a68:	00f039b3          	snez	s3,a5
    5a6c:	00b35333          	srl	t1,t1,a1
    5a70:	01386833          	or	a6,a6,s3
    5a74:	971a                	add	a4,a4,t1
    5a76:	01d809b3          	add	s3,a6,t4
    5a7a:	01d9b7b3          	sltu	a5,s3,t4
    5a7e:	00e78633          	add	a2,a5,a4
    5a82:	84c6                	mv	s1,a7
    5a84:	b5d5                	j	5968 <__subdf3+0x33a>
    5a86:	f20812e3          	bnez	a6,59aa <__subdf3+0x37c>
    5a8a:	00351813          	slli	a6,a0,0x3
    5a8e:	01d31793          	slli	a5,t1,0x1d
    5a92:	00385813          	srli	a6,a6,0x3
    5a96:	00f86833          	or	a6,a6,a5
    5a9a:	00335793          	srli	a5,t1,0x3
    5a9e:	b719                	j	59a4 <__subdf3+0x376>
    5aa0:	00800537          	lui	a0,0x800
    5aa4:	7ff00793          	li	a5,2047
    5aa8:	00a36333          	or	t1,t1,a0
    5aac:	e0f893e3          	bne	a7,a5,58b2 <__subdf3+0x284>
    5ab0:	060e                	slli	a2,a2,0x3
    5ab2:	01d71813          	slli	a6,a4,0x1d
    5ab6:	820d                	srli	a2,a2,0x3
    5ab8:	00c86833          	or	a6,a6,a2
    5abc:	00375793          	srli	a5,a4,0x3
    5ac0:	8436                	mv	s0,a3
    5ac2:	b5cd                	j	59a4 <__subdf3+0x376>
    5ac4:	1705                	addi	a4,a4,-31
    5ac6:	02000693          	li	a3,32
    5aca:	00e7d733          	srl	a4,a5,a4
    5ace:	00d60a63          	beq	a2,a3,5ae2 <__subdf3+0x4b4>
    5ad2:	04000693          	li	a3,64
    5ad6:	40c68633          	sub	a2,a3,a2
    5ada:	00c79633          	sll	a2,a5,a2
    5ade:	00c9e9b3          	or	s3,s3,a2
    5ae2:	01303833          	snez	a6,s3
    5ae6:	00e869b3          	or	s3,a6,a4
    5aea:	4601                	li	a2,0
    5aec:	4481                	li	s1,0
    5aee:	bd25                	j	5926 <__subdf3+0x2f8>
    5af0:	01df09b3          	add	s3,t5,t4
    5af4:	00e307b3          	add	a5,t1,a4
    5af8:	01e9bf33          	sltu	t5,s3,t5
    5afc:	01e78633          	add	a2,a5,t5
    5b00:	00861793          	slli	a5,a2,0x8
    5b04:	4485                	li	s1,1
    5b06:	e207d0e3          	bgez	a5,5926 <__subdf3+0x2f8>
    5b0a:	4489                	li	s1,2
    5b0c:	ff8007b7          	lui	a5,0xff800
    5b10:	17fd                	addi	a5,a5,-1
    5b12:	8ff1                	and	a5,a5,a2
    5b14:	0019d713          	srli	a4,s3,0x1
    5b18:	0019f813          	andi	a6,s3,1
    5b1c:	01076833          	or	a6,a4,a6
    5b20:	01f79993          	slli	s3,a5,0x1f
    5b24:	0109e9b3          	or	s3,s3,a6
    5b28:	0017d613          	srli	a2,a5,0x1
    5b2c:	b919                	j	5742 <__subdf3+0x114>
    5b2e:	fe058813          	addi	a6,a1,-32
    5b32:	02000793          	li	a5,32
    5b36:	010759b3          	srl	s3,a4,a6
    5b3a:	00f58a63          	beq	a1,a5,5b4e <__subdf3+0x520>
    5b3e:	04000793          	li	a5,64
    5b42:	40b785b3          	sub	a1,a5,a1
    5b46:	00b71733          	sll	a4,a4,a1
    5b4a:	00eeeeb3          	or	t4,t4,a4
    5b4e:	01d03833          	snez	a6,t4
    5b52:	01386833          	or	a6,a6,s3
    5b56:	beb5                	j	56d2 <__subdf3+0xa4>
    5b58:	01e36333          	or	t1,t1,t5
    5b5c:	00603833          	snez	a6,t1
    5b60:	410e89b3          	sub	s3,t4,a6
    5b64:	013eb7b3          	sltu	a5,t4,s3
    5b68:	40f70633          	sub	a2,a4,a5
    5b6c:	84c6                	mv	s1,a7
    5b6e:	8436                	mv	s0,a3
    5b70:	b6bd                	j	56de <__subdf3+0xb0>
    5b72:	01e367b3          	or	a5,t1,t5
    5b76:	18078763          	beqz	a5,5d04 <__subdf3+0x6d6>
    5b7a:	fff58793          	addi	a5,a1,-1
    5b7e:	1c078c63          	beqz	a5,5d56 <__subdf3+0x728>
    5b82:	7ff00693          	li	a3,2047
    5b86:	0ad58e63          	beq	a1,a3,5c42 <__subdf3+0x614>
    5b8a:	85be                	mv	a1,a5
    5b8c:	bd65                	j	5a44 <__subdf3+0x416>
    5b8e:	02000793          	li	a5,32
    5b92:	8f8d                	sub	a5,a5,a1
    5b94:	00bed9b3          	srl	s3,t4,a1
    5b98:	00f71833          	sll	a6,a4,a5
    5b9c:	00fe9eb3          	sll	t4,t4,a5
    5ba0:	01386833          	or	a6,a6,s3
    5ba4:	00b75733          	srl	a4,a4,a1
    5ba8:	01d039b3          	snez	s3,t4
    5bac:	01386833          	or	a6,a6,s3
    5bb0:	933a                	add	t1,t1,a4
    5bb2:	b36d                	j	595c <__subdf3+0x32e>
    5bb4:	00361813          	slli	a6,a2,0x3
    5bb8:	01d71793          	slli	a5,a4,0x1d
    5bbc:	00385813          	srli	a6,a6,0x3
    5bc0:	0107e833          	or	a6,a5,a6
    5bc4:	8436                	mv	s0,a3
    5bc6:	00375793          	srli	a5,a4,0x3
    5bca:	bb9d                	j	5940 <__subdf3+0x312>
    5bcc:	cbbd                	beqz	a5,5c42 <__subdf3+0x614>
    5bce:	01d76733          	or	a4,a4,t4
    5bd2:	dc071ce3          	bnez	a4,59aa <__subdf3+0x37c>
    5bd6:	050e                	slli	a0,a0,0x3
    5bd8:	01d31813          	slli	a6,t1,0x1d
    5bdc:	810d                	srli	a0,a0,0x3
    5bde:	00a86833          	or	a6,a6,a0
    5be2:	00335793          	srli	a5,t1,0x3
    5be6:	bb7d                	j	59a4 <__subdf3+0x376>
    5be8:	e2080fe3          	beqz	a6,5a26 <__subdf3+0x3f8>
    5bec:	00361813          	slli	a6,a2,0x3
    5bf0:	01d71793          	slli	a5,a4,0x1d
    5bf4:	00385813          	srli	a6,a6,0x3
    5bf8:	00f86833          	or	a6,a6,a5
    5bfc:	8436                	mv	s0,a3
    5bfe:	00375793          	srli	a5,a4,0x3
    5c02:	b399                	j	5948 <__subdf3+0x31a>
    5c04:	41df09b3          	sub	s3,t5,t4
    5c08:	40e307b3          	sub	a5,t1,a4
    5c0c:	013f3f33          	sltu	t5,t5,s3
    5c10:	41e78633          	sub	a2,a5,t5
    5c14:	4485                	li	s1,1
    5c16:	b4e1                	j	56de <__subdf3+0xb0>
    5c18:	00351813          	slli	a6,a0,0x3
    5c1c:	01d31693          	slli	a3,t1,0x1d
    5c20:	00385813          	srli	a6,a6,0x3
    5c24:	0106e833          	or	a6,a3,a6
    5c28:	00335793          	srli	a5,t1,0x3
    5c2c:	bba5                	j	59a4 <__subdf3+0x376>
    5c2e:	41ee89b3          	sub	s3,t4,t5
    5c32:	40670633          	sub	a2,a4,t1
    5c36:	013eb933          	sltu	s2,t4,s3
    5c3a:	41260933          	sub	s2,a2,s2
    5c3e:	8436                	mv	s0,a3
    5c40:	bc45                	j	56f0 <__subdf3+0xc2>
    5c42:	060e                	slli	a2,a2,0x3
    5c44:	01d71813          	slli	a6,a4,0x1d
    5c48:	820d                	srli	a2,a2,0x3
    5c4a:	00c86833          	or	a6,a6,a2
    5c4e:	00375793          	srli	a5,a4,0x3
    5c52:	bb89                	j	59a4 <__subdf3+0x376>
    5c54:	41df09b3          	sub	s3,t5,t4
    5c58:	40e307b3          	sub	a5,t1,a4
    5c5c:	013f3633          	sltu	a2,t5,s3
    5c60:	40c78633          	sub	a2,a5,a2
    5c64:	00861793          	slli	a5,a2,0x8
    5c68:	0a07d763          	bgez	a5,5d16 <__subdf3+0x6e8>
    5c6c:	41ee89b3          	sub	s3,t4,t5
    5c70:	406707b3          	sub	a5,a4,t1
    5c74:	013ebeb3          	sltu	t4,t4,s3
    5c78:	41d78633          	sub	a2,a5,t4
    5c7c:	8436                	mv	s0,a3
    5c7e:	b4d1                	j	5742 <__subdf3+0x114>
    5c80:	01e36333          	or	t1,t1,t5
    5c84:	00603833          	snez	a6,t1
    5c88:	b3fd                	j	5a76 <__subdf3+0x448>
    5c8a:	fe058813          	addi	a6,a1,-32
    5c8e:	02000793          	li	a5,32
    5c92:	010359b3          	srl	s3,t1,a6
    5c96:	00f58a63          	beq	a1,a5,5caa <__subdf3+0x67c>
    5c9a:	04000793          	li	a5,64
    5c9e:	40b785b3          	sub	a1,a5,a1
    5ca2:	00b31333          	sll	t1,t1,a1
    5ca6:	006f6f33          	or	t5,t5,t1
    5caa:	01e03833          	snez	a6,t5
    5cae:	01386833          	or	a6,a6,s3
    5cb2:	b57d                	j	5b60 <__subdf3+0x532>
    5cb4:	41ee89b3          	sub	s3,t4,t5
    5cb8:	406707b3          	sub	a5,a4,t1
    5cbc:	013ebeb3          	sltu	t4,t4,s3
    5cc0:	41d78633          	sub	a2,a5,t4
    5cc4:	8436                	mv	s0,a3
    5cc6:	4485                	li	s1,1
    5cc8:	bc19                	j	56de <__subdf3+0xb0>
    5cca:	00361813          	slli	a6,a2,0x3
    5cce:	01d71793          	slli	a5,a4,0x1d
    5cd2:	00385813          	srli	a6,a6,0x3
    5cd6:	00f86833          	or	a6,a6,a5
    5cda:	00375793          	srli	a5,a4,0x3
    5cde:	b1ad                	j	5948 <__subdf3+0x31a>
    5ce0:	01df09b3          	add	s3,t5,t4
    5ce4:	00e307b3          	add	a5,t1,a4
    5ce8:	01e9bf33          	sltu	t5,s3,t5
    5cec:	01e78633          	add	a2,a5,t5
    5cf0:	00861793          	slli	a5,a2,0x8
    5cf4:	c207d9e3          	bgez	a5,5926 <__subdf3+0x2f8>
    5cf8:	ff8007b7          	lui	a5,0xff800
    5cfc:	17fd                	addi	a5,a5,-1
    5cfe:	8e7d                	and	a2,a2,a5
    5d00:	4485                	li	s1,1
    5d02:	b115                	j	5926 <__subdf3+0x2f8>
    5d04:	060e                	slli	a2,a2,0x3
    5d06:	01d71813          	slli	a6,a4,0x1d
    5d0a:	820d                	srli	a2,a2,0x3
    5d0c:	00c86833          	or	a6,a6,a2
    5d10:	00375793          	srli	a5,a4,0x3
    5d14:	b135                	j	5940 <__subdf3+0x312>
    5d16:	00c9e833          	or	a6,s3,a2
    5d1a:	d00806e3          	beqz	a6,5a26 <__subdf3+0x3f8>
    5d1e:	b121                	j	5926 <__subdf3+0x2f8>
    5d20:	fe058813          	addi	a6,a1,-32
    5d24:	02000793          	li	a5,32
    5d28:	010359b3          	srl	s3,t1,a6
    5d2c:	00f58a63          	beq	a1,a5,5d40 <__subdf3+0x712>
    5d30:	04000793          	li	a5,64
    5d34:	40b785b3          	sub	a1,a5,a1
    5d38:	00b31333          	sll	t1,t1,a1
    5d3c:	006f6f33          	or	t5,t5,t1
    5d40:	01e03833          	snez	a6,t5
    5d44:	01386833          	or	a6,a6,s3
    5d48:	b33d                	j	5a76 <__subdf3+0x448>
    5d4a:	4401                	li	s0,0
    5d4c:	7ff00713          	li	a4,2047
    5d50:	000807b7          	lui	a5,0x80
    5d54:	bc35                	j	5790 <__subdf3+0x162>
    5d56:	01df09b3          	add	s3,t5,t4
    5d5a:	00e307b3          	add	a5,t1,a4
    5d5e:	01d9beb3          	sltu	t4,s3,t4
    5d62:	01d78633          	add	a2,a5,t4
    5d66:	bb69                	j	5b00 <__subdf3+0x4d2>

00005d68 <__fixdfsi>:
__fixdfsi():
    5d68:	0145d793          	srli	a5,a1,0x14
    5d6c:	001006b7          	lui	a3,0x100
    5d70:	fff68713          	addi	a4,a3,-1 # fffff <_data_lma+0xf6423>
    5d74:	7ff7f793          	andi	a5,a5,2047
    5d78:	3fe00613          	li	a2,1022
    5d7c:	8f6d                	and	a4,a4,a1
    5d7e:	81fd                	srli	a1,a1,0x1f
    5d80:	00f65c63          	bge	a2,a5,5d98 <__fixdfsi+0x30>
    5d84:	41d00613          	li	a2,1053
    5d88:	00f65a63          	bge	a2,a5,5d9c <__fixdfsi+0x34>
    5d8c:	80000537          	lui	a0,0x80000
    5d90:	fff54513          	not	a0,a0
    5d94:	952e                	add	a0,a0,a1
    5d96:	8082                	ret
    5d98:	4501                	li	a0,0
    5d9a:	8082                	ret
    5d9c:	43300613          	li	a2,1075
    5da0:	8e1d                	sub	a2,a2,a5
    5da2:	487d                	li	a6,31
    5da4:	8f55                	or	a4,a4,a3
    5da6:	00c85d63          	bge	a6,a2,5dc0 <__fixdfsi+0x58>
    5daa:	41300693          	li	a3,1043
    5dae:	40f687b3          	sub	a5,a3,a5
    5db2:	00f757b3          	srl	a5,a4,a5
    5db6:	40f00533          	neg	a0,a5
    5dba:	f1e5                	bnez	a1,5d9a <__fixdfsi+0x32>
    5dbc:	853e                	mv	a0,a5
    5dbe:	8082                	ret
    5dc0:	bed78793          	addi	a5,a5,-1043 # 7fbed <_data_lma+0x76011>
    5dc4:	00f717b3          	sll	a5,a4,a5
    5dc8:	00c55533          	srl	a0,a0,a2
    5dcc:	8fc9                	or	a5,a5,a0
    5dce:	b7e5                	j	5db6 <__fixdfsi+0x4e>

00005dd0 <__floatsidf>:
__floatsidf():
    5dd0:	1141                	addi	sp,sp,-16
    5dd2:	c606                	sw	ra,12(sp)
    5dd4:	c422                	sw	s0,8(sp)
    5dd6:	c226                	sw	s1,4(sp)
    5dd8:	cd05                	beqz	a0,5e10 <__floatsidf+0x40>
    5dda:	41f55793          	srai	a5,a0,0x1f
    5dde:	00a7c4b3          	xor	s1,a5,a0
    5de2:	8c9d                	sub	s1,s1,a5
    5de4:	842a                	mv	s0,a0
    5de6:	8526                	mv	a0,s1
    5de8:	28a1                	jal	5e40 <__clzsi2>
    5dea:	41e00693          	li	a3,1054
    5dee:	8e89                	sub	a3,a3,a0
    5df0:	47a9                	li	a5,10
    5df2:	807d                	srli	s0,s0,0x1f
    5df4:	7ff6f693          	andi	a3,a3,2047
    5df8:	02a7cd63          	blt	a5,a0,5e32 <__floatsidf+0x62>
    5dfc:	472d                	li	a4,11
    5dfe:	8f09                	sub	a4,a4,a0
    5e00:	00e4d7b3          	srl	a5,s1,a4
    5e04:	0555                	addi	a0,a0,21
    5e06:	07b2                	slli	a5,a5,0xc
    5e08:	00a494b3          	sll	s1,s1,a0
    5e0c:	83b1                	srli	a5,a5,0xc
    5e0e:	a029                	j	5e18 <__floatsidf+0x48>
    5e10:	4401                	li	s0,0
    5e12:	4681                	li	a3,0
    5e14:	4781                	li	a5,0
    5e16:	4481                	li	s1,0
    5e18:	07b2                	slli	a5,a5,0xc
    5e1a:	06d2                	slli	a3,a3,0x14
    5e1c:	83b1                	srli	a5,a5,0xc
    5e1e:	047e                	slli	s0,s0,0x1f
    5e20:	8fd5                	or	a5,a5,a3
    5e22:	8fc1                	or	a5,a5,s0
    5e24:	40b2                	lw	ra,12(sp)
    5e26:	4422                	lw	s0,8(sp)
    5e28:	8526                	mv	a0,s1
    5e2a:	85be                	mv	a1,a5
    5e2c:	4492                	lw	s1,4(sp)
    5e2e:	0141                	addi	sp,sp,16
    5e30:	8082                	ret
    5e32:	1555                	addi	a0,a0,-11
    5e34:	00a497b3          	sll	a5,s1,a0
    5e38:	07b2                	slli	a5,a5,0xc
    5e3a:	83b1                	srli	a5,a5,0xc
    5e3c:	4481                	li	s1,0
    5e3e:	bfe9                	j	5e18 <__floatsidf+0x48>

00005e40 <__clzsi2>:
__clzsi2():
    5e40:	67c1                	lui	a5,0x10
    5e42:	02f57e63          	bgeu	a0,a5,5e7e <__clzsi2+0x3e>
    5e46:	0ff00793          	li	a5,255
    5e4a:	02000713          	li	a4,32
    5e4e:	00a7ec63          	bltu	a5,a0,5e66 <__clzsi2+0x26>
    5e52:	00004797          	auipc	a5,0x4
    5e56:	96678793          	addi	a5,a5,-1690 # 97b8 <__clz_tab>
    5e5a:	97aa                	add	a5,a5,a0
    5e5c:	0007c503          	lbu	a0,0(a5)
    5e60:	40a70533          	sub	a0,a4,a0
    5e64:	8082                	ret
    5e66:	8121                	srli	a0,a0,0x8
    5e68:	00004797          	auipc	a5,0x4
    5e6c:	95078793          	addi	a5,a5,-1712 # 97b8 <__clz_tab>
    5e70:	97aa                	add	a5,a5,a0
    5e72:	0007c503          	lbu	a0,0(a5)
    5e76:	4761                	li	a4,24
    5e78:	40a70533          	sub	a0,a4,a0
    5e7c:	8082                	ret
    5e7e:	010007b7          	lui	a5,0x1000
    5e82:	00f56e63          	bltu	a0,a5,5e9e <__clzsi2+0x5e>
    5e86:	8161                	srli	a0,a0,0x18
    5e88:	00004797          	auipc	a5,0x4
    5e8c:	93078793          	addi	a5,a5,-1744 # 97b8 <__clz_tab>
    5e90:	97aa                	add	a5,a5,a0
    5e92:	0007c503          	lbu	a0,0(a5)
    5e96:	4721                	li	a4,8
    5e98:	40a70533          	sub	a0,a4,a0
    5e9c:	8082                	ret
    5e9e:	8141                	srli	a0,a0,0x10
    5ea0:	00004797          	auipc	a5,0x4
    5ea4:	91878793          	addi	a5,a5,-1768 # 97b8 <__clz_tab>
    5ea8:	97aa                	add	a5,a5,a0
    5eaa:	0007c503          	lbu	a0,0(a5)
    5eae:	4741                	li	a4,16
    5eb0:	40a70533          	sub	a0,a4,a0
    5eb4:	8082                	ret

00005eb6 <memcpy>:
memcpy():
    5eb6:	00a5c7b3          	xor	a5,a1,a0
    5eba:	8b8d                	andi	a5,a5,3
    5ebc:	00c50733          	add	a4,a0,a2
    5ec0:	e781                	bnez	a5,5ec8 <memcpy+0x12>
    5ec2:	478d                	li	a5,3
    5ec4:	00c7ee63          	bltu	a5,a2,5ee0 <memcpy+0x2a>
    5ec8:	87aa                	mv	a5,a0
    5eca:	0ae57063          	bgeu	a0,a4,5f6a <memcpy+0xb4>
    5ece:	0005c683          	lbu	a3,0(a1)
    5ed2:	0785                	addi	a5,a5,1
    5ed4:	0585                	addi	a1,a1,1
    5ed6:	fed78fa3          	sb	a3,-1(a5)
    5eda:	fee7eae3          	bltu	a5,a4,5ece <memcpy+0x18>
    5ede:	8082                	ret
    5ee0:	00357693          	andi	a3,a0,3
    5ee4:	87aa                	mv	a5,a0
    5ee6:	ca91                	beqz	a3,5efa <memcpy+0x44>
    5ee8:	0005c683          	lbu	a3,0(a1)
    5eec:	0785                	addi	a5,a5,1
    5eee:	0585                	addi	a1,a1,1
    5ef0:	fed78fa3          	sb	a3,-1(a5)
    5ef4:	0037f693          	andi	a3,a5,3
    5ef8:	b7fd                	j	5ee6 <memcpy+0x30>
    5efa:	ffc77693          	andi	a3,a4,-4
    5efe:	fe068613          	addi	a2,a3,-32
    5f02:	06c7f063          	bgeu	a5,a2,5f62 <memcpy+0xac>
    5f06:	0005a383          	lw	t2,0(a1)
    5f0a:	0045a283          	lw	t0,4(a1)
    5f0e:	0085af83          	lw	t6,8(a1)
    5f12:	00c5af03          	lw	t5,12(a1)
    5f16:	0105ae83          	lw	t4,16(a1)
    5f1a:	0145ae03          	lw	t3,20(a1)
    5f1e:	0185a303          	lw	t1,24(a1)
    5f22:	01c5a883          	lw	a7,28(a1)
    5f26:	02458593          	addi	a1,a1,36
    5f2a:	0077a023          	sw	t2,0(a5)
    5f2e:	ffc5a803          	lw	a6,-4(a1)
    5f32:	0057a223          	sw	t0,4(a5)
    5f36:	01f7a423          	sw	t6,8(a5)
    5f3a:	01e7a623          	sw	t5,12(a5)
    5f3e:	01d7a823          	sw	t4,16(a5)
    5f42:	01c7aa23          	sw	t3,20(a5)
    5f46:	0067ac23          	sw	t1,24(a5)
    5f4a:	0117ae23          	sw	a7,28(a5)
    5f4e:	02478793          	addi	a5,a5,36
    5f52:	ff07ae23          	sw	a6,-4(a5)
    5f56:	b775                	j	5f02 <memcpy+0x4c>
    5f58:	4190                	lw	a2,0(a1)
    5f5a:	0791                	addi	a5,a5,4
    5f5c:	0591                	addi	a1,a1,4
    5f5e:	fec7ae23          	sw	a2,-4(a5)
    5f62:	fed7ebe3          	bltu	a5,a3,5f58 <memcpy+0xa2>
    5f66:	f6e7e4e3          	bltu	a5,a4,5ece <memcpy+0x18>
    5f6a:	8082                	ret

00005f6c <__cvt>:
__cvt():
    5f6c:	7179                	addi	sp,sp,-48
    5f6e:	d422                	sw	s0,40(sp)
    5f70:	d04a                	sw	s2,32(sp)
    5f72:	cc52                	sw	s4,24(sp)
    5f74:	ca56                	sw	s5,20(sp)
    5f76:	c85a                	sw	s6,16(sp)
    5f78:	d606                	sw	ra,44(sp)
    5f7a:	d226                	sw	s1,36(sp)
    5f7c:	ce4e                	sw	s3,28(sp)
    5f7e:	8a3a                	mv	s4,a4
    5f80:	8aae                	mv	s5,a1
    5f82:	8432                	mv	s0,a2
    5f84:	8936                	mv	s2,a3
    5f86:	8b42                	mv	s6,a6
    5f88:	4701                	li	a4,0
    5f8a:	00065863          	bgez	a2,5f9a <__cvt+0x2e>
    5f8e:	80000737          	lui	a4,0x80000
    5f92:	00c74433          	xor	s0,a4,a2
    5f96:	02d00713          	li	a4,45
    5f9a:	00e78023          	sb	a4,0(a5)
    5f9e:	fdf8f493          	andi	s1,a7,-33
    5fa2:	04600793          	li	a5,70
    5fa6:	468d                	li	a3,3
    5fa8:	00f48863          	beq	s1,a5,5fb8 <__cvt+0x4c>
    5fac:	04500793          	li	a5,69
    5fb0:	4689                	li	a3,2
    5fb2:	00f49363          	bne	s1,a5,5fb8 <__cvt+0x4c>
    5fb6:	0905                	addi	s2,s2,1
    5fb8:	87da                	mv	a5,s6
    5fba:	00c10893          	addi	a7,sp,12
    5fbe:	00810813          	addi	a6,sp,8
    5fc2:	874a                	mv	a4,s2
    5fc4:	85d6                	mv	a1,s5
    5fc6:	8622                	mv	a2,s0
    5fc8:	541000ef          	jal	ra,6d08 <_dtoa_r>
    5fcc:	04700793          	li	a5,71
    5fd0:	89aa                	mv	s3,a0
    5fd2:	00f49663          	bne	s1,a5,5fde <__cvt+0x72>
    5fd6:	001a7a13          	andi	s4,s4,1
    5fda:	040a0a63          	beqz	s4,602e <__cvt+0xc2>
    5fde:	04600793          	li	a5,70
    5fe2:	01298a33          	add	s4,s3,s2
    5fe6:	02f49763          	bne	s1,a5,6014 <__cvt+0xa8>
    5fea:	0009c703          	lbu	a4,0(s3)
    5fee:	03000793          	li	a5,48
    5ff2:	00f71e63          	bne	a4,a5,600e <__cvt+0xa2>
    5ff6:	4601                	li	a2,0
    5ff8:	4681                	li	a3,0
    5ffa:	8556                	mv	a0,s5
    5ffc:	85a2                	mv	a1,s0
    5ffe:	858ff0ef          	jal	ra,5056 <__eqdf2>
    6002:	c511                	beqz	a0,600e <__cvt+0xa2>
    6004:	4785                	li	a5,1
    6006:	41278933          	sub	s2,a5,s2
    600a:	012b2023          	sw	s2,0(s6)
    600e:	000b2783          	lw	a5,0(s6)
    6012:	9a3e                	add	s4,s4,a5
    6014:	4601                	li	a2,0
    6016:	4681                	li	a3,0
    6018:	8556                	mv	a0,s5
    601a:	85a2                	mv	a1,s0
    601c:	83aff0ef          	jal	ra,5056 <__eqdf2>
    6020:	e111                	bnez	a0,6024 <__cvt+0xb8>
    6022:	c652                	sw	s4,12(sp)
    6024:	03000713          	li	a4,48
    6028:	47b2                	lw	a5,12(sp)
    602a:	0347e263          	bltu	a5,s4,604e <__cvt+0xe2>
    602e:	47b2                	lw	a5,12(sp)
    6030:	5742                	lw	a4,48(sp)
    6032:	50b2                	lw	ra,44(sp)
    6034:	5422                	lw	s0,40(sp)
    6036:	413787b3          	sub	a5,a5,s3
    603a:	c31c                	sw	a5,0(a4)
    603c:	854e                	mv	a0,s3
    603e:	5492                	lw	s1,36(sp)
    6040:	5902                	lw	s2,32(sp)
    6042:	49f2                	lw	s3,28(sp)
    6044:	4a62                	lw	s4,24(sp)
    6046:	4ad2                	lw	s5,20(sp)
    6048:	4b42                	lw	s6,16(sp)
    604a:	6145                	addi	sp,sp,48
    604c:	8082                	ret
    604e:	00178693          	addi	a3,a5,1
    6052:	c636                	sw	a3,12(sp)
    6054:	00e78023          	sb	a4,0(a5)
    6058:	bfc1                	j	6028 <__cvt+0xbc>

0000605a <__exponent>:
__exponent():
    605a:	00c50023          	sb	a2,0(a0) # 80000000 <_eusrstack+0x5fff0000>
    605e:	00250713          	addi	a4,a0,2
    6062:	02b00793          	li	a5,43
    6066:	0005d663          	bgez	a1,6072 <__exponent+0x18>
    606a:	40b005b3          	neg	a1,a1
    606e:	02d00793          	li	a5,45
    6072:	00f500a3          	sb	a5,1(a0)
    6076:	47a5                	li	a5,9
    6078:	04b7da63          	bge	a5,a1,60cc <__exponent+0x72>
    607c:	1141                	addi	sp,sp,-16
    607e:	00f10793          	addi	a5,sp,15
    6082:	88be                	mv	a7,a5
    6084:	4829                	li	a6,10
    6086:	06300313          	li	t1,99
    608a:	0305e6b3          	rem	a3,a1,a6
    608e:	fff78613          	addi	a2,a5,-1
    6092:	03068693          	addi	a3,a3,48
    6096:	fed78fa3          	sb	a3,-1(a5)
    609a:	0305c6b3          	div	a3,a1,a6
    609e:	00b34d63          	blt	t1,a1,60b8 <__exponent+0x5e>
    60a2:	03068693          	addi	a3,a3,48
    60a6:	17f9                	addi	a5,a5,-2
    60a8:	fed60fa3          	sb	a3,-1(a2) # ff7fffff <_eusrstack+0xdf7effff>
    60ac:	0117e963          	bltu	a5,a7,60be <__exponent+0x64>
    60b0:	40a70533          	sub	a0,a4,a0
    60b4:	0141                	addi	sp,sp,16
    60b6:	8082                	ret
    60b8:	87b2                	mv	a5,a2
    60ba:	85b6                	mv	a1,a3
    60bc:	b7f9                	j	608a <__exponent+0x30>
    60be:	0785                	addi	a5,a5,1
    60c0:	fff7c683          	lbu	a3,-1(a5)
    60c4:	0705                	addi	a4,a4,1
    60c6:	fed70fa3          	sb	a3,-1(a4) # 7fffffff <_eusrstack+0x5ffeffff>
    60ca:	b7cd                	j	60ac <__exponent+0x52>
    60cc:	03000793          	li	a5,48
    60d0:	00450713          	addi	a4,a0,4
    60d4:	03058593          	addi	a1,a1,48
    60d8:	00f50123          	sb	a5,2(a0)
    60dc:	00b501a3          	sb	a1,3(a0)
    60e0:	40a70533          	sub	a0,a4,a0
    60e4:	8082                	ret

000060e6 <_printf_float>:
_printf_float():
    60e6:	7119                	addi	sp,sp,-128
    60e8:	ce3a                	sw	a4,28(sp)
    60ea:	de86                	sw	ra,124(sp)
    60ec:	dca2                	sw	s0,120(sp)
    60ee:	daa6                	sw	s1,116(sp)
    60f0:	842e                	mv	s0,a1
    60f2:	d8ca                	sw	s2,112(sp)
    60f4:	d6ce                	sw	s3,108(sp)
    60f6:	d4d2                	sw	s4,104(sp)
    60f8:	89b6                	mv	s3,a3
    60fa:	d0da                	sw	s6,96(sp)
    60fc:	cede                	sw	s7,92(sp)
    60fe:	cce2                	sw	s8,88(sp)
    6100:	8932                	mv	s2,a2
    6102:	d2d6                	sw	s5,100(sp)
    6104:	cae6                	sw	s9,84(sp)
    6106:	c8ea                	sw	s10,80(sp)
    6108:	c6ee                	sw	s11,76(sp)
    610a:	84aa                	mv	s1,a0
    610c:	3f3010ef          	jal	ra,7cfe <_localeconv_r>
    6110:	00052b83          	lw	s7,0(a0)
    6114:	855e                	mv	a0,s7
    6116:	0cf000ef          	jal	ra,69e4 <strlen>
    611a:	00042b03          	lw	s6,0(s0) # 80000 <_data_lma+0x76424>
    611e:	4772                	lw	a4,28(sp)
    6120:	dc02                	sw	zero,56(sp)
    6122:	100b7693          	andi	a3,s6,256
    6126:	8c2a                	mv	s8,a0
    6128:	01844a03          	lbu	s4,24(s0)
    612c:	431c                	lw	a5,0(a4)
    612e:	caf1                	beqz	a3,6202 <_printf_float+0x11c>
    6130:	00478693          	addi	a3,a5,4
    6134:	c314                	sw	a3,0(a4)
    6136:	439c                	lw	a5,0(a5)
    6138:	1008                	addi	a0,sp,32
    613a:	4398                	lw	a4,0(a5)
    613c:	d03a                	sw	a4,32(sp)
    613e:	43d8                	lw	a4,4(a5)
    6140:	d23a                	sw	a4,36(sp)
    6142:	4798                	lw	a4,8(a5)
    6144:	d43a                	sw	a4,40(sp)
    6146:	47dc                	lw	a5,12(a5)
    6148:	d63e                	sw	a5,44(sp)
    614a:	04a030ef          	jal	ra,9194 <__trunctfdf2>
    614e:	c428                	sw	a0,72(s0)
    6150:	c46c                	sw	a1,76(s0)
    6152:	04c42c83          	lw	s9,76(s0)
    6156:	00003717          	auipc	a4,0x3
    615a:	76270713          	addi	a4,a4,1890 # 98b8 <__clz_tab+0x100>
    615e:	04842a83          	lw	s5,72(s0)
    6162:	00072d03          	lw	s10,0(a4)
    6166:	00472d83          	lw	s11,4(a4)
    616a:	001c9793          	slli	a5,s9,0x1
    616e:	8385                	srli	a5,a5,0x1
    6170:	866a                	mv	a2,s10
    6172:	86ee                	mv	a3,s11
    6174:	8556                	mv	a0,s5
    6176:	85be                	mv	a1,a5
    6178:	ce3e                	sw	a5,28(sp)
    617a:	777020ef          	jal	ra,90f0 <__unorddf2>
    617e:	ed41                	bnez	a0,6216 <_printf_float+0x130>
    6180:	47f2                	lw	a5,28(sp)
    6182:	866a                	mv	a2,s10
    6184:	86ee                	mv	a3,s11
    6186:	8556                	mv	a0,s5
    6188:	85be                	mv	a1,a5
    618a:	f37fe0ef          	jal	ra,50c0 <__ledf2>
    618e:	08a05463          	blez	a0,6216 <_printf_float+0x130>
    6192:	4601                	li	a2,0
    6194:	4681                	li	a3,0
    6196:	8556                	mv	a0,s5
    6198:	85e6                	mv	a1,s9
    619a:	f27fe0ef          	jal	ra,50c0 <__ledf2>
    619e:	00055663          	bgez	a0,61aa <_printf_float+0xc4>
    61a2:	02d00793          	li	a5,45
    61a6:	04f401a3          	sb	a5,67(s0)
    61aa:	04700793          	li	a5,71
    61ae:	00003a97          	auipc	s5,0x3
    61b2:	712a8a93          	addi	s5,s5,1810 # 98c0 <__clz_tab+0x108>
    61b6:	0147f663          	bgeu	a5,s4,61c2 <_printf_float+0xdc>
    61ba:	00003a97          	auipc	s5,0x3
    61be:	70aa8a93          	addi	s5,s5,1802 # 98c4 <__clz_tab+0x10c>
    61c2:	ffbb7b13          	andi	s6,s6,-5
    61c6:	478d                	li	a5,3
    61c8:	01642023          	sw	s6,0(s0)
    61cc:	c81c                	sw	a5,16(s0)
    61ce:	4b01                	li	s6,0
    61d0:	874e                	mv	a4,s3
    61d2:	86ca                	mv	a3,s2
    61d4:	1870                	addi	a2,sp,60
    61d6:	85a2                	mv	a1,s0
    61d8:	8526                	mv	a0,s1
    61da:	2ec1                	jal	65aa <_printf_common>
    61dc:	5cfd                	li	s9,-1
    61de:	15951e63          	bne	a0,s9,633a <_printf_float+0x254>
    61e2:	557d                	li	a0,-1
    61e4:	50f6                	lw	ra,124(sp)
    61e6:	5466                	lw	s0,120(sp)
    61e8:	54d6                	lw	s1,116(sp)
    61ea:	5946                	lw	s2,112(sp)
    61ec:	59b6                	lw	s3,108(sp)
    61ee:	5a26                	lw	s4,104(sp)
    61f0:	5a96                	lw	s5,100(sp)
    61f2:	5b06                	lw	s6,96(sp)
    61f4:	4bf6                	lw	s7,92(sp)
    61f6:	4c66                	lw	s8,88(sp)
    61f8:	4cd6                	lw	s9,84(sp)
    61fa:	4d46                	lw	s10,80(sp)
    61fc:	4db6                	lw	s11,76(sp)
    61fe:	6109                	addi	sp,sp,128
    6200:	8082                	ret
    6202:	079d                	addi	a5,a5,7
    6204:	9be1                	andi	a5,a5,-8
    6206:	00878693          	addi	a3,a5,8
    620a:	c314                	sw	a3,0(a4)
    620c:	4398                	lw	a4,0(a5)
    620e:	43dc                	lw	a5,4(a5)
    6210:	c438                	sw	a4,72(s0)
    6212:	c47c                	sw	a5,76(s0)
    6214:	bf3d                	j	6152 <_printf_float+0x6c>
    6216:	8656                	mv	a2,s5
    6218:	86e6                	mv	a3,s9
    621a:	8556                	mv	a0,s5
    621c:	85e6                	mv	a1,s9
    621e:	6d3020ef          	jal	ra,90f0 <__unorddf2>
    6222:	cd11                	beqz	a0,623e <_printf_float+0x158>
    6224:	04700793          	li	a5,71
    6228:	00003a97          	auipc	s5,0x3
    622c:	6a0a8a93          	addi	s5,s5,1696 # 98c8 <__clz_tab+0x110>
    6230:	f947f9e3          	bgeu	a5,s4,61c2 <_printf_float+0xdc>
    6234:	00003a97          	auipc	s5,0x3
    6238:	698a8a93          	addi	s5,s5,1688 # 98cc <__clz_tab+0x114>
    623c:	b759                	j	61c2 <_printf_float+0xdc>
    623e:	405c                	lw	a5,4(s0)
    6240:	577d                	li	a4,-1
    6242:	0dfa7d13          	andi	s10,s4,223
    6246:	08e79563          	bne	a5,a4,62d0 <_printf_float+0x1ea>
    624a:	4799                	li	a5,6
    624c:	c05c                	sw	a5,4(s0)
    624e:	4054                	lw	a3,4(s0)
    6250:	400b6713          	ori	a4,s6,1024
    6254:	183c                	addi	a5,sp,56
    6256:	85d6                	mv	a1,s5
    6258:	c03e                	sw	a5,0(sp)
    625a:	c018                	sw	a4,0(s0)
    625c:	03310793          	addi	a5,sp,51
    6260:	c202                	sw	zero,4(sp)
    6262:	88d2                	mv	a7,s4
    6264:	03410813          	addi	a6,sp,52
    6268:	8666                	mv	a2,s9
    626a:	8526                	mv	a0,s1
    626c:	d01ff0ef          	jal	ra,5f6c <__cvt>
    6270:	04700793          	li	a5,71
    6274:	8aaa                	mv	s5,a0
    6276:	55d2                	lw	a1,52(sp)
    6278:	00fd1b63          	bne	s10,a5,628e <_printf_float+0x1a8>
    627c:	57f5                	li	a5,-3
    627e:	00f5c563          	blt	a1,a5,6288 <_printf_float+0x1a2>
    6282:	405c                	lw	a5,4(s0)
    6284:	08b7d863          	bge	a5,a1,6314 <_printf_float+0x22e>
    6288:	1a79                	addi	s4,s4,-2
    628a:	0ffa7a13          	andi	s4,s4,255
    628e:	06500793          	li	a5,101
    6292:	0547e663          	bltu	a5,s4,62de <_printf_float+0x1f8>
    6296:	15fd                	addi	a1,a1,-1
    6298:	8652                	mv	a2,s4
    629a:	05040513          	addi	a0,s0,80
    629e:	da2e                	sw	a1,52(sp)
    62a0:	dbbff0ef          	jal	ra,605a <__exponent>
    62a4:	5762                	lw	a4,56(sp)
    62a6:	4685                	li	a3,1
    62a8:	8b2a                	mv	s6,a0
    62aa:	00a707b3          	add	a5,a4,a0
    62ae:	c81c                	sw	a5,16(s0)
    62b0:	00e6c563          	blt	a3,a4,62ba <_printf_float+0x1d4>
    62b4:	4018                	lw	a4,0(s0)
    62b6:	8b05                	andi	a4,a4,1
    62b8:	c319                	beqz	a4,62be <_printf_float+0x1d8>
    62ba:	0785                	addi	a5,a5,1
    62bc:	c81c                	sw	a5,16(s0)
    62be:	03314783          	lbu	a5,51(sp)
    62c2:	f00787e3          	beqz	a5,61d0 <_printf_float+0xea>
    62c6:	02d00793          	li	a5,45
    62ca:	04f401a3          	sb	a5,67(s0)
    62ce:	b709                	j	61d0 <_printf_float+0xea>
    62d0:	04700713          	li	a4,71
    62d4:	f6ed1de3          	bne	s10,a4,624e <_printf_float+0x168>
    62d8:	fbbd                	bnez	a5,624e <_printf_float+0x168>
    62da:	4785                	li	a5,1
    62dc:	bf85                	j	624c <_printf_float+0x166>
    62de:	06600793          	li	a5,102
    62e2:	02fa1b63          	bne	s4,a5,6318 <_printf_float+0x232>
    62e6:	405c                	lw	a5,4(s0)
    62e8:	00b05b63          	blez	a1,62fe <_printf_float+0x218>
    62ec:	c80c                	sw	a1,16(s0)
    62ee:	e781                	bnez	a5,62f6 <_printf_float+0x210>
    62f0:	4018                	lw	a4,0(s0)
    62f2:	8b05                	andi	a4,a4,1
    62f4:	cf09                	beqz	a4,630e <_printf_float+0x228>
    62f6:	0785                	addi	a5,a5,1
    62f8:	97ae                	add	a5,a5,a1
    62fa:	c81c                	sw	a5,16(s0)
    62fc:	a809                	j	630e <_printf_float+0x228>
    62fe:	e789                	bnez	a5,6308 <_printf_float+0x222>
    6300:	4018                	lw	a4,0(s0)
    6302:	4685                	li	a3,1
    6304:	8b05                	andi	a4,a4,1
    6306:	c319                	beqz	a4,630c <_printf_float+0x226>
    6308:	00278693          	addi	a3,a5,2
    630c:	c814                	sw	a3,16(s0)
    630e:	cc2c                	sw	a1,88(s0)
    6310:	4b01                	li	s6,0
    6312:	b775                	j	62be <_printf_float+0x1d8>
    6314:	06700a13          	li	s4,103
    6318:	57e2                	lw	a5,56(sp)
    631a:	00f5c963          	blt	a1,a5,632c <_printf_float+0x246>
    631e:	401c                	lw	a5,0(s0)
    6320:	c80c                	sw	a1,16(s0)
    6322:	8b85                	andi	a5,a5,1
    6324:	d7ed                	beqz	a5,630e <_printf_float+0x228>
    6326:	00158793          	addi	a5,a1,1
    632a:	bfc1                	j	62fa <_printf_float+0x214>
    632c:	4705                	li	a4,1
    632e:	00b04463          	bgtz	a1,6336 <_printf_float+0x250>
    6332:	4709                	li	a4,2
    6334:	8f0d                	sub	a4,a4,a1
    6336:	97ba                	add	a5,a5,a4
    6338:	b7c9                	j	62fa <_printf_float+0x214>
    633a:	401c                	lw	a5,0(s0)
    633c:	4007f713          	andi	a4,a5,1024
    6340:	e315                	bnez	a4,6364 <_printf_float+0x27e>
    6342:	4814                	lw	a3,16(s0)
    6344:	8656                	mv	a2,s5
    6346:	85ca                	mv	a1,s2
    6348:	8526                	mv	a0,s1
    634a:	9982                	jalr	s3
    634c:	e9950be3          	beq	a0,s9,61e2 <_printf_float+0xfc>
    6350:	401c                	lw	a5,0(s0)
    6352:	8b89                	andi	a5,a5,2
    6354:	24079663          	bnez	a5,65a0 <_printf_float+0x4ba>
    6358:	57f2                	lw	a5,60(sp)
    635a:	4448                	lw	a0,12(s0)
    635c:	e8f554e3          	bge	a0,a5,61e4 <_printf_float+0xfe>
    6360:	853e                	mv	a0,a5
    6362:	b549                	j	61e4 <_printf_float+0xfe>
    6364:	06500713          	li	a4,101
    6368:	19477b63          	bgeu	a4,s4,64fe <_printf_float+0x418>
    636c:	4428                	lw	a0,72(s0)
    636e:	446c                	lw	a1,76(s0)
    6370:	4601                	li	a2,0
    6372:	4681                	li	a3,0
    6374:	ce3fe0ef          	jal	ra,5056 <__eqdf2>
    6378:	e939                	bnez	a0,63ce <_printf_float+0x2e8>
    637a:	4685                	li	a3,1
    637c:	00003617          	auipc	a2,0x3
    6380:	55460613          	addi	a2,a2,1364 # 98d0 <__clz_tab+0x118>
    6384:	85ca                	mv	a1,s2
    6386:	8526                	mv	a0,s1
    6388:	9982                	jalr	s3
    638a:	e5950ce3          	beq	a0,s9,61e2 <_printf_float+0xfc>
    638e:	5752                	lw	a4,52(sp)
    6390:	57e2                	lw	a5,56(sp)
    6392:	00f74563          	blt	a4,a5,639c <_printf_float+0x2b6>
    6396:	401c                	lw	a5,0(s0)
    6398:	8b85                	andi	a5,a5,1
    639a:	dbdd                	beqz	a5,6350 <_printf_float+0x26a>
    639c:	86e2                	mv	a3,s8
    639e:	865e                	mv	a2,s7
    63a0:	85ca                	mv	a1,s2
    63a2:	8526                	mv	a0,s1
    63a4:	9982                	jalr	s3
    63a6:	57fd                	li	a5,-1
    63a8:	e2f50de3          	beq	a0,a5,61e2 <_printf_float+0xfc>
    63ac:	4a01                	li	s4,0
    63ae:	01a40a93          	addi	s5,s0,26
    63b2:	5b7d                	li	s6,-1
    63b4:	57e2                	lw	a5,56(sp)
    63b6:	17fd                	addi	a5,a5,-1
    63b8:	f8fa5ce3          	bge	s4,a5,6350 <_printf_float+0x26a>
    63bc:	4685                	li	a3,1
    63be:	8656                	mv	a2,s5
    63c0:	85ca                	mv	a1,s2
    63c2:	8526                	mv	a0,s1
    63c4:	9982                	jalr	s3
    63c6:	e1650ee3          	beq	a0,s6,61e2 <_printf_float+0xfc>
    63ca:	0a05                	addi	s4,s4,1
    63cc:	b7e5                	j	63b4 <_printf_float+0x2ce>
    63ce:	57d2                	lw	a5,52(sp)
    63d0:	06f04663          	bgtz	a5,643c <_printf_float+0x356>
    63d4:	4685                	li	a3,1
    63d6:	00003617          	auipc	a2,0x3
    63da:	4fa60613          	addi	a2,a2,1274 # 98d0 <__clz_tab+0x118>
    63de:	85ca                	mv	a1,s2
    63e0:	8526                	mv	a0,s1
    63e2:	9982                	jalr	s3
    63e4:	df950fe3          	beq	a0,s9,61e2 <_printf_float+0xfc>
    63e8:	57d2                	lw	a5,52(sp)
    63ea:	5762                	lw	a4,56(sp)
    63ec:	8fd9                	or	a5,a5,a4
    63ee:	e781                	bnez	a5,63f6 <_printf_float+0x310>
    63f0:	401c                	lw	a5,0(s0)
    63f2:	8b85                	andi	a5,a5,1
    63f4:	dfb1                	beqz	a5,6350 <_printf_float+0x26a>
    63f6:	86e2                	mv	a3,s8
    63f8:	865e                	mv	a2,s7
    63fa:	85ca                	mv	a1,s2
    63fc:	8526                	mv	a0,s1
    63fe:	9982                	jalr	s3
    6400:	57fd                	li	a5,-1
    6402:	def500e3          	beq	a0,a5,61e2 <_printf_float+0xfc>
    6406:	4a01                	li	s4,0
    6408:	01a40b13          	addi	s6,s0,26
    640c:	5bfd                	li	s7,-1
    640e:	57d2                	lw	a5,52(sp)
    6410:	40f007b3          	neg	a5,a5
    6414:	00fa4b63          	blt	s4,a5,642a <_printf_float+0x344>
    6418:	56e2                	lw	a3,56(sp)
    641a:	8656                	mv	a2,s5
    641c:	85ca                	mv	a1,s2
    641e:	8526                	mv	a0,s1
    6420:	9982                	jalr	s3
    6422:	57fd                	li	a5,-1
    6424:	f2f516e3          	bne	a0,a5,6350 <_printf_float+0x26a>
    6428:	bb6d                	j	61e2 <_printf_float+0xfc>
    642a:	4685                	li	a3,1
    642c:	865a                	mv	a2,s6
    642e:	85ca                	mv	a1,s2
    6430:	8526                	mv	a0,s1
    6432:	9982                	jalr	s3
    6434:	db7507e3          	beq	a0,s7,61e2 <_printf_float+0xfc>
    6438:	0a05                	addi	s4,s4,1
    643a:	bfd1                	j	640e <_printf_float+0x328>
    643c:	4c3c                	lw	a5,88(s0)
    643e:	5a62                	lw	s4,56(sp)
    6440:	0147d363          	bge	a5,s4,6446 <_printf_float+0x360>
    6444:	8a3e                	mv	s4,a5
    6446:	01405a63          	blez	s4,645a <_printf_float+0x374>
    644a:	86d2                	mv	a3,s4
    644c:	8656                	mv	a2,s5
    644e:	85ca                	mv	a1,s2
    6450:	8526                	mv	a0,s1
    6452:	9982                	jalr	s3
    6454:	57fd                	li	a5,-1
    6456:	d8f506e3          	beq	a0,a5,61e2 <_printf_float+0xfc>
    645a:	4c81                	li	s9,0
    645c:	01a40d13          	addi	s10,s0,26
    6460:	5dfd                	li	s11,-1
    6462:	a809                	j	6474 <_printf_float+0x38e>
    6464:	4685                	li	a3,1
    6466:	866a                	mv	a2,s10
    6468:	85ca                	mv	a1,s2
    646a:	8526                	mv	a0,s1
    646c:	9982                	jalr	s3
    646e:	d7b50ae3          	beq	a0,s11,61e2 <_printf_float+0xfc>
    6472:	0c85                	addi	s9,s9,1
    6474:	05842b03          	lw	s6,88(s0)
    6478:	87d2                	mv	a5,s4
    647a:	000a5363          	bgez	s4,6480 <_printf_float+0x39a>
    647e:	4781                	li	a5,0
    6480:	40fb07b3          	sub	a5,s6,a5
    6484:	fefcc0e3          	blt	s9,a5,6464 <_printf_float+0x37e>
    6488:	5752                	lw	a4,52(sp)
    648a:	57e2                	lw	a5,56(sp)
    648c:	02f74d63          	blt	a4,a5,64c6 <_printf_float+0x3e0>
    6490:	401c                	lw	a5,0(s0)
    6492:	8b85                	andi	a5,a5,1
    6494:	eb8d                	bnez	a5,64c6 <_printf_float+0x3e0>
    6496:	57e2                	lw	a5,56(sp)
    6498:	5752                	lw	a4,52(sp)
    649a:	40e78a33          	sub	s4,a5,a4
    649e:	00eb4463          	blt	s6,a4,64a6 <_printf_float+0x3c0>
    64a2:	41678a33          	sub	s4,a5,s6
    64a6:	01405b63          	blez	s4,64bc <_printf_float+0x3d6>
    64aa:	86d2                	mv	a3,s4
    64ac:	016a8633          	add	a2,s5,s6
    64b0:	85ca                	mv	a1,s2
    64b2:	8526                	mv	a0,s1
    64b4:	9982                	jalr	s3
    64b6:	57fd                	li	a5,-1
    64b8:	d2f505e3          	beq	a0,a5,61e2 <_printf_float+0xfc>
    64bc:	4a81                	li	s5,0
    64be:	01a40b13          	addi	s6,s0,26
    64c2:	5bfd                	li	s7,-1
    64c4:	a015                	j	64e8 <_printf_float+0x402>
    64c6:	86e2                	mv	a3,s8
    64c8:	865e                	mv	a2,s7
    64ca:	85ca                	mv	a1,s2
    64cc:	8526                	mv	a0,s1
    64ce:	9982                	jalr	s3
    64d0:	57fd                	li	a5,-1
    64d2:	fcf512e3          	bne	a0,a5,6496 <_printf_float+0x3b0>
    64d6:	b331                	j	61e2 <_printf_float+0xfc>
    64d8:	4685                	li	a3,1
    64da:	865a                	mv	a2,s6
    64dc:	85ca                	mv	a1,s2
    64de:	8526                	mv	a0,s1
    64e0:	9982                	jalr	s3
    64e2:	d17500e3          	beq	a0,s7,61e2 <_printf_float+0xfc>
    64e6:	0a85                	addi	s5,s5,1
    64e8:	5752                	lw	a4,52(sp)
    64ea:	57e2                	lw	a5,56(sp)
    64ec:	8f99                	sub	a5,a5,a4
    64ee:	8752                	mv	a4,s4
    64f0:	000a5363          	bgez	s4,64f6 <_printf_float+0x410>
    64f4:	4701                	li	a4,0
    64f6:	8f99                	sub	a5,a5,a4
    64f8:	fefac0e3          	blt	s5,a5,64d8 <_printf_float+0x3f2>
    64fc:	bd91                	j	6350 <_printf_float+0x26a>
    64fe:	56e2                	lw	a3,56(sp)
    6500:	4705                	li	a4,1
    6502:	00d74463          	blt	a4,a3,650a <_printf_float+0x424>
    6506:	8b85                	andi	a5,a5,1
    6508:	c7b5                	beqz	a5,6574 <_printf_float+0x48e>
    650a:	4685                	li	a3,1
    650c:	8656                	mv	a2,s5
    650e:	85ca                	mv	a1,s2
    6510:	8526                	mv	a0,s1
    6512:	9982                	jalr	s3
    6514:	5a7d                	li	s4,-1
    6516:	cd4506e3          	beq	a0,s4,61e2 <_printf_float+0xfc>
    651a:	86e2                	mv	a3,s8
    651c:	865e                	mv	a2,s7
    651e:	85ca                	mv	a1,s2
    6520:	8526                	mv	a0,s1
    6522:	9982                	jalr	s3
    6524:	cb450fe3          	beq	a0,s4,61e2 <_printf_float+0xfc>
    6528:	4428                	lw	a0,72(s0)
    652a:	446c                	lw	a1,76(s0)
    652c:	4601                	li	a2,0
    652e:	4681                	li	a3,0
    6530:	b27fe0ef          	jal	ra,5056 <__eqdf2>
    6534:	c91d                	beqz	a0,656a <_printf_float+0x484>
    6536:	56e2                	lw	a3,56(sp)
    6538:	001a8613          	addi	a2,s5,1
    653c:	85ca                	mv	a1,s2
    653e:	16fd                	addi	a3,a3,-1
    6540:	8526                	mv	a0,s1
    6542:	9982                	jalr	s3
    6544:	c9450fe3          	beq	a0,s4,61e2 <_printf_float+0xfc>
    6548:	86da                	mv	a3,s6
    654a:	05040613          	addi	a2,s0,80
    654e:	b5f9                	j	641c <_printf_float+0x336>
    6550:	4685                	li	a3,1
    6552:	8656                	mv	a2,s5
    6554:	85ca                	mv	a1,s2
    6556:	8526                	mv	a0,s1
    6558:	9982                	jalr	s3
    655a:	c97504e3          	beq	a0,s7,61e2 <_printf_float+0xfc>
    655e:	0a05                	addi	s4,s4,1
    6560:	57e2                	lw	a5,56(sp)
    6562:	17fd                	addi	a5,a5,-1
    6564:	fefa46e3          	blt	s4,a5,6550 <_printf_float+0x46a>
    6568:	b7c5                	j	6548 <_printf_float+0x462>
    656a:	4a01                	li	s4,0
    656c:	01a40a93          	addi	s5,s0,26
    6570:	5bfd                	li	s7,-1
    6572:	b7fd                	j	6560 <_printf_float+0x47a>
    6574:	4685                	li	a3,1
    6576:	8656                	mv	a2,s5
    6578:	85ca                	mv	a1,s2
    657a:	8526                	mv	a0,s1
    657c:	9982                	jalr	s3
    657e:	fd9515e3          	bne	a0,s9,6548 <_printf_float+0x462>
    6582:	b185                	j	61e2 <_printf_float+0xfc>
    6584:	4685                	li	a3,1
    6586:	8656                	mv	a2,s5
    6588:	85ca                	mv	a1,s2
    658a:	8526                	mv	a0,s1
    658c:	9982                	jalr	s3
    658e:	c5650ae3          	beq	a0,s6,61e2 <_printf_float+0xfc>
    6592:	0a05                	addi	s4,s4,1
    6594:	445c                	lw	a5,12(s0)
    6596:	5772                	lw	a4,60(sp)
    6598:	8f99                	sub	a5,a5,a4
    659a:	fefa45e3          	blt	s4,a5,6584 <_printf_float+0x49e>
    659e:	bb6d                	j	6358 <_printf_float+0x272>
    65a0:	4a01                	li	s4,0
    65a2:	01940a93          	addi	s5,s0,25
    65a6:	5b7d                	li	s6,-1
    65a8:	b7f5                	j	6594 <_printf_float+0x4ae>

000065aa <_printf_common>:
_printf_common():
    65aa:	7179                	addi	sp,sp,-48
    65ac:	ca56                	sw	s5,20(sp)
    65ae:	499c                	lw	a5,16(a1)
    65b0:	8aba                	mv	s5,a4
    65b2:	4598                	lw	a4,8(a1)
    65b4:	d422                	sw	s0,40(sp)
    65b6:	d226                	sw	s1,36(sp)
    65b8:	ce4e                	sw	s3,28(sp)
    65ba:	cc52                	sw	s4,24(sp)
    65bc:	d606                	sw	ra,44(sp)
    65be:	d04a                	sw	s2,32(sp)
    65c0:	c85a                	sw	s6,16(sp)
    65c2:	c65e                	sw	s7,12(sp)
    65c4:	89aa                	mv	s3,a0
    65c6:	842e                	mv	s0,a1
    65c8:	84b2                	mv	s1,a2
    65ca:	8a36                	mv	s4,a3
    65cc:	00e7d363          	bge	a5,a4,65d2 <_printf_common+0x28>
    65d0:	87ba                	mv	a5,a4
    65d2:	c09c                	sw	a5,0(s1)
    65d4:	04344703          	lbu	a4,67(s0)
    65d8:	c319                	beqz	a4,65de <_printf_common+0x34>
    65da:	0785                	addi	a5,a5,1
    65dc:	c09c                	sw	a5,0(s1)
    65de:	401c                	lw	a5,0(s0)
    65e0:	0207f793          	andi	a5,a5,32
    65e4:	c781                	beqz	a5,65ec <_printf_common+0x42>
    65e6:	409c                	lw	a5,0(s1)
    65e8:	0789                	addi	a5,a5,2
    65ea:	c09c                	sw	a5,0(s1)
    65ec:	00042903          	lw	s2,0(s0)
    65f0:	00697913          	andi	s2,s2,6
    65f4:	00091a63          	bnez	s2,6608 <_printf_common+0x5e>
    65f8:	01940b13          	addi	s6,s0,25
    65fc:	5bfd                	li	s7,-1
    65fe:	445c                	lw	a5,12(s0)
    6600:	4098                	lw	a4,0(s1)
    6602:	8f99                	sub	a5,a5,a4
    6604:	04f94c63          	blt	s2,a5,665c <_printf_common+0xb2>
    6608:	401c                	lw	a5,0(s0)
    660a:	04344683          	lbu	a3,67(s0)
    660e:	0207f793          	andi	a5,a5,32
    6612:	00d036b3          	snez	a3,a3
    6616:	eba5                	bnez	a5,6686 <_printf_common+0xdc>
    6618:	04340613          	addi	a2,s0,67
    661c:	85d2                	mv	a1,s4
    661e:	854e                	mv	a0,s3
    6620:	9a82                	jalr	s5
    6622:	57fd                	li	a5,-1
    6624:	04f50363          	beq	a0,a5,666a <_printf_common+0xc0>
    6628:	401c                	lw	a5,0(s0)
    662a:	4611                	li	a2,4
    662c:	4098                	lw	a4,0(s1)
    662e:	8b99                	andi	a5,a5,6
    6630:	4454                	lw	a3,12(s0)
    6632:	4481                	li	s1,0
    6634:	00c79763          	bne	a5,a2,6642 <_printf_common+0x98>
    6638:	40e684b3          	sub	s1,a3,a4
    663c:	0004d363          	bgez	s1,6642 <_printf_common+0x98>
    6640:	4481                	li	s1,0
    6642:	441c                	lw	a5,8(s0)
    6644:	4818                	lw	a4,16(s0)
    6646:	00f75463          	bge	a4,a5,664e <_printf_common+0xa4>
    664a:	8f99                	sub	a5,a5,a4
    664c:	94be                	add	s1,s1,a5
    664e:	4901                	li	s2,0
    6650:	0469                	addi	s0,s0,26
    6652:	5b7d                	li	s6,-1
    6654:	05249863          	bne	s1,s2,66a4 <_printf_common+0xfa>
    6658:	4501                	li	a0,0
    665a:	a809                	j	666c <_printf_common+0xc2>
    665c:	4685                	li	a3,1
    665e:	865a                	mv	a2,s6
    6660:	85d2                	mv	a1,s4
    6662:	854e                	mv	a0,s3
    6664:	9a82                	jalr	s5
    6666:	01751e63          	bne	a0,s7,6682 <_printf_common+0xd8>
    666a:	557d                	li	a0,-1
    666c:	50b2                	lw	ra,44(sp)
    666e:	5422                	lw	s0,40(sp)
    6670:	5492                	lw	s1,36(sp)
    6672:	5902                	lw	s2,32(sp)
    6674:	49f2                	lw	s3,28(sp)
    6676:	4a62                	lw	s4,24(sp)
    6678:	4ad2                	lw	s5,20(sp)
    667a:	4b42                	lw	s6,16(sp)
    667c:	4bb2                	lw	s7,12(sp)
    667e:	6145                	addi	sp,sp,48
    6680:	8082                	ret
    6682:	0905                	addi	s2,s2,1
    6684:	bfad                	j	65fe <_printf_common+0x54>
    6686:	00d40733          	add	a4,s0,a3
    668a:	03000613          	li	a2,48
    668e:	04c701a3          	sb	a2,67(a4)
    6692:	04544703          	lbu	a4,69(s0)
    6696:	00168793          	addi	a5,a3,1
    669a:	97a2                	add	a5,a5,s0
    669c:	0689                	addi	a3,a3,2
    669e:	04e781a3          	sb	a4,67(a5)
    66a2:	bf9d                	j	6618 <_printf_common+0x6e>
    66a4:	4685                	li	a3,1
    66a6:	8622                	mv	a2,s0
    66a8:	85d2                	mv	a1,s4
    66aa:	854e                	mv	a0,s3
    66ac:	9a82                	jalr	s5
    66ae:	fb650ee3          	beq	a0,s6,666a <_printf_common+0xc0>
    66b2:	0905                	addi	s2,s2,1
    66b4:	b745                	j	6654 <_printf_common+0xaa>

000066b6 <_printf_i>:
_printf_i():
    66b6:	7179                	addi	sp,sp,-48
    66b8:	d422                	sw	s0,40(sp)
    66ba:	d226                	sw	s1,36(sp)
    66bc:	d04a                	sw	s2,32(sp)
    66be:	ce4e                	sw	s3,28(sp)
    66c0:	d606                	sw	ra,44(sp)
    66c2:	cc52                	sw	s4,24(sp)
    66c4:	ca56                	sw	s5,20(sp)
    66c6:	c85a                	sw	s6,16(sp)
    66c8:	89b6                	mv	s3,a3
    66ca:	0185c683          	lbu	a3,24(a1)
    66ce:	06e00793          	li	a5,110
    66d2:	8932                	mv	s2,a2
    66d4:	84aa                	mv	s1,a0
    66d6:	842e                	mv	s0,a1
    66d8:	04358613          	addi	a2,a1,67
    66dc:	1ef68163          	beq	a3,a5,68be <_printf_i+0x208>
    66e0:	06d7e263          	bltu	a5,a3,6744 <_printf_i+0x8e>
    66e4:	06300793          	li	a5,99
    66e8:	0af68263          	beq	a3,a5,678c <_printf_i+0xd6>
    66ec:	00d7ed63          	bltu	a5,a3,6706 <_printf_i+0x50>
    66f0:	1e068b63          	beqz	a3,68e6 <_printf_i+0x230>
    66f4:	05800793          	li	a5,88
    66f8:	16f68763          	beq	a3,a5,6866 <_printf_i+0x1b0>
    66fc:	04240a93          	addi	s5,s0,66
    6700:	04d40123          	sb	a3,66(s0)
    6704:	a869                	j	679e <_printf_i+0xe8>
    6706:	06400793          	li	a5,100
    670a:	00f68663          	beq	a3,a5,6716 <_printf_i+0x60>
    670e:	06900793          	li	a5,105
    6712:	fef695e3          	bne	a3,a5,66fc <_printf_i+0x46>
    6716:	401c                	lw	a5,0(s0)
    6718:	4308                	lw	a0,0(a4)
    671a:	0807f693          	andi	a3,a5,128
    671e:	00450593          	addi	a1,a0,4
    6722:	c2c1                	beqz	a3,67a2 <_printf_i+0xec>
    6724:	411c                	lw	a5,0(a0)
    6726:	c30c                	sw	a1,0(a4)
    6728:	0007d863          	bgez	a5,6738 <_printf_i+0x82>
    672c:	02d00713          	li	a4,45
    6730:	40f007b3          	neg	a5,a5
    6734:	04e401a3          	sb	a4,67(s0)
    6738:	00003697          	auipc	a3,0x3
    673c:	19c68693          	addi	a3,a3,412 # 98d4 <__clz_tab+0x11c>
    6740:	4729                	li	a4,10
    6742:	a065                	j	67ea <_printf_i+0x134>
    6744:	07300793          	li	a5,115
    6748:	1af68363          	beq	a3,a5,68ee <_printf_i+0x238>
    674c:	00d7ef63          	bltu	a5,a3,676a <_printf_i+0xb4>
    6750:	06f00793          	li	a5,111
    6754:	04f68f63          	beq	a3,a5,67b2 <_printf_i+0xfc>
    6758:	07000793          	li	a5,112
    675c:	faf690e3          	bne	a3,a5,66fc <_printf_i+0x46>
    6760:	419c                	lw	a5,0(a1)
    6762:	0207e793          	ori	a5,a5,32
    6766:	c19c                	sw	a5,0(a1)
    6768:	a809                	j	677a <_printf_i+0xc4>
    676a:	07500793          	li	a5,117
    676e:	04f68263          	beq	a3,a5,67b2 <_printf_i+0xfc>
    6772:	07800793          	li	a5,120
    6776:	f8f693e3          	bne	a3,a5,66fc <_printf_i+0x46>
    677a:	07800793          	li	a5,120
    677e:	04f402a3          	sb	a5,69(s0)
    6782:	00003697          	auipc	a3,0x3
    6786:	16668693          	addi	a3,a3,358 # 98e8 <__clz_tab+0x130>
    678a:	a0e5                	j	6872 <_printf_i+0x1bc>
    678c:	431c                	lw	a5,0(a4)
    678e:	04258a93          	addi	s5,a1,66
    6792:	00478693          	addi	a3,a5,4
    6796:	439c                	lw	a5,0(a5)
    6798:	c314                	sw	a3,0(a4)
    679a:	04f58123          	sb	a5,66(a1)
    679e:	4785                	li	a5,1
    67a0:	a2bd                	j	690e <_printf_i+0x258>
    67a2:	0407f693          	andi	a3,a5,64
    67a6:	411c                	lw	a5,0(a0)
    67a8:	c30c                	sw	a1,0(a4)
    67aa:	debd                	beqz	a3,6728 <_printf_i+0x72>
    67ac:	07c2                	slli	a5,a5,0x10
    67ae:	87c1                	srai	a5,a5,0x10
    67b0:	bfa5                	j	6728 <_printf_i+0x72>
    67b2:	400c                	lw	a1,0(s0)
    67b4:	431c                	lw	a5,0(a4)
    67b6:	0805f813          	andi	a6,a1,128
    67ba:	00478513          	addi	a0,a5,4
    67be:	00080563          	beqz	a6,67c8 <_printf_i+0x112>
    67c2:	c308                	sw	a0,0(a4)
    67c4:	439c                	lw	a5,0(a5)
    67c6:	a039                	j	67d4 <_printf_i+0x11e>
    67c8:	0405f593          	andi	a1,a1,64
    67cc:	c308                	sw	a0,0(a4)
    67ce:	d9fd                	beqz	a1,67c4 <_printf_i+0x10e>
    67d0:	0007d783          	lhu	a5,0(a5)
    67d4:	06f00713          	li	a4,111
    67d8:	0ce68b63          	beq	a3,a4,68ae <_printf_i+0x1f8>
    67dc:	00003697          	auipc	a3,0x3
    67e0:	0f868693          	addi	a3,a3,248 # 98d4 <__clz_tab+0x11c>
    67e4:	4729                	li	a4,10
    67e6:	040401a3          	sb	zero,67(s0)
    67ea:	404c                	lw	a1,4(s0)
    67ec:	c40c                	sw	a1,8(s0)
    67ee:	0005c563          	bltz	a1,67f8 <_printf_i+0x142>
    67f2:	4008                	lw	a0,0(s0)
    67f4:	996d                	andi	a0,a0,-5
    67f6:	c008                	sw	a0,0(s0)
    67f8:	e399                	bnez	a5,67fe <_printf_i+0x148>
    67fa:	8ab2                	mv	s5,a2
    67fc:	cd91                	beqz	a1,6818 <_printf_i+0x162>
    67fe:	8ab2                	mv	s5,a2
    6800:	02e7f5b3          	remu	a1,a5,a4
    6804:	1afd                	addi	s5,s5,-1
    6806:	95b6                	add	a1,a1,a3
    6808:	0005c583          	lbu	a1,0(a1)
    680c:	00ba8023          	sb	a1,0(s5)
    6810:	02e7d5b3          	divu	a1,a5,a4
    6814:	0ae7f363          	bgeu	a5,a4,68ba <_printf_i+0x204>
    6818:	47a1                	li	a5,8
    681a:	00f71e63          	bne	a4,a5,6836 <_printf_i+0x180>
    681e:	401c                	lw	a5,0(s0)
    6820:	8b85                	andi	a5,a5,1
    6822:	cb91                	beqz	a5,6836 <_printf_i+0x180>
    6824:	4058                	lw	a4,4(s0)
    6826:	481c                	lw	a5,16(s0)
    6828:	00e7c763          	blt	a5,a4,6836 <_printf_i+0x180>
    682c:	03000793          	li	a5,48
    6830:	fefa8fa3          	sb	a5,-1(s5)
    6834:	1afd                	addi	s5,s5,-1
    6836:	41560633          	sub	a2,a2,s5
    683a:	c810                	sw	a2,16(s0)
    683c:	874e                	mv	a4,s3
    683e:	86ca                	mv	a3,s2
    6840:	0070                	addi	a2,sp,12
    6842:	85a2                	mv	a1,s0
    6844:	8526                	mv	a0,s1
    6846:	d65ff0ef          	jal	ra,65aa <_printf_common>
    684a:	5a7d                	li	s4,-1
    684c:	0d451563          	bne	a0,s4,6916 <_printf_i+0x260>
    6850:	557d                	li	a0,-1
    6852:	50b2                	lw	ra,44(sp)
    6854:	5422                	lw	s0,40(sp)
    6856:	5492                	lw	s1,36(sp)
    6858:	5902                	lw	s2,32(sp)
    685a:	49f2                	lw	s3,28(sp)
    685c:	4a62                	lw	s4,24(sp)
    685e:	4ad2                	lw	s5,20(sp)
    6860:	4b42                	lw	s6,16(sp)
    6862:	6145                	addi	sp,sp,48
    6864:	8082                	ret
    6866:	04d582a3          	sb	a3,69(a1)
    686a:	00003697          	auipc	a3,0x3
    686e:	06a68693          	addi	a3,a3,106 # 98d4 <__clz_tab+0x11c>
    6872:	400c                	lw	a1,0(s0)
    6874:	4308                	lw	a0,0(a4)
    6876:	0805f813          	andi	a6,a1,128
    687a:	411c                	lw	a5,0(a0)
    687c:	0511                	addi	a0,a0,4
    687e:	02080063          	beqz	a6,689e <_printf_i+0x1e8>
    6882:	c308                	sw	a0,0(a4)
    6884:	0015f713          	andi	a4,a1,1
    6888:	c701                	beqz	a4,6890 <_printf_i+0x1da>
    688a:	0205e593          	ori	a1,a1,32
    688e:	c00c                	sw	a1,0(s0)
    6890:	4741                	li	a4,16
    6892:	fbb1                	bnez	a5,67e6 <_printf_i+0x130>
    6894:	400c                	lw	a1,0(s0)
    6896:	fdf5f593          	andi	a1,a1,-33
    689a:	c00c                	sw	a1,0(s0)
    689c:	b7a9                	j	67e6 <_printf_i+0x130>
    689e:	0405f813          	andi	a6,a1,64
    68a2:	c308                	sw	a0,0(a4)
    68a4:	fe0800e3          	beqz	a6,6884 <_printf_i+0x1ce>
    68a8:	07c2                	slli	a5,a5,0x10
    68aa:	83c1                	srli	a5,a5,0x10
    68ac:	bfe1                	j	6884 <_printf_i+0x1ce>
    68ae:	00003697          	auipc	a3,0x3
    68b2:	02668693          	addi	a3,a3,38 # 98d4 <__clz_tab+0x11c>
    68b6:	4721                	li	a4,8
    68b8:	b73d                	j	67e6 <_printf_i+0x130>
    68ba:	87ae                	mv	a5,a1
    68bc:	b791                	j	6800 <_printf_i+0x14a>
    68be:	4194                	lw	a3,0(a1)
    68c0:	431c                	lw	a5,0(a4)
    68c2:	49cc                	lw	a1,20(a1)
    68c4:	0806f813          	andi	a6,a3,128
    68c8:	00478513          	addi	a0,a5,4
    68cc:	00080663          	beqz	a6,68d8 <_printf_i+0x222>
    68d0:	c308                	sw	a0,0(a4)
    68d2:	439c                	lw	a5,0(a5)
    68d4:	c38c                	sw	a1,0(a5)
    68d6:	a801                	j	68e6 <_printf_i+0x230>
    68d8:	c308                	sw	a0,0(a4)
    68da:	0406f693          	andi	a3,a3,64
    68de:	439c                	lw	a5,0(a5)
    68e0:	daf5                	beqz	a3,68d4 <_printf_i+0x21e>
    68e2:	00b79023          	sh	a1,0(a5)
    68e6:	00042823          	sw	zero,16(s0)
    68ea:	8ab2                	mv	s5,a2
    68ec:	bf81                	j	683c <_printf_i+0x186>
    68ee:	431c                	lw	a5,0(a4)
    68f0:	41d0                	lw	a2,4(a1)
    68f2:	4581                	li	a1,0
    68f4:	00478693          	addi	a3,a5,4
    68f8:	c314                	sw	a3,0(a4)
    68fa:	0007aa83          	lw	s5,0(a5)
    68fe:	8556                	mv	a0,s5
    6900:	51e010ef          	jal	ra,7e1e <memchr>
    6904:	c501                	beqz	a0,690c <_printf_i+0x256>
    6906:	41550533          	sub	a0,a0,s5
    690a:	c048                	sw	a0,4(s0)
    690c:	405c                	lw	a5,4(s0)
    690e:	c81c                	sw	a5,16(s0)
    6910:	040401a3          	sb	zero,67(s0)
    6914:	b725                	j	683c <_printf_i+0x186>
    6916:	4814                	lw	a3,16(s0)
    6918:	8656                	mv	a2,s5
    691a:	85ca                	mv	a1,s2
    691c:	8526                	mv	a0,s1
    691e:	9982                	jalr	s3
    6920:	f34508e3          	beq	a0,s4,6850 <_printf_i+0x19a>
    6924:	401c                	lw	a5,0(s0)
    6926:	8b89                	andi	a5,a5,2
    6928:	e78d                	bnez	a5,6952 <_printf_i+0x29c>
    692a:	47b2                	lw	a5,12(sp)
    692c:	4448                	lw	a0,12(s0)
    692e:	f2f552e3          	bge	a0,a5,6852 <_printf_i+0x19c>
    6932:	853e                	mv	a0,a5
    6934:	bf39                	j	6852 <_printf_i+0x19c>
    6936:	4685                	li	a3,1
    6938:	8656                	mv	a2,s5
    693a:	85ca                	mv	a1,s2
    693c:	8526                	mv	a0,s1
    693e:	9982                	jalr	s3
    6940:	f16508e3          	beq	a0,s6,6850 <_printf_i+0x19a>
    6944:	0a05                	addi	s4,s4,1
    6946:	445c                	lw	a5,12(s0)
    6948:	4732                	lw	a4,12(sp)
    694a:	8f99                	sub	a5,a5,a4
    694c:	fefa45e3          	blt	s4,a5,6936 <_printf_i+0x280>
    6950:	bfe9                	j	692a <_printf_i+0x274>
    6952:	4a01                	li	s4,0
    6954:	01940a93          	addi	s5,s0,25
    6958:	5b7d                	li	s6,-1
    695a:	b7f5                	j	6946 <_printf_i+0x290>

0000695c <iprintf>:
printf():
    695c:	7139                	addi	sp,sp,-64
    695e:	da3e                	sw	a5,52(sp)
    6960:	d22e                	sw	a1,36(sp)
    6962:	d432                	sw	a2,40(sp)
    6964:	d636                	sw	a3,44(sp)
    6966:	d83a                	sw	a4,48(sp)
    6968:	dc42                	sw	a6,56(sp)
    696a:	de46                	sw	a7,60(sp)
    696c:	81418793          	addi	a5,gp,-2028 # 20000244 <_impure_ptr>
    6970:	cc22                	sw	s0,24(sp)
    6972:	4380                	lw	s0,0(a5)
    6974:	ca26                	sw	s1,20(sp)
    6976:	ce06                	sw	ra,28(sp)
    6978:	84aa                	mv	s1,a0
    697a:	c411                	beqz	s0,6986 <iprintf+0x2a>
    697c:	4c1c                	lw	a5,24(s0)
    697e:	e781                	bnez	a5,6986 <iprintf+0x2a>
    6980:	8522                	mv	a0,s0
    6982:	204010ef          	jal	ra,7b86 <__sinit>
    6986:	440c                	lw	a1,8(s0)
    6988:	1054                	addi	a3,sp,36
    698a:	8626                	mv	a2,s1
    698c:	8522                	mv	a0,s0
    698e:	c636                	sw	a3,12(sp)
    6990:	11c020ef          	jal	ra,8aac <_vfiprintf_r>
    6994:	40f2                	lw	ra,28(sp)
    6996:	4462                	lw	s0,24(sp)
    6998:	44d2                	lw	s1,20(sp)
    699a:	6121                	addi	sp,sp,64
    699c:	8082                	ret

0000699e <siprintf>:
sprintf():
    699e:	7135                	addi	sp,sp,-160
    69a0:	cb3e                	sw	a5,148(sp)
    69a2:	800007b7          	lui	a5,0x80000
    69a6:	fff7c793          	not	a5,a5
    69aa:	ce3e                	sw	a5,28(sp)
    69ac:	c83e                	sw	a5,16(sp)
    69ae:	77c1                	lui	a5,0xffff0
    69b0:	20878793          	addi	a5,a5,520 # ffff0208 <_eusrstack+0xdffe0208>
    69b4:	c532                	sw	a2,136(sp)
    69b6:	c736                	sw	a3,140(sp)
    69b8:	c93a                	sw	a4,144(sp)
    69ba:	cd42                	sw	a6,152(sp)
    69bc:	cf46                	sw	a7,156(sp)
    69be:	ca3e                	sw	a5,20(sp)
    69c0:	81418793          	addi	a5,gp,-2028 # 20000244 <_impure_ptr>
    69c4:	c42a                	sw	a0,8(sp)
    69c6:	cc2a                	sw	a0,24(sp)
    69c8:	4388                	lw	a0,0(a5)
    69ca:	0134                	addi	a3,sp,136
    69cc:	862e                	mv	a2,a1
    69ce:	002c                	addi	a1,sp,8
    69d0:	de86                	sw	ra,124(sp)
    69d2:	c236                	sw	a3,4(sp)
    69d4:	5ed010ef          	jal	ra,87c0 <_svfiprintf_r>
    69d8:	47a2                	lw	a5,8(sp)
    69da:	00078023          	sb	zero,0(a5)
    69de:	50f6                	lw	ra,124(sp)
    69e0:	610d                	addi	sp,sp,160
    69e2:	8082                	ret

000069e4 <strlen>:
strlen():
    69e4:	87aa                	mv	a5,a0
    69e6:	0785                	addi	a5,a5,1
    69e8:	fff7c703          	lbu	a4,-1(a5)
    69ec:	ff6d                	bnez	a4,69e6 <strlen+0x2>
    69ee:	40a78533          	sub	a0,a5,a0
    69f2:	157d                	addi	a0,a0,-1
    69f4:	8082                	ret

000069f6 <__swbuf_r>:
__swbuf_r():
    69f6:	1101                	addi	sp,sp,-32
    69f8:	cc22                	sw	s0,24(sp)
    69fa:	ca26                	sw	s1,20(sp)
    69fc:	c84a                	sw	s2,16(sp)
    69fe:	ce06                	sw	ra,28(sp)
    6a00:	c64e                	sw	s3,12(sp)
    6a02:	84aa                	mv	s1,a0
    6a04:	892e                	mv	s2,a1
    6a06:	8432                	mv	s0,a2
    6a08:	c509                	beqz	a0,6a12 <__swbuf_r+0x1c>
    6a0a:	4d1c                	lw	a5,24(a0)
    6a0c:	e399                	bnez	a5,6a12 <__swbuf_r+0x1c>
    6a0e:	178010ef          	jal	ra,7b86 <__sinit>
    6a12:	00003797          	auipc	a5,0x3
    6a16:	f6678793          	addi	a5,a5,-154 # 9978 <__sf_fake_stdin>
    6a1a:	06f41b63          	bne	s0,a5,6a90 <__swbuf_r+0x9a>
    6a1e:	40c0                	lw	s0,4(s1)
    6a20:	4c1c                	lw	a5,24(s0)
    6a22:	c41c                	sw	a5,8(s0)
    6a24:	00c45783          	lhu	a5,12(s0)
    6a28:	8ba1                	andi	a5,a5,8
    6a2a:	c3d9                	beqz	a5,6ab0 <__swbuf_r+0xba>
    6a2c:	481c                	lw	a5,16(s0)
    6a2e:	c3c9                	beqz	a5,6ab0 <__swbuf_r+0xba>
    6a30:	481c                	lw	a5,16(s0)
    6a32:	4008                	lw	a0,0(s0)
    6a34:	0ff97993          	andi	s3,s2,255
    6a38:	0ff97913          	andi	s2,s2,255
    6a3c:	8d1d                	sub	a0,a0,a5
    6a3e:	485c                	lw	a5,20(s0)
    6a40:	00f54763          	blt	a0,a5,6a4e <__swbuf_r+0x58>
    6a44:	85a2                	mv	a1,s0
    6a46:	8526                	mv	a0,s1
    6a48:	01c010ef          	jal	ra,7a64 <_fflush_r>
    6a4c:	e535                	bnez	a0,6ab8 <__swbuf_r+0xc2>
    6a4e:	441c                	lw	a5,8(s0)
    6a50:	0505                	addi	a0,a0,1
    6a52:	17fd                	addi	a5,a5,-1
    6a54:	c41c                	sw	a5,8(s0)
    6a56:	401c                	lw	a5,0(s0)
    6a58:	00178713          	addi	a4,a5,1
    6a5c:	c018                	sw	a4,0(s0)
    6a5e:	01378023          	sb	s3,0(a5)
    6a62:	485c                	lw	a5,20(s0)
    6a64:	00a78963          	beq	a5,a0,6a76 <__swbuf_r+0x80>
    6a68:	00c45783          	lhu	a5,12(s0)
    6a6c:	8b85                	andi	a5,a5,1
    6a6e:	cb89                	beqz	a5,6a80 <__swbuf_r+0x8a>
    6a70:	47a9                	li	a5,10
    6a72:	00f91763          	bne	s2,a5,6a80 <__swbuf_r+0x8a>
    6a76:	85a2                	mv	a1,s0
    6a78:	8526                	mv	a0,s1
    6a7a:	7eb000ef          	jal	ra,7a64 <_fflush_r>
    6a7e:	ed0d                	bnez	a0,6ab8 <__swbuf_r+0xc2>
    6a80:	40f2                	lw	ra,28(sp)
    6a82:	4462                	lw	s0,24(sp)
    6a84:	854a                	mv	a0,s2
    6a86:	44d2                	lw	s1,20(sp)
    6a88:	4942                	lw	s2,16(sp)
    6a8a:	49b2                	lw	s3,12(sp)
    6a8c:	6105                	addi	sp,sp,32
    6a8e:	8082                	ret
    6a90:	00003797          	auipc	a5,0x3
    6a94:	f0878793          	addi	a5,a5,-248 # 9998 <__sf_fake_stdout>
    6a98:	00f41463          	bne	s0,a5,6aa0 <__swbuf_r+0xaa>
    6a9c:	4480                	lw	s0,8(s1)
    6a9e:	b749                	j	6a20 <__swbuf_r+0x2a>
    6aa0:	00003797          	auipc	a5,0x3
    6aa4:	eb878793          	addi	a5,a5,-328 # 9958 <__sf_fake_stderr>
    6aa8:	f6f41ce3          	bne	s0,a5,6a20 <__swbuf_r+0x2a>
    6aac:	44c0                	lw	s0,12(s1)
    6aae:	bf8d                	j	6a20 <__swbuf_r+0x2a>
    6ab0:	85a2                	mv	a1,s0
    6ab2:	8526                	mv	a0,s1
    6ab4:	2021                	jal	6abc <__swsetup_r>
    6ab6:	dd2d                	beqz	a0,6a30 <__swbuf_r+0x3a>
    6ab8:	597d                	li	s2,-1
    6aba:	b7d9                	j	6a80 <__swbuf_r+0x8a>

00006abc <__swsetup_r>:
__swsetup_r():
    6abc:	1141                	addi	sp,sp,-16
    6abe:	81418793          	addi	a5,gp,-2028 # 20000244 <_impure_ptr>
    6ac2:	c226                	sw	s1,4(sp)
    6ac4:	4384                	lw	s1,0(a5)
    6ac6:	c422                	sw	s0,8(sp)
    6ac8:	c04a                	sw	s2,0(sp)
    6aca:	c606                	sw	ra,12(sp)
    6acc:	892a                	mv	s2,a0
    6ace:	842e                	mv	s0,a1
    6ad0:	c491                	beqz	s1,6adc <__swsetup_r+0x20>
    6ad2:	4c9c                	lw	a5,24(s1)
    6ad4:	e781                	bnez	a5,6adc <__swsetup_r+0x20>
    6ad6:	8526                	mv	a0,s1
    6ad8:	0ae010ef          	jal	ra,7b86 <__sinit>
    6adc:	00003797          	auipc	a5,0x3
    6ae0:	e9c78793          	addi	a5,a5,-356 # 9978 <__sf_fake_stdin>
    6ae4:	02f41c63          	bne	s0,a5,6b1c <__swsetup_r+0x60>
    6ae8:	40c0                	lw	s0,4(s1)
    6aea:	00c41703          	lh	a4,12(s0)
    6aee:	01071793          	slli	a5,a4,0x10
    6af2:	83c1                	srli	a5,a5,0x10
    6af4:	0087f693          	andi	a3,a5,8
    6af8:	eebd                	bnez	a3,6b76 <__swsetup_r+0xba>
    6afa:	0107f693          	andi	a3,a5,16
    6afe:	ee9d                	bnez	a3,6b3c <__swsetup_r+0x80>
    6b00:	47a5                	li	a5,9
    6b02:	00f92023          	sw	a5,0(s2) # 800000 <_data_lma+0x7f6424>
    6b06:	04076713          	ori	a4,a4,64
    6b0a:	00e41623          	sh	a4,12(s0)
    6b0e:	557d                	li	a0,-1
    6b10:	40b2                	lw	ra,12(sp)
    6b12:	4422                	lw	s0,8(sp)
    6b14:	4492                	lw	s1,4(sp)
    6b16:	4902                	lw	s2,0(sp)
    6b18:	0141                	addi	sp,sp,16
    6b1a:	8082                	ret
    6b1c:	00003797          	auipc	a5,0x3
    6b20:	e7c78793          	addi	a5,a5,-388 # 9998 <__sf_fake_stdout>
    6b24:	00f41463          	bne	s0,a5,6b2c <__swsetup_r+0x70>
    6b28:	4480                	lw	s0,8(s1)
    6b2a:	b7c1                	j	6aea <__swsetup_r+0x2e>
    6b2c:	00003797          	auipc	a5,0x3
    6b30:	e2c78793          	addi	a5,a5,-468 # 9958 <__sf_fake_stderr>
    6b34:	faf41be3          	bne	s0,a5,6aea <__swsetup_r+0x2e>
    6b38:	44c0                	lw	s0,12(s1)
    6b3a:	bf45                	j	6aea <__swsetup_r+0x2e>
    6b3c:	8b91                	andi	a5,a5,4
    6b3e:	c795                	beqz	a5,6b6a <__swsetup_r+0xae>
    6b40:	584c                	lw	a1,52(s0)
    6b42:	c991                	beqz	a1,6b56 <__swsetup_r+0x9a>
    6b44:	04440793          	addi	a5,s0,68
    6b48:	00f58563          	beq	a1,a5,6b52 <__swsetup_r+0x96>
    6b4c:	854a                	mv	a0,s2
    6b4e:	209010ef          	jal	ra,8556 <_free_r>
    6b52:	02042a23          	sw	zero,52(s0)
    6b56:	00c45783          	lhu	a5,12(s0)
    6b5a:	00042223          	sw	zero,4(s0)
    6b5e:	fdb7f793          	andi	a5,a5,-37
    6b62:	00f41623          	sh	a5,12(s0)
    6b66:	481c                	lw	a5,16(s0)
    6b68:	c01c                	sw	a5,0(s0)
    6b6a:	00c45783          	lhu	a5,12(s0)
    6b6e:	0087e793          	ori	a5,a5,8
    6b72:	00f41623          	sh	a5,12(s0)
    6b76:	481c                	lw	a5,16(s0)
    6b78:	ef89                	bnez	a5,6b92 <__swsetup_r+0xd6>
    6b7a:	00c45783          	lhu	a5,12(s0)
    6b7e:	20000713          	li	a4,512
    6b82:	2807f793          	andi	a5,a5,640
    6b86:	00e78663          	beq	a5,a4,6b92 <__swsetup_r+0xd6>
    6b8a:	85a2                	mv	a1,s0
    6b8c:	854a                	mv	a0,s2
    6b8e:	1e2010ef          	jal	ra,7d70 <__smakebuf_r>
    6b92:	00c45783          	lhu	a5,12(s0)
    6b96:	0017f713          	andi	a4,a5,1
    6b9a:	c705                	beqz	a4,6bc2 <__swsetup_r+0x106>
    6b9c:	485c                	lw	a5,20(s0)
    6b9e:	00042423          	sw	zero,8(s0)
    6ba2:	40f007b3          	neg	a5,a5
    6ba6:	cc1c                	sw	a5,24(s0)
    6ba8:	481c                	lw	a5,16(s0)
    6baa:	4501                	li	a0,0
    6bac:	f3b5                	bnez	a5,6b10 <__swsetup_r+0x54>
    6bae:	00c41783          	lh	a5,12(s0)
    6bb2:	0807f713          	andi	a4,a5,128
    6bb6:	df29                	beqz	a4,6b10 <__swsetup_r+0x54>
    6bb8:	0407e793          	ori	a5,a5,64
    6bbc:	00f41623          	sh	a5,12(s0)
    6bc0:	b7b9                	j	6b0e <__swsetup_r+0x52>
    6bc2:	8b89                	andi	a5,a5,2
    6bc4:	4701                	li	a4,0
    6bc6:	e391                	bnez	a5,6bca <__swsetup_r+0x10e>
    6bc8:	4858                	lw	a4,20(s0)
    6bca:	c418                	sw	a4,8(s0)
    6bcc:	bff1                	j	6ba8 <__swsetup_r+0xec>

00006bce <quorem>:
quorem():
    6bce:	1101                	addi	sp,sp,-32
    6bd0:	cc22                	sw	s0,24(sp)
    6bd2:	491c                	lw	a5,16(a0)
    6bd4:	4980                	lw	s0,16(a1)
    6bd6:	ce06                	sw	ra,28(sp)
    6bd8:	ca26                	sw	s1,20(sp)
    6bda:	c84a                	sw	s2,16(sp)
    6bdc:	c64e                	sw	s3,12(sp)
    6bde:	c452                	sw	s4,8(sp)
    6be0:	c256                	sw	s5,4(sp)
    6be2:	1287c163          	blt	a5,s0,6d04 <quorem+0x136>
    6be6:	147d                	addi	s0,s0,-1
    6be8:	00241813          	slli	a6,s0,0x2
    6bec:	01458993          	addi	s3,a1,20
    6bf0:	01098a33          	add	s4,s3,a6
    6bf4:	01450913          	addi	s2,a0,20
    6bf8:	984a                	add	a6,a6,s2
    6bfa:	000a2783          	lw	a5,0(s4)
    6bfe:	00082703          	lw	a4,0(a6)
    6c02:	0785                	addi	a5,a5,1
    6c04:	02f754b3          	divu	s1,a4,a5
    6c08:	06f76663          	bltu	a4,a5,6c74 <quorem+0xa6>
    6c0c:	68c1                	lui	a7,0x10
    6c0e:	834e                	mv	t1,s3
    6c10:	8e4a                	mv	t3,s2
    6c12:	4e81                	li	t4,0
    6c14:	4f01                	li	t5,0
    6c16:	18fd                	addi	a7,a7,-1
    6c18:	0311                	addi	t1,t1,4
    6c1a:	ffc32603          	lw	a2,-4(t1)
    6c1e:	0e11                	addi	t3,t3,4
    6c20:	01167733          	and	a4,a2,a7
    6c24:	8241                	srli	a2,a2,0x10
    6c26:	02970733          	mul	a4,a4,s1
    6c2a:	02960633          	mul	a2,a2,s1
    6c2e:	9776                	add	a4,a4,t4
    6c30:	01075693          	srli	a3,a4,0x10
    6c34:	011777b3          	and	a5,a4,a7
    6c38:	40ff07b3          	sub	a5,t5,a5
    6c3c:	9636                	add	a2,a2,a3
    6c3e:	ffce2683          	lw	a3,-4(t3)
    6c42:	01065e93          	srli	t4,a2,0x10
    6c46:	01167633          	and	a2,a2,a7
    6c4a:	0116f733          	and	a4,a3,a7
    6c4e:	97ba                	add	a5,a5,a4
    6c50:	82c1                	srli	a3,a3,0x10
    6c52:	4107d713          	srai	a4,a5,0x10
    6c56:	8e91                	sub	a3,a3,a2
    6c58:	96ba                	add	a3,a3,a4
    6c5a:	4106df13          	srai	t5,a3,0x10
    6c5e:	0117f7b3          	and	a5,a5,a7
    6c62:	06c2                	slli	a3,a3,0x10
    6c64:	8fd5                	or	a5,a5,a3
    6c66:	fefe2e23          	sw	a5,-4(t3)
    6c6a:	fa6a77e3          	bgeu	s4,t1,6c18 <quorem+0x4a>
    6c6e:	00082783          	lw	a5,0(a6)
    6c72:	cbbd                	beqz	a5,6ce8 <quorem+0x11a>
    6c74:	8aaa                	mv	s5,a0
    6c76:	6c2010ef          	jal	ra,8338 <__mcmp>
    6c7a:	04054963          	bltz	a0,6ccc <quorem+0xfe>
    6c7e:	6641                	lui	a2,0x10
    6c80:	0485                	addi	s1,s1,1
    6c82:	85ca                	mv	a1,s2
    6c84:	4501                	li	a0,0
    6c86:	167d                	addi	a2,a2,-1
    6c88:	0991                	addi	s3,s3,4
    6c8a:	ffc9a803          	lw	a6,-4(s3)
    6c8e:	4198                	lw	a4,0(a1)
    6c90:	0591                	addi	a1,a1,4
    6c92:	00c876b3          	and	a3,a6,a2
    6c96:	8d15                	sub	a0,a0,a3
    6c98:	00c776b3          	and	a3,a4,a2
    6c9c:	96aa                	add	a3,a3,a0
    6c9e:	01075793          	srli	a5,a4,0x10
    6ca2:	01085813          	srli	a6,a6,0x10
    6ca6:	4106d713          	srai	a4,a3,0x10
    6caa:	410787b3          	sub	a5,a5,a6
    6cae:	97ba                	add	a5,a5,a4
    6cb0:	4107d513          	srai	a0,a5,0x10
    6cb4:	8ef1                	and	a3,a3,a2
    6cb6:	07c2                	slli	a5,a5,0x10
    6cb8:	8fd5                	or	a5,a5,a3
    6cba:	fef5ae23          	sw	a5,-4(a1)
    6cbe:	fd3a75e3          	bgeu	s4,s3,6c88 <quorem+0xba>
    6cc2:	00241793          	slli	a5,s0,0x2
    6cc6:	97ca                	add	a5,a5,s2
    6cc8:	4398                	lw	a4,0(a5)
    6cca:	c71d                	beqz	a4,6cf8 <quorem+0x12a>
    6ccc:	8526                	mv	a0,s1
    6cce:	40f2                	lw	ra,28(sp)
    6cd0:	4462                	lw	s0,24(sp)
    6cd2:	44d2                	lw	s1,20(sp)
    6cd4:	4942                	lw	s2,16(sp)
    6cd6:	49b2                	lw	s3,12(sp)
    6cd8:	4a22                	lw	s4,8(sp)
    6cda:	4a92                	lw	s5,4(sp)
    6cdc:	6105                	addi	sp,sp,32
    6cde:	8082                	ret
    6ce0:	00082783          	lw	a5,0(a6)
    6ce4:	e789                	bnez	a5,6cee <quorem+0x120>
    6ce6:	147d                	addi	s0,s0,-1
    6ce8:	1871                	addi	a6,a6,-4
    6cea:	ff096be3          	bltu	s2,a6,6ce0 <quorem+0x112>
    6cee:	c900                	sw	s0,16(a0)
    6cf0:	b751                	j	6c74 <quorem+0xa6>
    6cf2:	4398                	lw	a4,0(a5)
    6cf4:	e709                	bnez	a4,6cfe <quorem+0x130>
    6cf6:	147d                	addi	s0,s0,-1
    6cf8:	17f1                	addi	a5,a5,-4
    6cfa:	fef96ce3          	bltu	s2,a5,6cf2 <quorem+0x124>
    6cfe:	008aa823          	sw	s0,16(s5)
    6d02:	b7e9                	j	6ccc <quorem+0xfe>
    6d04:	4501                	li	a0,0
    6d06:	b7e1                	j	6cce <quorem+0x100>

00006d08 <_dtoa_r>:
_dtoa_r():
    6d08:	7175                	addi	sp,sp,-144
    6d0a:	d83e                	sw	a5,48(sp)
    6d0c:	515c                	lw	a5,36(a0)
    6d0e:	c522                	sw	s0,136(sp)
    6d10:	c326                	sw	s1,132(sp)
    6d12:	c14a                	sw	s2,128(sp)
    6d14:	dece                	sw	s3,124(sp)
    6d16:	dcd2                	sw	s4,120(sp)
    6d18:	d4e2                	sw	s8,104(sp)
    6d1a:	c706                	sw	ra,140(sp)
    6d1c:	dad6                	sw	s5,116(sp)
    6d1e:	d8da                	sw	s6,112(sp)
    6d20:	d6de                	sw	s7,108(sp)
    6d22:	d2e6                	sw	s9,100(sp)
    6d24:	d0ea                	sw	s10,96(sp)
    6d26:	ceee                	sw	s11,92(sp)
    6d28:	c236                	sw	a3,4(sp)
    6d2a:	c63a                	sw	a4,12(sp)
    6d2c:	ca46                	sw	a7,20(sp)
    6d2e:	84aa                	mv	s1,a0
    6d30:	842e                	mv	s0,a1
    6d32:	8932                	mv	s2,a2
    6d34:	89c2                	mv	s3,a6
    6d36:	8a2e                	mv	s4,a1
    6d38:	8c32                	mv	s8,a2
    6d3a:	ef89                	bnez	a5,6d54 <_dtoa_r+0x4c>
    6d3c:	4541                	li	a0,16
    6d3e:	0d4010ef          	jal	ra,7e12 <malloc>
    6d42:	d0c8                	sw	a0,36(s1)
    6d44:	00052223          	sw	zero,4(a0)
    6d48:	00052423          	sw	zero,8(a0)
    6d4c:	00052023          	sw	zero,0(a0)
    6d50:	00052623          	sw	zero,12(a0)
    6d54:	50dc                	lw	a5,36(s1)
    6d56:	438c                	lw	a1,0(a5)
    6d58:	cd89                	beqz	a1,6d72 <_dtoa_r+0x6a>
    6d5a:	43d8                	lw	a4,4(a5)
    6d5c:	4785                	li	a5,1
    6d5e:	8526                	mv	a0,s1
    6d60:	00e797b3          	sll	a5,a5,a4
    6d64:	c59c                	sw	a5,8(a1)
    6d66:	c1d8                	sw	a4,4(a1)
    6d68:	158010ef          	jal	ra,7ec0 <_Bfree>
    6d6c:	50dc                	lw	a5,36(s1)
    6d6e:	0007a023          	sw	zero,0(a5)
    6d72:	04095363          	bgez	s2,6db8 <_dtoa_r+0xb0>
    6d76:	4785                	li	a5,1
    6d78:	00191c13          	slli	s8,s2,0x1
    6d7c:	00f9a023          	sw	a5,0(s3)
    6d80:	001c5c13          	srli	s8,s8,0x1
    6d84:	7ff007b7          	lui	a5,0x7ff00
    6d88:	00fc7733          	and	a4,s8,a5
    6d8c:	06f71463          	bne	a4,a5,6df4 <_dtoa_r+0xec>
    6d90:	5742                	lw	a4,48(sp)
    6d92:	6789                	lui	a5,0x2
    6d94:	0c32                	slli	s8,s8,0xc
    6d96:	70f78793          	addi	a5,a5,1807 # 270f <GPIO_Init+0xbd>
    6d9a:	00cc5c13          	srli	s8,s8,0xc
    6d9e:	c31c                	sw	a5,0(a4)
    6da0:	008c6c33          	or	s8,s8,s0
    6da4:	320c05e3          	beqz	s8,78ce <_dtoa_r+0xbc6>
    6da8:	47d2                	lw	a5,20(sp)
    6daa:	eb91                	bnez	a5,6dbe <_dtoa_r+0xb6>
    6dac:	00003797          	auipc	a5,0x3
    6db0:	ba878793          	addi	a5,a5,-1112 # 9954 <__clz_tab+0x19c>
    6db4:	c03e                	sw	a5,0(sp)
    6db6:	a839                	j	6dd4 <_dtoa_r+0xcc>
    6db8:	0009a023          	sw	zero,0(s3)
    6dbc:	b7e1                	j	6d84 <_dtoa_r+0x7c>
    6dbe:	00003797          	auipc	a5,0x3
    6dc2:	b9678793          	addi	a5,a5,-1130 # 9954 <__clz_tab+0x19c>
    6dc6:	c03e                	sw	a5,0(sp)
    6dc8:	00003797          	auipc	a5,0x3
    6dcc:	b8f78793          	addi	a5,a5,-1137 # 9957 <__clz_tab+0x19f>
    6dd0:	4752                	lw	a4,20(sp)
    6dd2:	c31c                	sw	a5,0(a4)
    6dd4:	40ba                	lw	ra,140(sp)
    6dd6:	442a                	lw	s0,136(sp)
    6dd8:	4502                	lw	a0,0(sp)
    6dda:	449a                	lw	s1,132(sp)
    6ddc:	490a                	lw	s2,128(sp)
    6dde:	59f6                	lw	s3,124(sp)
    6de0:	5a66                	lw	s4,120(sp)
    6de2:	5ad6                	lw	s5,116(sp)
    6de4:	5b46                	lw	s6,112(sp)
    6de6:	5bb6                	lw	s7,108(sp)
    6de8:	5c26                	lw	s8,104(sp)
    6dea:	5c96                	lw	s9,100(sp)
    6dec:	5d06                	lw	s10,96(sp)
    6dee:	4df6                	lw	s11,92(sp)
    6df0:	6149                	addi	sp,sp,144
    6df2:	8082                	ret
    6df4:	4601                	li	a2,0
    6df6:	4681                	li	a3,0
    6df8:	8522                	mv	a0,s0
    6dfa:	85e2                	mv	a1,s8
    6dfc:	ce22                	sw	s0,28(sp)
    6dfe:	d462                	sw	s8,40(sp)
    6e00:	a56fe0ef          	jal	ra,5056 <__eqdf2>
    6e04:	e105                	bnez	a0,6e24 <_dtoa_r+0x11c>
    6e06:	5742                	lw	a4,48(sp)
    6e08:	4785                	li	a5,1
    6e0a:	c31c                	sw	a5,0(a4)
    6e0c:	00003797          	auipc	a5,0x3
    6e10:	ac478793          	addi	a5,a5,-1340 # 98d0 <__clz_tab+0x118>
    6e14:	c03e                	sw	a5,0(sp)
    6e16:	47d2                	lw	a5,20(sp)
    6e18:	dfd5                	beqz	a5,6dd4 <_dtoa_r+0xcc>
    6e1a:	00003797          	auipc	a5,0x3
    6e1e:	ab778793          	addi	a5,a5,-1353 # 98d1 <__clz_tab+0x119>
    6e22:	b77d                	j	6dd0 <_dtoa_r+0xc8>
    6e24:	00b8                	addi	a4,sp,72
    6e26:	00f4                	addi	a3,sp,76
    6e28:	8662                	mv	a2,s8
    6e2a:	85a2                	mv	a1,s0
    6e2c:	8526                	mv	a0,s1
    6e2e:	014c5913          	srli	s2,s8,0x14
    6e32:	62a010ef          	jal	ra,845c <__d2b>
    6e36:	7ff97913          	andi	s2,s2,2047
    6e3a:	89aa                	mv	s3,a0
    6e3c:	4aa6                	lw	s5,72(sp)
    6e3e:	10090d63          	beqz	s2,6f58 <_dtoa_r+0x250>
    6e42:	57a2                	lw	a5,40(sp)
    6e44:	4572                	lw	a0,28(sp)
    6e46:	c0190913          	addi	s2,s2,-1023
    6e4a:	00c79593          	slli	a1,a5,0xc
    6e4e:	81b1                	srli	a1,a1,0xc
    6e50:	3ff007b7          	lui	a5,0x3ff00
    6e54:	8ddd                	or	a1,a1,a5
    6e56:	dc02                	sw	zero,56(sp)
    6e58:	00003797          	auipc	a5,0x3
    6e5c:	aa878793          	addi	a5,a5,-1368 # 9900 <__clz_tab+0x148>
    6e60:	4390                	lw	a2,0(a5)
    6e62:	43d4                	lw	a3,4(a5)
    6e64:	fcafe0ef          	jal	ra,562e <__subdf3>
    6e68:	00003797          	auipc	a5,0x3
    6e6c:	aa078793          	addi	a5,a5,-1376 # 9908 <__clz_tab+0x150>
    6e70:	4390                	lw	a2,0(a5)
    6e72:	43d4                	lw	a3,4(a5)
    6e74:	b02fe0ef          	jal	ra,5176 <__muldf3>
    6e78:	00003797          	auipc	a5,0x3
    6e7c:	a9878793          	addi	a5,a5,-1384 # 9910 <__clz_tab+0x158>
    6e80:	4390                	lw	a2,0(a5)
    6e82:	43d4                	lw	a3,4(a5)
    6e84:	ceefd0ef          	jal	ra,4372 <__adddf3>
    6e88:	8b2a                	mv	s6,a0
    6e8a:	854a                	mv	a0,s2
    6e8c:	8bae                	mv	s7,a1
    6e8e:	f43fe0ef          	jal	ra,5dd0 <__floatsidf>
    6e92:	00003797          	auipc	a5,0x3
    6e96:	a8678793          	addi	a5,a5,-1402 # 9918 <__clz_tab+0x160>
    6e9a:	4390                	lw	a2,0(a5)
    6e9c:	43d4                	lw	a3,4(a5)
    6e9e:	ad8fe0ef          	jal	ra,5176 <__muldf3>
    6ea2:	862a                	mv	a2,a0
    6ea4:	86ae                	mv	a3,a1
    6ea6:	855a                	mv	a0,s6
    6ea8:	85de                	mv	a1,s7
    6eaa:	cc8fd0ef          	jal	ra,4372 <__adddf3>
    6eae:	8b2a                	mv	s6,a0
    6eb0:	8bae                	mv	s7,a1
    6eb2:	eb7fe0ef          	jal	ra,5d68 <__fixdfsi>
    6eb6:	842a                	mv	s0,a0
    6eb8:	4601                	li	a2,0
    6eba:	4681                	li	a3,0
    6ebc:	855a                	mv	a0,s6
    6ebe:	85de                	mv	a1,s7
    6ec0:	a00fe0ef          	jal	ra,50c0 <__ledf2>
    6ec4:	00055b63          	bgez	a0,6eda <_dtoa_r+0x1d2>
    6ec8:	8522                	mv	a0,s0
    6eca:	f07fe0ef          	jal	ra,5dd0 <__floatsidf>
    6ece:	865a                	mv	a2,s6
    6ed0:	86de                	mv	a3,s7
    6ed2:	984fe0ef          	jal	ra,5056 <__eqdf2>
    6ed6:	c111                	beqz	a0,6eda <_dtoa_r+0x1d2>
    6ed8:	147d                	addi	s0,s0,-1
    6eda:	4705                	li	a4,1
    6edc:	47d9                	li	a5,22
    6ede:	d63a                	sw	a4,44(sp)
    6ee0:	0287e363          	bltu	a5,s0,6f06 <_dtoa_r+0x1fe>
    6ee4:	00341713          	slli	a4,s0,0x3
    6ee8:	00003797          	auipc	a5,0x3
    6eec:	af878793          	addi	a5,a5,-1288 # 99e0 <__mprec_tens>
    6ef0:	97ba                	add	a5,a5,a4
    6ef2:	4390                	lw	a2,0(a5)
    6ef4:	43d4                	lw	a3,4(a5)
    6ef6:	4572                	lw	a0,28(sp)
    6ef8:	55a2                	lw	a1,40(sp)
    6efa:	9c6fe0ef          	jal	ra,50c0 <__ledf2>
    6efe:	00055363          	bgez	a0,6f04 <_dtoa_r+0x1fc>
    6f02:	147d                	addi	s0,s0,-1
    6f04:	d602                	sw	zero,44(sp)
    6f06:	412a8933          	sub	s2,s5,s2
    6f0a:	fff90b93          	addi	s7,s2,-1
    6f0e:	4b01                	li	s6,0
    6f10:	000bd663          	bgez	s7,6f1c <_dtoa_r+0x214>
    6f14:	4b05                	li	s6,1
    6f16:	412b0b33          	sub	s6,s6,s2
    6f1a:	4b81                	li	s7,0
    6f1c:	06044e63          	bltz	s0,6f98 <_dtoa_r+0x290>
    6f20:	9ba2                	add	s7,s7,s0
    6f22:	cc22                	sw	s0,24(sp)
    6f24:	4a81                	li	s5,0
    6f26:	4712                	lw	a4,4(sp)
    6f28:	47a5                	li	a5,9
    6f2a:	14e7e563          	bltu	a5,a4,7074 <_dtoa_r+0x36c>
    6f2e:	4795                	li	a5,5
    6f30:	4c85                	li	s9,1
    6f32:	00e7d663          	bge	a5,a4,6f3e <_dtoa_r+0x236>
    6f36:	ffc70793          	addi	a5,a4,-4
    6f3a:	c23e                	sw	a5,4(sp)
    6f3c:	4c81                	li	s9,0
    6f3e:	4712                	lw	a4,4(sp)
    6f40:	478d                	li	a5,3
    6f42:	10f70e63          	beq	a4,a5,705e <_dtoa_r+0x356>
    6f46:	04e7cf63          	blt	a5,a4,6fa4 <_dtoa_r+0x29c>
    6f4a:	4789                	li	a5,2
    6f4c:	c802                	sw	zero,16(sp)
    6f4e:	06f70d63          	beq	a4,a5,6fc8 <_dtoa_r+0x2c0>
    6f52:	4785                	li	a5,1
    6f54:	c83e                	sw	a5,16(sp)
    6f56:	a08d                	j	6fb8 <_dtoa_r+0x2b0>
    6f58:	4936                	lw	s2,76(sp)
    6f5a:	02000793          	li	a5,32
    6f5e:	9956                	add	s2,s2,s5
    6f60:	43290713          	addi	a4,s2,1074
    6f64:	02e7d563          	bge	a5,a4,6f8e <_dtoa_r+0x286>
    6f68:	04000513          	li	a0,64
    6f6c:	8d19                	sub	a0,a0,a4
    6f6e:	41290793          	addi	a5,s2,1042
    6f72:	00ac1533          	sll	a0,s8,a0
    6f76:	00f45433          	srl	s0,s0,a5
    6f7a:	8d41                	or	a0,a0,s0
    6f7c:	1b0020ef          	jal	ra,912c <__floatunsidf>
    6f80:	fe1007b7          	lui	a5,0xfe100
    6f84:	95be                	add	a1,a1,a5
    6f86:	4785                	li	a5,1
    6f88:	197d                	addi	s2,s2,-1
    6f8a:	dc3e                	sw	a5,56(sp)
    6f8c:	b5f1                	j	6e58 <_dtoa_r+0x150>
    6f8e:	40e78533          	sub	a0,a5,a4
    6f92:	00a41533          	sll	a0,s0,a0
    6f96:	b7dd                	j	6f7c <_dtoa_r+0x274>
    6f98:	408b0b33          	sub	s6,s6,s0
    6f9c:	40800ab3          	neg	s5,s0
    6fa0:	cc02                	sw	zero,24(sp)
    6fa2:	b751                	j	6f26 <_dtoa_r+0x21e>
    6fa4:	4712                	lw	a4,4(sp)
    6fa6:	4791                	li	a5,4
    6fa8:	00f70e63          	beq	a4,a5,6fc4 <_dtoa_r+0x2bc>
    6fac:	4705                	li	a4,1
    6fae:	c83a                	sw	a4,16(sp)
    6fb0:	4712                	lw	a4,4(sp)
    6fb2:	4795                	li	a5,5
    6fb4:	0af70663          	beq	a4,a5,7060 <_dtoa_r+0x358>
    6fb8:	57fd                	li	a5,-1
    6fba:	c43e                	sw	a5,8(sp)
    6fbc:	5dfd                	li	s11,-1
    6fbe:	47c9                	li	a5,18
    6fc0:	c602                	sw	zero,12(sp)
    6fc2:	a819                	j	6fd8 <_dtoa_r+0x2d0>
    6fc4:	4785                	li	a5,1
    6fc6:	c83e                	sw	a5,16(sp)
    6fc8:	47b2                	lw	a5,12(sp)
    6fca:	0af04863          	bgtz	a5,707a <_dtoa_r+0x372>
    6fce:	4785                	li	a5,1
    6fd0:	4705                	li	a4,1
    6fd2:	c43e                	sw	a5,8(sp)
    6fd4:	4d85                	li	s11,1
    6fd6:	c63a                	sw	a4,12(sp)
    6fd8:	0244a903          	lw	s2,36(s1)
    6fdc:	4711                	li	a4,4
    6fde:	00092223          	sw	zero,4(s2)
    6fe2:	01470693          	addi	a3,a4,20
    6fe6:	00492583          	lw	a1,4(s2)
    6fea:	08d7fc63          	bgeu	a5,a3,7082 <_dtoa_r+0x37a>
    6fee:	8526                	mv	a0,s1
    6ff0:	649000ef          	jal	ra,7e38 <_Balloc>
    6ff4:	50dc                	lw	a5,36(s1)
    6ff6:	00a92023          	sw	a0,0(s2)
    6ffa:	439c                	lw	a5,0(a5)
    6ffc:	c03e                	sw	a5,0(sp)
    6ffe:	47b9                	li	a5,14
    7000:	1db7e663          	bltu	a5,s11,71cc <_dtoa_r+0x4c4>
    7004:	1c0c8463          	beqz	s9,71cc <_dtoa_r+0x4c4>
    7008:	0a805e63          	blez	s0,70c4 <_dtoa_r+0x3bc>
    700c:	00f47793          	andi	a5,s0,15
    7010:	00379713          	slli	a4,a5,0x3
    7014:	40445c93          	srai	s9,s0,0x4
    7018:	00003797          	auipc	a5,0x3
    701c:	9c878793          	addi	a5,a5,-1592 # 99e0 <__mprec_tens>
    7020:	97ba                	add	a5,a5,a4
    7022:	010cf693          	andi	a3,s9,16
    7026:	4398                	lw	a4,0(a5)
    7028:	4909                	li	s2,2
    702a:	43dc                	lw	a5,4(a5)
    702c:	c685                	beqz	a3,7054 <_dtoa_r+0x34c>
    702e:	00003697          	auipc	a3,0x3
    7032:	98a68693          	addi	a3,a3,-1654 # 99b8 <__mprec_bigtens>
    7036:	5290                	lw	a2,32(a3)
    7038:	4572                	lw	a0,28(sp)
    703a:	52d4                	lw	a3,36(a3)
    703c:	55a2                	lw	a1,40(sp)
    703e:	d03a                	sw	a4,32(sp)
    7040:	d23e                	sw	a5,36(sp)
    7042:	a61fd0ef          	jal	ra,4aa2 <__divdf3>
    7046:	5702                	lw	a4,32(sp)
    7048:	5792                	lw	a5,36(sp)
    704a:	00fcfc93          	andi	s9,s9,15
    704e:	8a2a                	mv	s4,a0
    7050:	8c2e                	mv	s8,a1
    7052:	490d                	li	s2,3
    7054:	00003d17          	auipc	s10,0x3
    7058:	964d0d13          	addi	s10,s10,-1692 # 99b8 <__mprec_bigtens>
    705c:	a889                	j	70ae <_dtoa_r+0x3a6>
    705e:	c802                	sw	zero,16(sp)
    7060:	47b2                	lw	a5,12(sp)
    7062:	97a2                	add	a5,a5,s0
    7064:	c43e                	sw	a5,8(sp)
    7066:	00178d93          	addi	s11,a5,1
    706a:	87ee                	mv	a5,s11
    706c:	f7b046e3          	bgtz	s11,6fd8 <_dtoa_r+0x2d0>
    7070:	4785                	li	a5,1
    7072:	b79d                	j	6fd8 <_dtoa_r+0x2d0>
    7074:	4c85                	li	s9,1
    7076:	c202                	sw	zero,4(sp)
    7078:	bde9                	j	6f52 <_dtoa_r+0x24a>
    707a:	47b2                	lw	a5,12(sp)
    707c:	c43e                	sw	a5,8(sp)
    707e:	8dbe                	mv	s11,a5
    7080:	bfa1                	j	6fd8 <_dtoa_r+0x2d0>
    7082:	0585                	addi	a1,a1,1
    7084:	00b92223          	sw	a1,4(s2)
    7088:	0706                	slli	a4,a4,0x1
    708a:	bfa1                	j	6fe2 <_dtoa_r+0x2da>
    708c:	001cf693          	andi	a3,s9,1
    7090:	ce81                	beqz	a3,70a8 <_dtoa_r+0x3a0>
    7092:	000d2603          	lw	a2,0(s10)
    7096:	004d2683          	lw	a3,4(s10)
    709a:	853a                	mv	a0,a4
    709c:	85be                	mv	a1,a5
    709e:	8d8fe0ef          	jal	ra,5176 <__muldf3>
    70a2:	0905                	addi	s2,s2,1
    70a4:	872a                	mv	a4,a0
    70a6:	87ae                	mv	a5,a1
    70a8:	401cdc93          	srai	s9,s9,0x1
    70ac:	0d21                	addi	s10,s10,8
    70ae:	fc0c9fe3          	bnez	s9,708c <_dtoa_r+0x384>
    70b2:	863a                	mv	a2,a4
    70b4:	86be                	mv	a3,a5
    70b6:	8552                	mv	a0,s4
    70b8:	85e2                	mv	a1,s8
    70ba:	9e9fd0ef          	jal	ra,4aa2 <__divdf3>
    70be:	8a2a                	mv	s4,a0
    70c0:	8c2e                	mv	s8,a1
    70c2:	a081                	j	7102 <_dtoa_r+0x3fa>
    70c4:	4909                	li	s2,2
    70c6:	cc15                	beqz	s0,7102 <_dtoa_r+0x3fa>
    70c8:	40800cb3          	neg	s9,s0
    70cc:	00fcf793          	andi	a5,s9,15
    70d0:	00379713          	slli	a4,a5,0x3
    70d4:	00003797          	auipc	a5,0x3
    70d8:	90c78793          	addi	a5,a5,-1780 # 99e0 <__mprec_tens>
    70dc:	97ba                	add	a5,a5,a4
    70de:	4390                	lw	a2,0(a5)
    70e0:	43d4                	lw	a3,4(a5)
    70e2:	4572                	lw	a0,28(sp)
    70e4:	55a2                	lw	a1,40(sp)
    70e6:	404cdc93          	srai	s9,s9,0x4
    70ea:	00003d17          	auipc	s10,0x3
    70ee:	8ced0d13          	addi	s10,s10,-1842 # 99b8 <__mprec_bigtens>
    70f2:	884fe0ef          	jal	ra,5176 <__muldf3>
    70f6:	8a2a                	mv	s4,a0
    70f8:	8c2e                	mv	s8,a1
    70fa:	4781                	li	a5,0
    70fc:	120c9c63          	bnez	s9,7234 <_dtoa_r+0x52c>
    7100:	ffdd                	bnez	a5,70be <_dtoa_r+0x3b6>
    7102:	57b2                	lw	a5,44(sp)
    7104:	14078763          	beqz	a5,7252 <_dtoa_r+0x54a>
    7108:	00003717          	auipc	a4,0x3
    710c:	81870713          	addi	a4,a4,-2024 # 9920 <__clz_tab+0x168>
    7110:	4310                	lw	a2,0(a4)
    7112:	4354                	lw	a3,4(a4)
    7114:	8552                	mv	a0,s4
    7116:	85e2                	mv	a1,s8
    7118:	d052                	sw	s4,32(sp)
    711a:	fa7fd0ef          	jal	ra,50c0 <__ledf2>
    711e:	12055a63          	bgez	a0,7252 <_dtoa_r+0x54a>
    7122:	120d8b63          	beqz	s11,7258 <_dtoa_r+0x550>
    7126:	47a2                	lw	a5,8(sp)
    7128:	0af05063          	blez	a5,71c8 <_dtoa_r+0x4c0>
    712c:	00002717          	auipc	a4,0x2
    7130:	7fc70713          	addi	a4,a4,2044 # 9928 <__clz_tab+0x170>
    7134:	5782                	lw	a5,32(sp)
    7136:	4310                	lw	a2,0(a4)
    7138:	4354                	lw	a3,4(a4)
    713a:	853e                	mv	a0,a5
    713c:	85e2                	mv	a1,s8
    713e:	838fe0ef          	jal	ra,5176 <__muldf3>
    7142:	47a2                	lw	a5,8(sp)
    7144:	fff40d13          	addi	s10,s0,-1
    7148:	8a2a                	mv	s4,a0
    714a:	8c2e                	mv	s8,a1
    714c:	0905                	addi	s2,s2,1
    714e:	8762                	mv	a4,s8
    7150:	854a                	mv	a0,s2
    7152:	de3e                	sw	a5,60(sp)
    7154:	da52                	sw	s4,52(sp)
    7156:	8cba                	mv	s9,a4
    7158:	d03a                	sw	a4,32(sp)
    715a:	c77fe0ef          	jal	ra,5dd0 <__floatsidf>
    715e:	5852                	lw	a6,52(sp)
    7160:	5702                	lw	a4,32(sp)
    7162:	fcc00937          	lui	s2,0xfcc00
    7166:	8642                	mv	a2,a6
    7168:	86ba                	mv	a3,a4
    716a:	80cfe0ef          	jal	ra,5176 <__muldf3>
    716e:	00002697          	auipc	a3,0x2
    7172:	7c268693          	addi	a3,a3,1986 # 9930 <__clz_tab+0x178>
    7176:	4290                	lw	a2,0(a3)
    7178:	42d4                	lw	a3,4(a3)
    717a:	8c52                	mv	s8,s4
    717c:	9f6fd0ef          	jal	ra,4372 <__adddf3>
    7180:	57f2                	lw	a5,60(sp)
    7182:	8a2a                	mv	s4,a0
    7184:	992e                	add	s2,s2,a1
    7186:	efe1                	bnez	a5,725e <_dtoa_r+0x556>
    7188:	00002797          	auipc	a5,0x2
    718c:	7b078793          	addi	a5,a5,1968 # 9938 <__clz_tab+0x180>
    7190:	5852                	lw	a6,52(sp)
    7192:	5702                	lw	a4,32(sp)
    7194:	4390                	lw	a2,0(a5)
    7196:	43d4                	lw	a3,4(a5)
    7198:	8542                	mv	a0,a6
    719a:	85ba                	mv	a1,a4
    719c:	c92fe0ef          	jal	ra,562e <__subdf3>
    71a0:	8652                	mv	a2,s4
    71a2:	86ca                	mv	a3,s2
    71a4:	8c2a                	mv	s8,a0
    71a6:	8cae                	mv	s9,a1
    71a8:	69b010ef          	jal	ra,9042 <__gedf2>
    71ac:	54a04a63          	bgtz	a0,7700 <_dtoa_r+0x9f8>
    71b0:	800007b7          	lui	a5,0x80000
    71b4:	0127c7b3          	xor	a5,a5,s2
    71b8:	8652                	mv	a2,s4
    71ba:	86be                	mv	a3,a5
    71bc:	8562                	mv	a0,s8
    71be:	85e6                	mv	a1,s9
    71c0:	f01fd0ef          	jal	ra,50c0 <__ledf2>
    71c4:	52054b63          	bltz	a0,76fa <_dtoa_r+0x9f2>
    71c8:	4a72                	lw	s4,28(sp)
    71ca:	5c22                	lw	s8,40(sp)
    71cc:	47b6                	lw	a5,76(sp)
    71ce:	3007c763          	bltz	a5,74dc <_dtoa_r+0x7d4>
    71d2:	4739                	li	a4,14
    71d4:	30874463          	blt	a4,s0,74dc <_dtoa_r+0x7d4>
    71d8:	00341713          	slli	a4,s0,0x3
    71dc:	00003797          	auipc	a5,0x3
    71e0:	80478793          	addi	a5,a5,-2044 # 99e0 <__mprec_tens>
    71e4:	97ba                	add	a5,a5,a4
    71e6:	0007ab03          	lw	s6,0(a5)
    71ea:	0047ab83          	lw	s7,4(a5)
    71ee:	47b2                	lw	a5,12(sp)
    71f0:	2007d263          	bgez	a5,73f4 <_dtoa_r+0x6ec>
    71f4:	21b04063          	bgtz	s11,73f4 <_dtoa_r+0x6ec>
    71f8:	500d9163          	bnez	s11,76fa <_dtoa_r+0x9f2>
    71fc:	00002797          	auipc	a5,0x2
    7200:	73c78793          	addi	a5,a5,1852 # 9938 <__clz_tab+0x180>
    7204:	4390                	lw	a2,0(a5)
    7206:	43d4                	lw	a3,4(a5)
    7208:	855a                	mv	a0,s6
    720a:	85de                	mv	a1,s7
    720c:	f6bfd0ef          	jal	ra,5176 <__muldf3>
    7210:	8652                	mv	a2,s4
    7212:	86e2                	mv	a3,s8
    7214:	62f010ef          	jal	ra,9042 <__gedf2>
    7218:	4a81                	li	s5,0
    721a:	4901                	li	s2,0
    721c:	4a055763          	bgez	a0,76ca <_dtoa_r+0x9c2>
    7220:	4782                	lw	a5,0(sp)
    7222:	4702                	lw	a4,0(sp)
    7224:	0405                	addi	s0,s0,1
    7226:	00178a13          	addi	s4,a5,1
    722a:	03100793          	li	a5,49
    722e:	00f70023          	sb	a5,0(a4)
    7232:	a145                	j	76d2 <_dtoa_r+0x9ca>
    7234:	001cf713          	andi	a4,s9,1
    7238:	cb09                	beqz	a4,724a <_dtoa_r+0x542>
    723a:	000d2603          	lw	a2,0(s10)
    723e:	004d2683          	lw	a3,4(s10)
    7242:	0905                	addi	s2,s2,1
    7244:	f33fd0ef          	jal	ra,5176 <__muldf3>
    7248:	4785                	li	a5,1
    724a:	401cdc93          	srai	s9,s9,0x1
    724e:	0d21                	addi	s10,s10,8
    7250:	b575                	j	70fc <_dtoa_r+0x3f4>
    7252:	8d22                	mv	s10,s0
    7254:	87ee                	mv	a5,s11
    7256:	bde5                	j	714e <_dtoa_r+0x446>
    7258:	8d22                	mv	s10,s0
    725a:	4781                	li	a5,0
    725c:	bdcd                	j	714e <_dtoa_r+0x446>
    725e:	fff78693          	addi	a3,a5,-1
    7262:	00369613          	slli	a2,a3,0x3
    7266:	00002697          	auipc	a3,0x2
    726a:	77a68693          	addi	a3,a3,1914 # 99e0 <__mprec_tens>
    726e:	96b2                	add	a3,a3,a2
    7270:	4288                	lw	a0,0(a3)
    7272:	42cc                	lw	a1,4(a3)
    7274:	4682                	lw	a3,0(sp)
    7276:	97b6                	add	a5,a5,a3
    7278:	da3e                	sw	a5,52(sp)
    727a:	47c2                	lw	a5,16(sp)
    727c:	c3e9                	beqz	a5,733e <_dtoa_r+0x636>
    727e:	00002797          	auipc	a5,0x2
    7282:	6c278793          	addi	a5,a5,1730 # 9940 <__clz_tab+0x188>
    7286:	862a                	mv	a2,a0
    7288:	86ae                	mv	a3,a1
    728a:	4388                	lw	a0,0(a5)
    728c:	43cc                	lw	a1,4(a5)
    728e:	de4a                	sw	s2,60(sp)
    7290:	d052                	sw	s4,32(sp)
    7292:	811fd0ef          	jal	ra,4aa2 <__divdf3>
    7296:	5802                	lw	a6,32(sp)
    7298:	5772                	lw	a4,60(sp)
    729a:	00002917          	auipc	s2,0x2
    729e:	68e90913          	addi	s2,s2,1678 # 9928 <__clz_tab+0x170>
    72a2:	8642                	mv	a2,a6
    72a4:	86ba                	mv	a3,a4
    72a6:	b88fe0ef          	jal	ra,562e <__subdf3>
    72aa:	4a02                	lw	s4,0(sp)
    72ac:	d02a                	sw	a0,32(sp)
    72ae:	d22e                	sw	a1,36(sp)
    72b0:	85e6                	mv	a1,s9
    72b2:	8562                	mv	a0,s8
    72b4:	ab5fe0ef          	jal	ra,5d68 <__fixdfsi>
    72b8:	de2a                	sw	a0,60(sp)
    72ba:	b17fe0ef          	jal	ra,5dd0 <__floatsidf>
    72be:	862a                	mv	a2,a0
    72c0:	86ae                	mv	a3,a1
    72c2:	8562                	mv	a0,s8
    72c4:	85e6                	mv	a1,s9
    72c6:	b68fe0ef          	jal	ra,562e <__subdf3>
    72ca:	57f2                	lw	a5,60(sp)
    72cc:	8c2a                	mv	s8,a0
    72ce:	8cae                	mv	s9,a1
    72d0:	862a                	mv	a2,a0
    72d2:	86ae                	mv	a3,a1
    72d4:	5502                	lw	a0,32(sp)
    72d6:	5592                	lw	a1,36(sp)
    72d8:	0a05                	addi	s4,s4,1
    72da:	03078793          	addi	a5,a5,48
    72de:	fefa0fa3          	sb	a5,-1(s4)
    72e2:	561010ef          	jal	ra,9042 <__gedf2>
    72e6:	0ea04863          	bgtz	a0,73d6 <_dtoa_r+0x6ce>
    72ea:	00002797          	auipc	a5,0x2
    72ee:	63678793          	addi	a5,a5,1590 # 9920 <__clz_tab+0x168>
    72f2:	4388                	lw	a0,0(a5)
    72f4:	43cc                	lw	a1,4(a5)
    72f6:	8662                	mv	a2,s8
    72f8:	86e6                	mv	a3,s9
    72fa:	b34fe0ef          	jal	ra,562e <__subdf3>
    72fe:	862a                	mv	a2,a0
    7300:	86ae                	mv	a3,a1
    7302:	5502                	lw	a0,32(sp)
    7304:	5592                	lw	a1,36(sp)
    7306:	53d010ef          	jal	ra,9042 <__gedf2>
    730a:	18a04263          	bgtz	a0,748e <_dtoa_r+0x786>
    730e:	57d2                	lw	a5,52(sp)
    7310:	eafa0ce3          	beq	s4,a5,71c8 <_dtoa_r+0x4c0>
    7314:	00092603          	lw	a2,0(s2)
    7318:	00492683          	lw	a3,4(s2)
    731c:	5502                	lw	a0,32(sp)
    731e:	5592                	lw	a1,36(sp)
    7320:	e57fd0ef          	jal	ra,5176 <__muldf3>
    7324:	00092603          	lw	a2,0(s2)
    7328:	00492683          	lw	a3,4(s2)
    732c:	d02a                	sw	a0,32(sp)
    732e:	d22e                	sw	a1,36(sp)
    7330:	8562                	mv	a0,s8
    7332:	85e6                	mv	a1,s9
    7334:	e43fd0ef          	jal	ra,5176 <__muldf3>
    7338:	8c2a                	mv	s8,a0
    733a:	8cae                	mv	s9,a1
    733c:	bf95                	j	72b0 <_dtoa_r+0x5a8>
    733e:	8652                	mv	a2,s4
    7340:	86ca                	mv	a3,s2
    7342:	e35fd0ef          	jal	ra,5176 <__muldf3>
    7346:	5a52                	lw	s4,52(sp)
    7348:	4902                	lw	s2,0(sp)
    734a:	d02a                	sw	a0,32(sp)
    734c:	d22e                	sw	a1,36(sp)
    734e:	85e6                	mv	a1,s9
    7350:	8562                	mv	a0,s8
    7352:	a17fe0ef          	jal	ra,5d68 <__fixdfsi>
    7356:	de2a                	sw	a0,60(sp)
    7358:	a79fe0ef          	jal	ra,5dd0 <__floatsidf>
    735c:	862a                	mv	a2,a0
    735e:	86ae                	mv	a3,a1
    7360:	8562                	mv	a0,s8
    7362:	85e6                	mv	a1,s9
    7364:	acafe0ef          	jal	ra,562e <__subdf3>
    7368:	5772                	lw	a4,60(sp)
    736a:	57d2                	lw	a5,52(sp)
    736c:	0905                	addi	s2,s2,1
    736e:	03070713          	addi	a4,a4,48
    7372:	fee90fa3          	sb	a4,-1(s2)
    7376:	8c2a                	mv	s8,a0
    7378:	8cae                	mv	s9,a1
    737a:	06f91263          	bne	s2,a5,73de <_dtoa_r+0x6d6>
    737e:	00002917          	auipc	s2,0x2
    7382:	5c290913          	addi	s2,s2,1474 # 9940 <__clz_tab+0x188>
    7386:	00092603          	lw	a2,0(s2)
    738a:	00492683          	lw	a3,4(s2)
    738e:	5502                	lw	a0,32(sp)
    7390:	5592                	lw	a1,36(sp)
    7392:	fe1fc0ef          	jal	ra,4372 <__adddf3>
    7396:	862a                	mv	a2,a0
    7398:	86ae                	mv	a3,a1
    739a:	8562                	mv	a0,s8
    739c:	85e6                	mv	a1,s9
    739e:	4a5010ef          	jal	ra,9042 <__gedf2>
    73a2:	0ea04663          	bgtz	a0,748e <_dtoa_r+0x786>
    73a6:	5602                	lw	a2,32(sp)
    73a8:	5692                	lw	a3,36(sp)
    73aa:	00092503          	lw	a0,0(s2)
    73ae:	00492583          	lw	a1,4(s2)
    73b2:	a7cfe0ef          	jal	ra,562e <__subdf3>
    73b6:	862a                	mv	a2,a0
    73b8:	86ae                	mv	a3,a1
    73ba:	8562                	mv	a0,s8
    73bc:	85e6                	mv	a1,s9
    73be:	d03fd0ef          	jal	ra,50c0 <__ledf2>
    73c2:	03000793          	li	a5,48
    73c6:	e00551e3          	bgez	a0,71c8 <_dtoa_r+0x4c0>
    73ca:	fffa4703          	lbu	a4,-1(s4)
    73ce:	fffa0693          	addi	a3,s4,-1
    73d2:	00f70463          	beq	a4,a5,73da <_dtoa_r+0x6d2>
    73d6:	846a                	mv	s0,s10
    73d8:	a859                	j	746e <_dtoa_r+0x766>
    73da:	8a36                	mv	s4,a3
    73dc:	b7fd                	j	73ca <_dtoa_r+0x6c2>
    73de:	00002797          	auipc	a5,0x2
    73e2:	54a78793          	addi	a5,a5,1354 # 9928 <__clz_tab+0x170>
    73e6:	4390                	lw	a2,0(a5)
    73e8:	43d4                	lw	a3,4(a5)
    73ea:	d8dfd0ef          	jal	ra,5176 <__muldf3>
    73ee:	8c2a                	mv	s8,a0
    73f0:	8cae                	mv	s9,a1
    73f2:	bfb1                	j	734e <_dtoa_r+0x646>
    73f4:	87e2                	mv	a5,s8
    73f6:	8cbe                	mv	s9,a5
    73f8:	4782                	lw	a5,0(sp)
    73fa:	8c52                	mv	s8,s4
    73fc:	00002a97          	auipc	s5,0x2
    7400:	52ca8a93          	addi	s5,s5,1324 # 9928 <__clz_tab+0x170>
    7404:	00178913          	addi	s2,a5,1
    7408:	9dbe                	add	s11,s11,a5
    740a:	865a                	mv	a2,s6
    740c:	86de                	mv	a3,s7
    740e:	8562                	mv	a0,s8
    7410:	85e6                	mv	a1,s9
    7412:	e90fd0ef          	jal	ra,4aa2 <__divdf3>
    7416:	953fe0ef          	jal	ra,5d68 <__fixdfsi>
    741a:	8d2a                	mv	s10,a0
    741c:	9b5fe0ef          	jal	ra,5dd0 <__floatsidf>
    7420:	865a                	mv	a2,s6
    7422:	86de                	mv	a3,s7
    7424:	d53fd0ef          	jal	ra,5176 <__muldf3>
    7428:	862a                	mv	a2,a0
    742a:	86ae                	mv	a3,a1
    742c:	8562                	mv	a0,s8
    742e:	85e6                	mv	a1,s9
    7430:	9fefe0ef          	jal	ra,562e <__subdf3>
    7434:	030d0793          	addi	a5,s10,48
    7438:	fef90fa3          	sb	a5,-1(s2)
    743c:	862a                	mv	a2,a0
    743e:	86ae                	mv	a3,a1
    7440:	8a4a                	mv	s4,s2
    7442:	072d9e63          	bne	s11,s2,74be <_dtoa_r+0x7b6>
    7446:	f2dfc0ef          	jal	ra,4372 <__adddf3>
    744a:	865a                	mv	a2,s6
    744c:	86de                	mv	a3,s7
    744e:	8c2a                	mv	s8,a0
    7450:	8cae                	mv	s9,a1
    7452:	3f1010ef          	jal	ra,9042 <__gedf2>
    7456:	02a04b63          	bgtz	a0,748c <_dtoa_r+0x784>
    745a:	865a                	mv	a2,s6
    745c:	86de                	mv	a3,s7
    745e:	8562                	mv	a0,s8
    7460:	85e6                	mv	a1,s9
    7462:	bf5fd0ef          	jal	ra,5056 <__eqdf2>
    7466:	e501                	bnez	a0,746e <_dtoa_r+0x766>
    7468:	001d7793          	andi	a5,s10,1
    746c:	e385                	bnez	a5,748c <_dtoa_r+0x784>
    746e:	85ce                	mv	a1,s3
    7470:	8526                	mv	a0,s1
    7472:	24f000ef          	jal	ra,7ec0 <_Bfree>
    7476:	57c2                	lw	a5,48(sp)
    7478:	000a0023          	sb	zero,0(s4)
    747c:	0405                	addi	s0,s0,1
    747e:	c380                	sw	s0,0(a5)
    7480:	47d2                	lw	a5,20(sp)
    7482:	940789e3          	beqz	a5,6dd4 <_dtoa_r+0xcc>
    7486:	0147a023          	sw	s4,0(a5)
    748a:	b2a9                	j	6dd4 <_dtoa_r+0xcc>
    748c:	8d22                	mv	s10,s0
    748e:	03900713          	li	a4,57
    7492:	fffa4683          	lbu	a3,-1(s4)
    7496:	fffa0793          	addi	a5,s4,-1
    749a:	00e69a63          	bne	a3,a4,74ae <_dtoa_r+0x7a6>
    749e:	4682                	lw	a3,0(sp)
    74a0:	00f69d63          	bne	a3,a5,74ba <_dtoa_r+0x7b2>
    74a4:	03000713          	li	a4,48
    74a8:	0d05                	addi	s10,s10,1
    74aa:	00e68023          	sb	a4,0(a3)
    74ae:	0007c703          	lbu	a4,0(a5)
    74b2:	0705                	addi	a4,a4,1
    74b4:	00e78023          	sb	a4,0(a5)
    74b8:	bf39                	j	73d6 <_dtoa_r+0x6ce>
    74ba:	8a3e                	mv	s4,a5
    74bc:	bfd9                	j	7492 <_dtoa_r+0x78a>
    74be:	000aa603          	lw	a2,0(s5)
    74c2:	004aa683          	lw	a3,4(s5)
    74c6:	0905                	addi	s2,s2,1
    74c8:	caffd0ef          	jal	ra,5176 <__muldf3>
    74cc:	4601                	li	a2,0
    74ce:	4681                	li	a3,0
    74d0:	8c2a                	mv	s8,a0
    74d2:	8cae                	mv	s9,a1
    74d4:	b83fd0ef          	jal	ra,5056 <__eqdf2>
    74d8:	f90d                	bnez	a0,740a <_dtoa_r+0x702>
    74da:	bf51                	j	746e <_dtoa_r+0x766>
    74dc:	4742                	lw	a4,16(sp)
    74de:	10070063          	beqz	a4,75de <_dtoa_r+0x8d6>
    74e2:	4692                	lw	a3,4(sp)
    74e4:	4705                	li	a4,1
    74e6:	0cd74563          	blt	a4,a3,75b0 <_dtoa_r+0x8a8>
    74ea:	5762                	lw	a4,56(sp)
    74ec:	43378793          	addi	a5,a5,1075
    74f0:	e709                	bnez	a4,74fa <_dtoa_r+0x7f2>
    74f2:	4726                	lw	a4,72(sp)
    74f4:	03600793          	li	a5,54
    74f8:	8f99                	sub	a5,a5,a4
    74fa:	8d56                	mv	s10,s5
    74fc:	8cda                	mv	s9,s6
    74fe:	4585                	li	a1,1
    7500:	8526                	mv	a0,s1
    7502:	9b3e                	add	s6,s6,a5
    7504:	9bbe                	add	s7,s7,a5
    7506:	347000ef          	jal	ra,804c <__i2b>
    750a:	892a                	mv	s2,a0
    750c:	01905e63          	blez	s9,7528 <_dtoa_r+0x820>
    7510:	01705c63          	blez	s7,7528 <_dtoa_r+0x820>
    7514:	87e6                	mv	a5,s9
    7516:	019bd363          	bge	s7,s9,751c <_dtoa_r+0x814>
    751a:	87de                	mv	a5,s7
    751c:	40fb0b33          	sub	s6,s6,a5
    7520:	40fc8cb3          	sub	s9,s9,a5
    7524:	40fb8bb3          	sub	s7,s7,a5
    7528:	040a8063          	beqz	s5,7568 <_dtoa_r+0x860>
    752c:	47c2                	lw	a5,16(sp)
    752e:	cfc5                	beqz	a5,75e6 <_dtoa_r+0x8de>
    7530:	03a05463          	blez	s10,7558 <_dtoa_r+0x850>
    7534:	85ca                	mv	a1,s2
    7536:	866a                	mv	a2,s10
    7538:	8526                	mv	a0,s1
    753a:	473000ef          	jal	ra,81ac <__pow5mult>
    753e:	864e                	mv	a2,s3
    7540:	85aa                	mv	a1,a0
    7542:	892a                	mv	s2,a0
    7544:	8526                	mv	a0,s1
    7546:	323000ef          	jal	ra,8068 <__multiply>
    754a:	ce2a                	sw	a0,28(sp)
    754c:	85ce                	mv	a1,s3
    754e:	8526                	mv	a0,s1
    7550:	171000ef          	jal	ra,7ec0 <_Bfree>
    7554:	47f2                	lw	a5,28(sp)
    7556:	89be                	mv	s3,a5
    7558:	41aa8633          	sub	a2,s5,s10
    755c:	c611                	beqz	a2,7568 <_dtoa_r+0x860>
    755e:	85ce                	mv	a1,s3
    7560:	8526                	mv	a0,s1
    7562:	44b000ef          	jal	ra,81ac <__pow5mult>
    7566:	89aa                	mv	s3,a0
    7568:	4585                	li	a1,1
    756a:	8526                	mv	a0,s1
    756c:	2e1000ef          	jal	ra,804c <__i2b>
    7570:	47e2                	lw	a5,24(sp)
    7572:	8aaa                	mv	s5,a0
    7574:	06f05b63          	blez	a5,75ea <_dtoa_r+0x8e2>
    7578:	863e                	mv	a2,a5
    757a:	85aa                	mv	a1,a0
    757c:	8526                	mv	a0,s1
    757e:	42f000ef          	jal	ra,81ac <__pow5mult>
    7582:	4712                	lw	a4,4(sp)
    7584:	4785                	li	a5,1
    7586:	8aaa                	mv	s5,a0
    7588:	4d01                	li	s10,0
    758a:	06e7c863          	blt	a5,a4,75fa <_dtoa_r+0x8f2>
    758e:	4d01                	li	s10,0
    7590:	060a1263          	bnez	s4,75f4 <_dtoa_r+0x8ec>
    7594:	00cc1793          	slli	a5,s8,0xc
    7598:	8d52                	mv	s10,s4
    759a:	efa9                	bnez	a5,75f4 <_dtoa_r+0x8ec>
    759c:	7ff005b7          	lui	a1,0x7ff00
    75a0:	00bc7c33          	and	s8,s8,a1
    75a4:	040c0863          	beqz	s8,75f4 <_dtoa_r+0x8ec>
    75a8:	0b05                	addi	s6,s6,1
    75aa:	0b85                	addi	s7,s7,1
    75ac:	4d05                	li	s10,1
    75ae:	a099                	j	75f4 <_dtoa_r+0x8ec>
    75b0:	fffd8d13          	addi	s10,s11,-1
    75b4:	01aaca63          	blt	s5,s10,75c8 <_dtoa_r+0x8c0>
    75b8:	41aa8d33          	sub	s10,s5,s10
    75bc:	000dde63          	bgez	s11,75d8 <_dtoa_r+0x8d0>
    75c0:	41bb0cb3          	sub	s9,s6,s11
    75c4:	4781                	li	a5,0
    75c6:	bf25                	j	74fe <_dtoa_r+0x7f6>
    75c8:	47e2                	lw	a5,24(sp)
    75ca:	415d0ab3          	sub	s5,s10,s5
    75ce:	97d6                	add	a5,a5,s5
    75d0:	cc3e                	sw	a5,24(sp)
    75d2:	8aea                	mv	s5,s10
    75d4:	4d01                	li	s10,0
    75d6:	b7dd                	j	75bc <_dtoa_r+0x8b4>
    75d8:	8cda                	mv	s9,s6
    75da:	87ee                	mv	a5,s11
    75dc:	b70d                	j	74fe <_dtoa_r+0x7f6>
    75de:	8d56                	mv	s10,s5
    75e0:	8cda                	mv	s9,s6
    75e2:	4901                	li	s2,0
    75e4:	b725                	j	750c <_dtoa_r+0x804>
    75e6:	8656                	mv	a2,s5
    75e8:	bf9d                	j	755e <_dtoa_r+0x856>
    75ea:	4712                	lw	a4,4(sp)
    75ec:	4785                	li	a5,1
    75ee:	4d01                	li	s10,0
    75f0:	f8e7dfe3          	bge	a5,a4,758e <_dtoa_r+0x886>
    75f4:	47e2                	lw	a5,24(sp)
    75f6:	4505                	li	a0,1
    75f8:	cf89                	beqz	a5,7612 <_dtoa_r+0x90a>
    75fa:	010aa783          	lw	a5,16(s5)
    75fe:	078d                	addi	a5,a5,3
    7600:	078a                	slli	a5,a5,0x2
    7602:	97d6                	add	a5,a5,s5
    7604:	43c8                	lw	a0,4(a5)
    7606:	197000ef          	jal	ra,7f9c <__hi0bits>
    760a:	02000793          	li	a5,32
    760e:	40a78533          	sub	a0,a5,a0
    7612:	955e                	add	a0,a0,s7
    7614:	897d                	andi	a0,a0,31
    7616:	c151                	beqz	a0,769a <_dtoa_r+0x992>
    7618:	02000793          	li	a5,32
    761c:	8f89                	sub	a5,a5,a0
    761e:	4711                	li	a4,4
    7620:	06f75a63          	bge	a4,a5,7694 <_dtoa_r+0x98c>
    7624:	47f1                	li	a5,28
    7626:	40a78533          	sub	a0,a5,a0
    762a:	9b2a                	add	s6,s6,a0
    762c:	9caa                	add	s9,s9,a0
    762e:	9baa                	add	s7,s7,a0
    7630:	01605863          	blez	s6,7640 <_dtoa_r+0x938>
    7634:	85ce                	mv	a1,s3
    7636:	865a                	mv	a2,s6
    7638:	8526                	mv	a0,s1
    763a:	431000ef          	jal	ra,826a <__lshift>
    763e:	89aa                	mv	s3,a0
    7640:	01705863          	blez	s7,7650 <_dtoa_r+0x948>
    7644:	85d6                	mv	a1,s5
    7646:	865e                	mv	a2,s7
    7648:	8526                	mv	a0,s1
    764a:	421000ef          	jal	ra,826a <__lshift>
    764e:	8aaa                	mv	s5,a0
    7650:	57b2                	lw	a5,44(sp)
    7652:	c7b1                	beqz	a5,769e <_dtoa_r+0x996>
    7654:	85d6                	mv	a1,s5
    7656:	854e                	mv	a0,s3
    7658:	4e1000ef          	jal	ra,8338 <__mcmp>
    765c:	04055163          	bgez	a0,769e <_dtoa_r+0x996>
    7660:	85ce                	mv	a1,s3
    7662:	4681                	li	a3,0
    7664:	4629                	li	a2,10
    7666:	8526                	mv	a0,s1
    7668:	09d000ef          	jal	ra,7f04 <__multadd>
    766c:	47c2                	lw	a5,16(sp)
    766e:	147d                	addi	s0,s0,-1
    7670:	89aa                	mv	s3,a0
    7672:	26078c63          	beqz	a5,78ea <_dtoa_r+0xbe2>
    7676:	85ca                	mv	a1,s2
    7678:	4681                	li	a3,0
    767a:	4629                	li	a2,10
    767c:	8526                	mv	a0,s1
    767e:	087000ef          	jal	ra,7f04 <__multadd>
    7682:	47a2                	lw	a5,8(sp)
    7684:	892a                	mv	s2,a0
    7686:	08f04563          	bgtz	a5,7710 <_dtoa_r+0xa08>
    768a:	4712                	lw	a4,4(sp)
    768c:	4789                	li	a5,2
    768e:	08e7d163          	bge	a5,a4,7710 <_dtoa_r+0xa08>
    7692:	a829                	j	76ac <_dtoa_r+0x9a4>
    7694:	f8e78ee3          	beq	a5,a4,7630 <_dtoa_r+0x928>
    7698:	853e                	mv	a0,a5
    769a:	0571                	addi	a0,a0,28
    769c:	b779                	j	762a <_dtoa_r+0x922>
    769e:	07b04563          	bgtz	s11,7708 <_dtoa_r+0xa00>
    76a2:	4712                	lw	a4,4(sp)
    76a4:	4789                	li	a5,2
    76a6:	06e7d163          	bge	a5,a4,7708 <_dtoa_r+0xa00>
    76aa:	c46e                	sw	s11,8(sp)
    76ac:	47a2                	lw	a5,8(sp)
    76ae:	ef91                	bnez	a5,76ca <_dtoa_r+0x9c2>
    76b0:	85d6                	mv	a1,s5
    76b2:	4681                	li	a3,0
    76b4:	4615                	li	a2,5
    76b6:	8526                	mv	a0,s1
    76b8:	04d000ef          	jal	ra,7f04 <__multadd>
    76bc:	8aaa                	mv	s5,a0
    76be:	85aa                	mv	a1,a0
    76c0:	854e                	mv	a0,s3
    76c2:	477000ef          	jal	ra,8338 <__mcmp>
    76c6:	b4a04de3          	bgtz	a0,7220 <_dtoa_r+0x518>
    76ca:	47b2                	lw	a5,12(sp)
    76cc:	4a02                	lw	s4,0(sp)
    76ce:	fff7c413          	not	s0,a5
    76d2:	4b01                	li	s6,0
    76d4:	85d6                	mv	a1,s5
    76d6:	8526                	mv	a0,s1
    76d8:	7e8000ef          	jal	ra,7ec0 <_Bfree>
    76dc:	d80909e3          	beqz	s2,746e <_dtoa_r+0x766>
    76e0:	000b0863          	beqz	s6,76f0 <_dtoa_r+0x9e8>
    76e4:	012b0663          	beq	s6,s2,76f0 <_dtoa_r+0x9e8>
    76e8:	85da                	mv	a1,s6
    76ea:	8526                	mv	a0,s1
    76ec:	7d4000ef          	jal	ra,7ec0 <_Bfree>
    76f0:	85ca                	mv	a1,s2
    76f2:	8526                	mv	a0,s1
    76f4:	7cc000ef          	jal	ra,7ec0 <_Bfree>
    76f8:	bb9d                	j	746e <_dtoa_r+0x766>
    76fa:	4a81                	li	s5,0
    76fc:	4901                	li	s2,0
    76fe:	b7f1                	j	76ca <_dtoa_r+0x9c2>
    7700:	846a                	mv	s0,s10
    7702:	4a81                	li	s5,0
    7704:	4901                	li	s2,0
    7706:	be29                	j	7220 <_dtoa_r+0x518>
    7708:	47c2                	lw	a5,16(sp)
    770a:	c46e                	sw	s11,8(sp)
    770c:	1e078663          	beqz	a5,78f8 <_dtoa_r+0xbf0>
    7710:	01905863          	blez	s9,7720 <_dtoa_r+0xa18>
    7714:	85ca                	mv	a1,s2
    7716:	8666                	mv	a2,s9
    7718:	8526                	mv	a0,s1
    771a:	351000ef          	jal	ra,826a <__lshift>
    771e:	892a                	mv	s2,a0
    7720:	854a                	mv	a0,s2
    7722:	020d0663          	beqz	s10,774e <_dtoa_r+0xa46>
    7726:	00492583          	lw	a1,4(s2)
    772a:	8526                	mv	a0,s1
    772c:	70c000ef          	jal	ra,7e38 <_Balloc>
    7730:	01092603          	lw	a2,16(s2)
    7734:	8b2a                	mv	s6,a0
    7736:	00c90593          	addi	a1,s2,12
    773a:	0609                	addi	a2,a2,2
    773c:	060a                	slli	a2,a2,0x2
    773e:	0531                	addi	a0,a0,12
    7740:	f76fe0ef          	jal	ra,5eb6 <memcpy>
    7744:	4605                	li	a2,1
    7746:	85da                	mv	a1,s6
    7748:	8526                	mv	a0,s1
    774a:	321000ef          	jal	ra,826a <__lshift>
    774e:	4782                	lw	a5,0(sp)
    7750:	4722                	lw	a4,8(sp)
    7752:	8b4a                	mv	s6,s2
    7754:	00178c13          	addi	s8,a5,1
    7758:	97ba                	add	a5,a5,a4
    775a:	c63e                	sw	a5,12(sp)
    775c:	001a7793          	andi	a5,s4,1
    7760:	892a                	mv	s2,a0
    7762:	c43e                	sw	a5,8(sp)
    7764:	85d6                	mv	a1,s5
    7766:	854e                	mv	a0,s3
    7768:	c66ff0ef          	jal	ra,6bce <quorem>
    776c:	85da                	mv	a1,s6
    776e:	8d2a                	mv	s10,a0
    7770:	03050d93          	addi	s11,a0,48
    7774:	854e                	mv	a0,s3
    7776:	3c3000ef          	jal	ra,8338 <__mcmp>
    777a:	864a                	mv	a2,s2
    777c:	8baa                	mv	s7,a0
    777e:	85d6                	mv	a1,s5
    7780:	8526                	mv	a0,s1
    7782:	3e9000ef          	jal	ra,836a <__mdiff>
    7786:	4550                	lw	a2,12(a0)
    7788:	fffc0c93          	addi	s9,s8,-1
    778c:	8a2a                	mv	s4,a0
    778e:	4705                	li	a4,1
    7790:	e611                	bnez	a2,779c <_dtoa_r+0xa94>
    7792:	85aa                	mv	a1,a0
    7794:	854e                	mv	a0,s3
    7796:	3a3000ef          	jal	ra,8338 <__mcmp>
    779a:	872a                	mv	a4,a0
    779c:	85d2                	mv	a1,s4
    779e:	8526                	mv	a0,s1
    77a0:	c83a                	sw	a4,16(sp)
    77a2:	71e000ef          	jal	ra,7ec0 <_Bfree>
    77a6:	4792                	lw	a5,4(sp)
    77a8:	4742                	lw	a4,16(sp)
    77aa:	8a62                	mv	s4,s8
    77ac:	00e7e6b3          	or	a3,a5,a4
    77b0:	47a2                	lw	a5,8(sp)
    77b2:	8edd                	or	a3,a3,a5
    77b4:	ee81                	bnez	a3,77cc <_dtoa_r+0xac4>
    77b6:	03900713          	li	a4,57
    77ba:	04ed8863          	beq	s11,a4,780a <_dtoa_r+0xb02>
    77be:	01705463          	blez	s7,77c6 <_dtoa_r+0xabe>
    77c2:	031d0d93          	addi	s11,s10,49
    77c6:	01bc8023          	sb	s11,0(s9)
    77ca:	b729                	j	76d4 <_dtoa_r+0x9cc>
    77cc:	000bca63          	bltz	s7,77e0 <_dtoa_r+0xad8>
    77d0:	4792                	lw	a5,4(sp)
    77d2:	0177ebb3          	or	s7,a5,s7
    77d6:	47a2                	lw	a5,8(sp)
    77d8:	00fbebb3          	or	s7,s7,a5
    77dc:	040b9563          	bnez	s7,7826 <_dtoa_r+0xb1e>
    77e0:	fee053e3          	blez	a4,77c6 <_dtoa_r+0xabe>
    77e4:	85ce                	mv	a1,s3
    77e6:	4605                	li	a2,1
    77e8:	8526                	mv	a0,s1
    77ea:	281000ef          	jal	ra,826a <__lshift>
    77ee:	85d6                	mv	a1,s5
    77f0:	89aa                	mv	s3,a0
    77f2:	347000ef          	jal	ra,8338 <__mcmp>
    77f6:	00a04663          	bgtz	a0,7802 <_dtoa_r+0xafa>
    77fa:	f571                	bnez	a0,77c6 <_dtoa_r+0xabe>
    77fc:	001df713          	andi	a4,s11,1
    7800:	d379                	beqz	a4,77c6 <_dtoa_r+0xabe>
    7802:	03900713          	li	a4,57
    7806:	faed9ee3          	bne	s11,a4,77c2 <_dtoa_r+0xaba>
    780a:	03900793          	li	a5,57
    780e:	00fc8023          	sb	a5,0(s9)
    7812:	03900693          	li	a3,57
    7816:	fffa4783          	lbu	a5,-1(s4)
    781a:	fffa0713          	addi	a4,s4,-1
    781e:	08d78c63          	beq	a5,a3,78b6 <_dtoa_r+0xbae>
    7822:	0785                	addi	a5,a5,1
    7824:	a045                	j	78c4 <_dtoa_r+0xbbc>
    7826:	00e05b63          	blez	a4,783c <_dtoa_r+0xb34>
    782a:	03900713          	li	a4,57
    782e:	fced8ee3          	beq	s11,a4,780a <_dtoa_r+0xb02>
    7832:	001d8793          	addi	a5,s11,1
    7836:	00fc8023          	sb	a5,0(s9)
    783a:	bd69                	j	76d4 <_dtoa_r+0x9cc>
    783c:	47b2                	lw	a5,12(sp)
    783e:	ffbc0fa3          	sb	s11,-1(s8)
    7842:	05878163          	beq	a5,s8,7884 <_dtoa_r+0xb7c>
    7846:	85ce                	mv	a1,s3
    7848:	4681                	li	a3,0
    784a:	4629                	li	a2,10
    784c:	8526                	mv	a0,s1
    784e:	6b6000ef          	jal	ra,7f04 <__multadd>
    7852:	89aa                	mv	s3,a0
    7854:	4681                	li	a3,0
    7856:	4629                	li	a2,10
    7858:	85da                	mv	a1,s6
    785a:	8526                	mv	a0,s1
    785c:	012b1863          	bne	s6,s2,786c <_dtoa_r+0xb64>
    7860:	6a4000ef          	jal	ra,7f04 <__multadd>
    7864:	8b2a                	mv	s6,a0
    7866:	892a                	mv	s2,a0
    7868:	0c05                	addi	s8,s8,1
    786a:	bded                	j	7764 <_dtoa_r+0xa5c>
    786c:	698000ef          	jal	ra,7f04 <__multadd>
    7870:	85ca                	mv	a1,s2
    7872:	8b2a                	mv	s6,a0
    7874:	4681                	li	a3,0
    7876:	4629                	li	a2,10
    7878:	8526                	mv	a0,s1
    787a:	68a000ef          	jal	ra,7f04 <__multadd>
    787e:	892a                	mv	s2,a0
    7880:	b7e5                	j	7868 <_dtoa_r+0xb60>
    7882:	4b01                	li	s6,0
    7884:	85ce                	mv	a1,s3
    7886:	4605                	li	a2,1
    7888:	8526                	mv	a0,s1
    788a:	1e1000ef          	jal	ra,826a <__lshift>
    788e:	85d6                	mv	a1,s5
    7890:	89aa                	mv	s3,a0
    7892:	2a7000ef          	jal	ra,8338 <__mcmp>
    7896:	f6a04ee3          	bgtz	a0,7812 <_dtoa_r+0xb0a>
    789a:	e501                	bnez	a0,78a2 <_dtoa_r+0xb9a>
    789c:	001df793          	andi	a5,s11,1
    78a0:	fbad                	bnez	a5,7812 <_dtoa_r+0xb0a>
    78a2:	03000793          	li	a5,48
    78a6:	fffa4703          	lbu	a4,-1(s4)
    78aa:	fffa0693          	addi	a3,s4,-1
    78ae:	e2f713e3          	bne	a4,a5,76d4 <_dtoa_r+0x9cc>
    78b2:	8a36                	mv	s4,a3
    78b4:	bfcd                	j	78a6 <_dtoa_r+0xb9e>
    78b6:	4782                	lw	a5,0(sp)
    78b8:	00e79963          	bne	a5,a4,78ca <_dtoa_r+0xbc2>
    78bc:	4702                	lw	a4,0(sp)
    78be:	0405                	addi	s0,s0,1
    78c0:	03100793          	li	a5,49
    78c4:	00f70023          	sb	a5,0(a4)
    78c8:	b531                	j	76d4 <_dtoa_r+0x9cc>
    78ca:	8a3a                	mv	s4,a4
    78cc:	b7a9                	j	7816 <_dtoa_r+0xb0e>
    78ce:	4752                	lw	a4,20(sp)
    78d0:	00002797          	auipc	a5,0x2
    78d4:	07878793          	addi	a5,a5,120 # 9948 <__clz_tab+0x190>
    78d8:	c03e                	sw	a5,0(sp)
    78da:	00002797          	auipc	a5,0x2
    78de:	07678793          	addi	a5,a5,118 # 9950 <__clz_tab+0x198>
    78e2:	ce071763          	bnez	a4,6dd0 <_dtoa_r+0xc8>
    78e6:	ceeff06f          	j	6dd4 <_dtoa_r+0xcc>
    78ea:	47a2                	lw	a5,8(sp)
    78ec:	00f04663          	bgtz	a5,78f8 <_dtoa_r+0xbf0>
    78f0:	4712                	lw	a4,4(sp)
    78f2:	4789                	li	a5,2
    78f4:	dae7cce3          	blt	a5,a4,76ac <_dtoa_r+0x9a4>
    78f8:	4a02                	lw	s4,0(sp)
    78fa:	85d6                	mv	a1,s5
    78fc:	854e                	mv	a0,s3
    78fe:	ad0ff0ef          	jal	ra,6bce <quorem>
    7902:	4782                	lw	a5,0(sp)
    7904:	0a05                	addi	s4,s4,1
    7906:	03050d93          	addi	s11,a0,48
    790a:	40fa0733          	sub	a4,s4,a5
    790e:	47a2                	lw	a5,8(sp)
    7910:	ffba0fa3          	sb	s11,-1(s4)
    7914:	f6f757e3          	bge	a4,a5,7882 <_dtoa_r+0xb7a>
    7918:	85ce                	mv	a1,s3
    791a:	4681                	li	a3,0
    791c:	4629                	li	a2,10
    791e:	8526                	mv	a0,s1
    7920:	23d5                	jal	7f04 <__multadd>
    7922:	89aa                	mv	s3,a0
    7924:	bfd9                	j	78fa <_dtoa_r+0xbf2>

00007926 <__sflush_r>:
__sflush_r():
    7926:	00c5d783          	lhu	a5,12(a1) # 7ff0000c <_eusrstack+0x5fef000c>
    792a:	1101                	addi	sp,sp,-32
    792c:	cc22                	sw	s0,24(sp)
    792e:	ca26                	sw	s1,20(sp)
    7930:	ce06                	sw	ra,28(sp)
    7932:	c84a                	sw	s2,16(sp)
    7934:	c64e                	sw	s3,12(sp)
    7936:	0087f713          	andi	a4,a5,8
    793a:	84aa                	mv	s1,a0
    793c:	842e                	mv	s0,a1
    793e:	ef79                	bnez	a4,7a1c <__sflush_r+0xf6>
    7940:	41d8                	lw	a4,4(a1)
    7942:	00e04d63          	bgtz	a4,795c <__sflush_r+0x36>
    7946:	41b8                	lw	a4,64(a1)
    7948:	00e04a63          	bgtz	a4,795c <__sflush_r+0x36>
    794c:	4501                	li	a0,0
    794e:	40f2                	lw	ra,28(sp)
    7950:	4462                	lw	s0,24(sp)
    7952:	44d2                	lw	s1,20(sp)
    7954:	4942                	lw	s2,16(sp)
    7956:	49b2                	lw	s3,12(sp)
    7958:	6105                	addi	sp,sp,32
    795a:	8082                	ret
    795c:	5458                	lw	a4,44(s0)
    795e:	d77d                	beqz	a4,794c <__sflush_r+0x26>
    7960:	0004a903          	lw	s2,0(s1)
    7964:	01379693          	slli	a3,a5,0x13
    7968:	0004a023          	sw	zero,0(s1)
    796c:	0606de63          	bgez	a3,79e8 <__sflush_r+0xc2>
    7970:	4870                	lw	a2,84(s0)
    7972:	00c45783          	lhu	a5,12(s0)
    7976:	8b91                	andi	a5,a5,4
    7978:	c799                	beqz	a5,7986 <__sflush_r+0x60>
    797a:	405c                	lw	a5,4(s0)
    797c:	8e1d                	sub	a2,a2,a5
    797e:	585c                	lw	a5,52(s0)
    7980:	c399                	beqz	a5,7986 <__sflush_r+0x60>
    7982:	403c                	lw	a5,64(s0)
    7984:	8e1d                	sub	a2,a2,a5
    7986:	545c                	lw	a5,44(s0)
    7988:	500c                	lw	a1,32(s0)
    798a:	4681                	li	a3,0
    798c:	8526                	mv	a0,s1
    798e:	9782                	jalr	a5
    7990:	57fd                	li	a5,-1
    7992:	00c45703          	lhu	a4,12(s0)
    7996:	00f51d63          	bne	a0,a5,79b0 <__sflush_r+0x8a>
    799a:	4094                	lw	a3,0(s1)
    799c:	47f5                	li	a5,29
    799e:	06d7e963          	bltu	a5,a3,7a10 <__sflush_r+0xea>
    79a2:	204007b7          	lui	a5,0x20400
    79a6:	0785                	addi	a5,a5,1
    79a8:	00d7d7b3          	srl	a5,a5,a3
    79ac:	8b85                	andi	a5,a5,1
    79ae:	c3ad                	beqz	a5,7a10 <__sflush_r+0xea>
    79b0:	481c                	lw	a5,16(s0)
    79b2:	00042223          	sw	zero,4(s0)
    79b6:	c01c                	sw	a5,0(s0)
    79b8:	01371793          	slli	a5,a4,0x13
    79bc:	0007d863          	bgez	a5,79cc <__sflush_r+0xa6>
    79c0:	57fd                	li	a5,-1
    79c2:	00f51463          	bne	a0,a5,79ca <__sflush_r+0xa4>
    79c6:	409c                	lw	a5,0(s1)
    79c8:	e391                	bnez	a5,79cc <__sflush_r+0xa6>
    79ca:	c868                	sw	a0,84(s0)
    79cc:	584c                	lw	a1,52(s0)
    79ce:	0124a023          	sw	s2,0(s1)
    79d2:	ddad                	beqz	a1,794c <__sflush_r+0x26>
    79d4:	04440793          	addi	a5,s0,68
    79d8:	00f58563          	beq	a1,a5,79e2 <__sflush_r+0xbc>
    79dc:	8526                	mv	a0,s1
    79de:	379000ef          	jal	ra,8556 <_free_r>
    79e2:	02042a23          	sw	zero,52(s0)
    79e6:	b79d                	j	794c <__sflush_r+0x26>
    79e8:	500c                	lw	a1,32(s0)
    79ea:	4601                	li	a2,0
    79ec:	4685                	li	a3,1
    79ee:	8526                	mv	a0,s1
    79f0:	9702                	jalr	a4
    79f2:	57fd                	li	a5,-1
    79f4:	862a                	mv	a2,a0
    79f6:	f6f51ee3          	bne	a0,a5,7972 <__sflush_r+0x4c>
    79fa:	409c                	lw	a5,0(s1)
    79fc:	dbbd                	beqz	a5,7972 <__sflush_r+0x4c>
    79fe:	4775                	li	a4,29
    7a00:	00e78563          	beq	a5,a4,7a0a <__sflush_r+0xe4>
    7a04:	4759                	li	a4,22
    7a06:	04e79463          	bne	a5,a4,7a4e <__sflush_r+0x128>
    7a0a:	0124a023          	sw	s2,0(s1)
    7a0e:	bf3d                	j	794c <__sflush_r+0x26>
    7a10:	04076713          	ori	a4,a4,64
    7a14:	00e41623          	sh	a4,12(s0)
    7a18:	557d                	li	a0,-1
    7a1a:	bf15                	j	794e <__sflush_r+0x28>
    7a1c:	0105a983          	lw	s3,16(a1)
    7a20:	f20986e3          	beqz	s3,794c <__sflush_r+0x26>
    7a24:	0005a903          	lw	s2,0(a1)
    7a28:	8b8d                	andi	a5,a5,3
    7a2a:	0135a023          	sw	s3,0(a1)
    7a2e:	41390933          	sub	s2,s2,s3
    7a32:	4701                	li	a4,0
    7a34:	e391                	bnez	a5,7a38 <__sflush_r+0x112>
    7a36:	49d8                	lw	a4,20(a1)
    7a38:	c418                	sw	a4,8(s0)
    7a3a:	f12059e3          	blez	s2,794c <__sflush_r+0x26>
    7a3e:	541c                	lw	a5,40(s0)
    7a40:	500c                	lw	a1,32(s0)
    7a42:	86ca                	mv	a3,s2
    7a44:	864e                	mv	a2,s3
    7a46:	8526                	mv	a0,s1
    7a48:	9782                	jalr	a5
    7a4a:	00a04963          	bgtz	a0,7a5c <__sflush_r+0x136>
    7a4e:	00c45783          	lhu	a5,12(s0)
    7a52:	0407e793          	ori	a5,a5,64
    7a56:	00f41623          	sh	a5,12(s0)
    7a5a:	bf7d                	j	7a18 <__sflush_r+0xf2>
    7a5c:	99aa                	add	s3,s3,a0
    7a5e:	40a90933          	sub	s2,s2,a0
    7a62:	bfe1                	j	7a3a <__sflush_r+0x114>

00007a64 <_fflush_r>:
_fflush_r():
    7a64:	499c                	lw	a5,16(a1)
    7a66:	c3a5                	beqz	a5,7ac6 <_fflush_r+0x62>
    7a68:	1101                	addi	sp,sp,-32
    7a6a:	cc22                	sw	s0,24(sp)
    7a6c:	ce06                	sw	ra,28(sp)
    7a6e:	842a                	mv	s0,a0
    7a70:	c511                	beqz	a0,7a7c <_fflush_r+0x18>
    7a72:	4d1c                	lw	a5,24(a0)
    7a74:	e781                	bnez	a5,7a7c <_fflush_r+0x18>
    7a76:	c62e                	sw	a1,12(sp)
    7a78:	2239                	jal	7b86 <__sinit>
    7a7a:	45b2                	lw	a1,12(sp)
    7a7c:	00002797          	auipc	a5,0x2
    7a80:	efc78793          	addi	a5,a5,-260 # 9978 <__sf_fake_stdin>
    7a84:	00f59c63          	bne	a1,a5,7a9c <_fflush_r+0x38>
    7a88:	404c                	lw	a1,4(s0)
    7a8a:	00c59783          	lh	a5,12(a1)
    7a8e:	c79d                	beqz	a5,7abc <_fflush_r+0x58>
    7a90:	8522                	mv	a0,s0
    7a92:	4462                	lw	s0,24(sp)
    7a94:	40f2                	lw	ra,28(sp)
    7a96:	6105                	addi	sp,sp,32
    7a98:	e8fff06f          	j	7926 <__sflush_r>
    7a9c:	00002797          	auipc	a5,0x2
    7aa0:	efc78793          	addi	a5,a5,-260 # 9998 <__sf_fake_stdout>
    7aa4:	00f59463          	bne	a1,a5,7aac <_fflush_r+0x48>
    7aa8:	440c                	lw	a1,8(s0)
    7aaa:	b7c5                	j	7a8a <_fflush_r+0x26>
    7aac:	00002797          	auipc	a5,0x2
    7ab0:	eac78793          	addi	a5,a5,-340 # 9958 <__sf_fake_stderr>
    7ab4:	fcf59be3          	bne	a1,a5,7a8a <_fflush_r+0x26>
    7ab8:	444c                	lw	a1,12(s0)
    7aba:	bfc1                	j	7a8a <_fflush_r+0x26>
    7abc:	40f2                	lw	ra,28(sp)
    7abe:	4462                	lw	s0,24(sp)
    7ac0:	4501                	li	a0,0
    7ac2:	6105                	addi	sp,sp,32
    7ac4:	8082                	ret
    7ac6:	4501                	li	a0,0
    7ac8:	8082                	ret

00007aca <std>:
std():
    7aca:	1141                	addi	sp,sp,-16
    7acc:	c422                	sw	s0,8(sp)
    7ace:	c606                	sw	ra,12(sp)
    7ad0:	842a                	mv	s0,a0
    7ad2:	00b51623          	sh	a1,12(a0)
    7ad6:	00c51723          	sh	a2,14(a0)
    7ada:	00052023          	sw	zero,0(a0)
    7ade:	00052223          	sw	zero,4(a0)
    7ae2:	00052423          	sw	zero,8(a0)
    7ae6:	06052223          	sw	zero,100(a0)
    7aea:	00052823          	sw	zero,16(a0)
    7aee:	00052a23          	sw	zero,20(a0)
    7af2:	00052c23          	sw	zero,24(a0)
    7af6:	4621                	li	a2,8
    7af8:	4581                	li	a1,0
    7afa:	05c50513          	addi	a0,a0,92
    7afe:	f16f80ef          	jal	ra,214 <memset>
    7b02:	00001797          	auipc	a5,0x1
    7b06:	27278793          	addi	a5,a5,626 # 8d74 <__sread>
    7b0a:	d05c                	sw	a5,36(s0)
    7b0c:	00001797          	auipc	a5,0x1
    7b10:	29878793          	addi	a5,a5,664 # 8da4 <__swrite>
    7b14:	d41c                	sw	a5,40(s0)
    7b16:	00001797          	auipc	a5,0x1
    7b1a:	2dc78793          	addi	a5,a5,732 # 8df2 <__sseek>
    7b1e:	d45c                	sw	a5,44(s0)
    7b20:	00001797          	auipc	a5,0x1
    7b24:	30878793          	addi	a5,a5,776 # 8e28 <__sclose>
    7b28:	d000                	sw	s0,32(s0)
    7b2a:	d81c                	sw	a5,48(s0)
    7b2c:	40b2                	lw	ra,12(sp)
    7b2e:	4422                	lw	s0,8(sp)
    7b30:	0141                	addi	sp,sp,16
    7b32:	8082                	ret

00007b34 <_cleanup_r>:
_cleanup_r():
    7b34:	00000597          	auipc	a1,0x0
    7b38:	f3058593          	addi	a1,a1,-208 # 7a64 <_fflush_r>
    7b3c:	aa99                	j	7c92 <_fwalk_reent>

00007b3e <__sfmoreglue>:
__sfmoreglue():
    7b3e:	1141                	addi	sp,sp,-16
    7b40:	c226                	sw	s1,4(sp)
    7b42:	06800613          	li	a2,104
    7b46:	fff58493          	addi	s1,a1,-1
    7b4a:	02c484b3          	mul	s1,s1,a2
    7b4e:	c04a                	sw	s2,0(sp)
    7b50:	892e                	mv	s2,a1
    7b52:	c422                	sw	s0,8(sp)
    7b54:	c606                	sw	ra,12(sp)
    7b56:	07448593          	addi	a1,s1,116
    7b5a:	2a5000ef          	jal	ra,85fe <_malloc_r>
    7b5e:	842a                	mv	s0,a0
    7b60:	cd01                	beqz	a0,7b78 <__sfmoreglue+0x3a>
    7b62:	00052023          	sw	zero,0(a0)
    7b66:	01252223          	sw	s2,4(a0)
    7b6a:	0531                	addi	a0,a0,12
    7b6c:	c408                	sw	a0,8(s0)
    7b6e:	06848613          	addi	a2,s1,104
    7b72:	4581                	li	a1,0
    7b74:	ea0f80ef          	jal	ra,214 <memset>
    7b78:	8522                	mv	a0,s0
    7b7a:	40b2                	lw	ra,12(sp)
    7b7c:	4422                	lw	s0,8(sp)
    7b7e:	4492                	lw	s1,4(sp)
    7b80:	4902                	lw	s2,0(sp)
    7b82:	0141                	addi	sp,sp,16
    7b84:	8082                	ret

00007b86 <__sinit>:
__sinit():
    7b86:	4d1c                	lw	a5,24(a0)
    7b88:	e7a5                	bnez	a5,7bf0 <__sinit+0x6a>
    7b8a:	1141                	addi	sp,sp,-16
    7b8c:	c606                	sw	ra,12(sp)
    7b8e:	c422                	sw	s0,8(sp)
    7b90:	00000797          	auipc	a5,0x0
    7b94:	fa478793          	addi	a5,a5,-92 # 7b34 <_cleanup_r>
    7b98:	d51c                	sw	a5,40(a0)
    7b9a:	81c18793          	addi	a5,gp,-2020 # 2000024c <_global_impure_ptr>
    7b9e:	439c                	lw	a5,0(a5)
    7ba0:	04052423          	sw	zero,72(a0)
    7ba4:	04052623          	sw	zero,76(a0)
    7ba8:	04052823          	sw	zero,80(a0)
    7bac:	00f51463          	bne	a0,a5,7bb4 <__sinit+0x2e>
    7bb0:	4785                	li	a5,1
    7bb2:	cd1c                	sw	a5,24(a0)
    7bb4:	842a                	mv	s0,a0
    7bb6:	2835                	jal	7bf2 <__sfp>
    7bb8:	c048                	sw	a0,4(s0)
    7bba:	8522                	mv	a0,s0
    7bbc:	281d                	jal	7bf2 <__sfp>
    7bbe:	c408                	sw	a0,8(s0)
    7bc0:	8522                	mv	a0,s0
    7bc2:	2805                	jal	7bf2 <__sfp>
    7bc4:	c448                	sw	a0,12(s0)
    7bc6:	4048                	lw	a0,4(s0)
    7bc8:	4601                	li	a2,0
    7bca:	4591                	li	a1,4
    7bcc:	effff0ef          	jal	ra,7aca <std>
    7bd0:	4408                	lw	a0,8(s0)
    7bd2:	4605                	li	a2,1
    7bd4:	45a5                	li	a1,9
    7bd6:	ef5ff0ef          	jal	ra,7aca <std>
    7bda:	4448                	lw	a0,12(s0)
    7bdc:	4609                	li	a2,2
    7bde:	45c9                	li	a1,18
    7be0:	eebff0ef          	jal	ra,7aca <std>
    7be4:	4785                	li	a5,1
    7be6:	cc1c                	sw	a5,24(s0)
    7be8:	40b2                	lw	ra,12(sp)
    7bea:	4422                	lw	s0,8(sp)
    7bec:	0141                	addi	sp,sp,16
    7bee:	8082                	ret
    7bf0:	8082                	ret

00007bf2 <__sfp>:
__sfp():
    7bf2:	1141                	addi	sp,sp,-16
    7bf4:	81c18793          	addi	a5,gp,-2020 # 2000024c <_global_impure_ptr>
    7bf8:	c226                	sw	s1,4(sp)
    7bfa:	4384                	lw	s1,0(a5)
    7bfc:	c04a                	sw	s2,0(sp)
    7bfe:	c606                	sw	ra,12(sp)
    7c00:	4c9c                	lw	a5,24(s1)
    7c02:	c422                	sw	s0,8(sp)
    7c04:	892a                	mv	s2,a0
    7c06:	e781                	bnez	a5,7c0e <__sfp+0x1c>
    7c08:	8526                	mv	a0,s1
    7c0a:	f7dff0ef          	jal	ra,7b86 <__sinit>
    7c0e:	04848493          	addi	s1,s1,72
    7c12:	4480                	lw	s0,8(s1)
    7c14:	40dc                	lw	a5,4(s1)
    7c16:	17fd                	addi	a5,a5,-1
    7c18:	0007d663          	bgez	a5,7c24 <__sfp+0x32>
    7c1c:	409c                	lw	a5,0(s1)
    7c1e:	cfb9                	beqz	a5,7c7c <__sfp+0x8a>
    7c20:	4084                	lw	s1,0(s1)
    7c22:	bfc5                	j	7c12 <__sfp+0x20>
    7c24:	00c41703          	lh	a4,12(s0)
    7c28:	e739                	bnez	a4,7c76 <__sfp+0x84>
    7c2a:	77c1                	lui	a5,0xffff0
    7c2c:	0785                	addi	a5,a5,1
    7c2e:	06042223          	sw	zero,100(s0)
    7c32:	00042023          	sw	zero,0(s0)
    7c36:	00042223          	sw	zero,4(s0)
    7c3a:	00042423          	sw	zero,8(s0)
    7c3e:	c45c                	sw	a5,12(s0)
    7c40:	00042823          	sw	zero,16(s0)
    7c44:	00042a23          	sw	zero,20(s0)
    7c48:	00042c23          	sw	zero,24(s0)
    7c4c:	4621                	li	a2,8
    7c4e:	4581                	li	a1,0
    7c50:	05c40513          	addi	a0,s0,92
    7c54:	dc0f80ef          	jal	ra,214 <memset>
    7c58:	02042a23          	sw	zero,52(s0)
    7c5c:	02042c23          	sw	zero,56(s0)
    7c60:	04042423          	sw	zero,72(s0)
    7c64:	04042623          	sw	zero,76(s0)
    7c68:	8522                	mv	a0,s0
    7c6a:	40b2                	lw	ra,12(sp)
    7c6c:	4422                	lw	s0,8(sp)
    7c6e:	4492                	lw	s1,4(sp)
    7c70:	4902                	lw	s2,0(sp)
    7c72:	0141                	addi	sp,sp,16
    7c74:	8082                	ret
    7c76:	06840413          	addi	s0,s0,104
    7c7a:	bf71                	j	7c16 <__sfp+0x24>
    7c7c:	4591                	li	a1,4
    7c7e:	854a                	mv	a0,s2
    7c80:	ebfff0ef          	jal	ra,7b3e <__sfmoreglue>
    7c84:	c088                	sw	a0,0(s1)
    7c86:	fd49                	bnez	a0,7c20 <__sfp+0x2e>
    7c88:	47b1                	li	a5,12
    7c8a:	00f92023          	sw	a5,0(s2)
    7c8e:	4401                	li	s0,0
    7c90:	bfe1                	j	7c68 <__sfp+0x76>

00007c92 <_fwalk_reent>:
_fwalk_reent():
    7c92:	7179                	addi	sp,sp,-48
    7c94:	d422                	sw	s0,40(sp)
    7c96:	d04a                	sw	s2,32(sp)
    7c98:	cc52                	sw	s4,24(sp)
    7c9a:	ca56                	sw	s5,20(sp)
    7c9c:	c85a                	sw	s6,16(sp)
    7c9e:	c65e                	sw	s7,12(sp)
    7ca0:	d606                	sw	ra,44(sp)
    7ca2:	d226                	sw	s1,36(sp)
    7ca4:	ce4e                	sw	s3,28(sp)
    7ca6:	8a2a                	mv	s4,a0
    7ca8:	8aae                	mv	s5,a1
    7caa:	04850413          	addi	s0,a0,72
    7cae:	4901                	li	s2,0
    7cb0:	4b05                	li	s6,1
    7cb2:	5bfd                	li	s7,-1
    7cb4:	ec09                	bnez	s0,7cce <_fwalk_reent+0x3c>
    7cb6:	50b2                	lw	ra,44(sp)
    7cb8:	5422                	lw	s0,40(sp)
    7cba:	854a                	mv	a0,s2
    7cbc:	5492                	lw	s1,36(sp)
    7cbe:	5902                	lw	s2,32(sp)
    7cc0:	49f2                	lw	s3,28(sp)
    7cc2:	4a62                	lw	s4,24(sp)
    7cc4:	4ad2                	lw	s5,20(sp)
    7cc6:	4b42                	lw	s6,16(sp)
    7cc8:	4bb2                	lw	s7,12(sp)
    7cca:	6145                	addi	sp,sp,48
    7ccc:	8082                	ret
    7cce:	4404                	lw	s1,8(s0)
    7cd0:	00442983          	lw	s3,4(s0)
    7cd4:	19fd                	addi	s3,s3,-1
    7cd6:	0009d463          	bgez	s3,7cde <_fwalk_reent+0x4c>
    7cda:	4000                	lw	s0,0(s0)
    7cdc:	bfe1                	j	7cb4 <_fwalk_reent+0x22>
    7cde:	00c4d783          	lhu	a5,12(s1)
    7ce2:	00fb7b63          	bgeu	s6,a5,7cf8 <_fwalk_reent+0x66>
    7ce6:	00e49783          	lh	a5,14(s1)
    7cea:	01778763          	beq	a5,s7,7cf8 <_fwalk_reent+0x66>
    7cee:	85a6                	mv	a1,s1
    7cf0:	8552                	mv	a0,s4
    7cf2:	9a82                	jalr	s5
    7cf4:	00a96933          	or	s2,s2,a0
    7cf8:	06848493          	addi	s1,s1,104
    7cfc:	bfe1                	j	7cd4 <_fwalk_reent+0x42>

00007cfe <_localeconv_r>:
_localeconv_r():
    7cfe:	81418793          	addi	a5,gp,-2028 # 20000244 <_impure_ptr>
    7d02:	439c                	lw	a5,0(a5)
    7d04:	5388                	lw	a0,32(a5)
    7d06:	e509                	bnez	a0,7d10 <_localeconv_r+0x12>
    7d08:	1fff8517          	auipc	a0,0x1fff8
    7d0c:	3b850513          	addi	a0,a0,952 # 200000c0 <__global_locale>
    7d10:	0f050513          	addi	a0,a0,240
    7d14:	8082                	ret

00007d16 <__swhatbuf_r>:
__swhatbuf_r():
    7d16:	7119                	addi	sp,sp,-128
    7d18:	daa6                	sw	s1,116(sp)
    7d1a:	84ae                	mv	s1,a1
    7d1c:	00e59583          	lh	a1,14(a1)
    7d20:	dca2                	sw	s0,120(sp)
    7d22:	de86                	sw	ra,124(sp)
    7d24:	8432                	mv	s0,a2
    7d26:	0005dc63          	bgez	a1,7d3e <__swhatbuf_r+0x28>
    7d2a:	00c4d783          	lhu	a5,12(s1)
    7d2e:	0006a023          	sw	zero,0(a3)
    7d32:	0807f793          	andi	a5,a5,128
    7d36:	e785                	bnez	a5,7d5e <__swhatbuf_r+0x48>
    7d38:	40000793          	li	a5,1024
    7d3c:	a01d                	j	7d62 <__swhatbuf_r+0x4c>
    7d3e:	0830                	addi	a2,sp,24
    7d40:	c636                	sw	a3,12(sp)
    7d42:	142010ef          	jal	ra,8e84 <_fstat_r>
    7d46:	46b2                	lw	a3,12(sp)
    7d48:	fe0541e3          	bltz	a0,7d2a <__swhatbuf_r+0x14>
    7d4c:	4772                	lw	a4,28(sp)
    7d4e:	67bd                	lui	a5,0xf
    7d50:	8ff9                	and	a5,a5,a4
    7d52:	7779                	lui	a4,0xffffe
    7d54:	97ba                	add	a5,a5,a4
    7d56:	0017b793          	seqz	a5,a5
    7d5a:	c29c                	sw	a5,0(a3)
    7d5c:	bff1                	j	7d38 <__swhatbuf_r+0x22>
    7d5e:	04000793          	li	a5,64
    7d62:	c01c                	sw	a5,0(s0)
    7d64:	50f6                	lw	ra,124(sp)
    7d66:	5466                	lw	s0,120(sp)
    7d68:	54d6                	lw	s1,116(sp)
    7d6a:	4501                	li	a0,0
    7d6c:	6109                	addi	sp,sp,128
    7d6e:	8082                	ret

00007d70 <__smakebuf_r>:
__smakebuf_r():
    7d70:	00c5d783          	lhu	a5,12(a1)
    7d74:	1101                	addi	sp,sp,-32
    7d76:	cc22                	sw	s0,24(sp)
    7d78:	ce06                	sw	ra,28(sp)
    7d7a:	ca26                	sw	s1,20(sp)
    7d7c:	c84a                	sw	s2,16(sp)
    7d7e:	8b89                	andi	a5,a5,2
    7d80:	842e                	mv	s0,a1
    7d82:	cf89                	beqz	a5,7d9c <__smakebuf_r+0x2c>
    7d84:	04740793          	addi	a5,s0,71
    7d88:	c01c                	sw	a5,0(s0)
    7d8a:	c81c                	sw	a5,16(s0)
    7d8c:	4785                	li	a5,1
    7d8e:	c85c                	sw	a5,20(s0)
    7d90:	40f2                	lw	ra,28(sp)
    7d92:	4462                	lw	s0,24(sp)
    7d94:	44d2                	lw	s1,20(sp)
    7d96:	4942                	lw	s2,16(sp)
    7d98:	6105                	addi	sp,sp,32
    7d9a:	8082                	ret
    7d9c:	0074                	addi	a3,sp,12
    7d9e:	0030                	addi	a2,sp,8
    7da0:	84aa                	mv	s1,a0
    7da2:	f75ff0ef          	jal	ra,7d16 <__swhatbuf_r>
    7da6:	45a2                	lw	a1,8(sp)
    7da8:	892a                	mv	s2,a0
    7daa:	8526                	mv	a0,s1
    7dac:	053000ef          	jal	ra,85fe <_malloc_r>
    7db0:	ed01                	bnez	a0,7dc8 <__smakebuf_r+0x58>
    7db2:	00c41783          	lh	a5,12(s0)
    7db6:	2007f713          	andi	a4,a5,512
    7dba:	fb79                	bnez	a4,7d90 <__smakebuf_r+0x20>
    7dbc:	9bf1                	andi	a5,a5,-4
    7dbe:	0027e793          	ori	a5,a5,2
    7dc2:	00f41623          	sh	a5,12(s0)
    7dc6:	bf7d                	j	7d84 <__smakebuf_r+0x14>
    7dc8:	00000797          	auipc	a5,0x0
    7dcc:	d6c78793          	addi	a5,a5,-660 # 7b34 <_cleanup_r>
    7dd0:	d49c                	sw	a5,40(s1)
    7dd2:	00c45783          	lhu	a5,12(s0)
    7dd6:	c008                	sw	a0,0(s0)
    7dd8:	c808                	sw	a0,16(s0)
    7dda:	0807e793          	ori	a5,a5,128
    7dde:	00f41623          	sh	a5,12(s0)
    7de2:	47a2                	lw	a5,8(sp)
    7de4:	c85c                	sw	a5,20(s0)
    7de6:	47b2                	lw	a5,12(sp)
    7de8:	cf91                	beqz	a5,7e04 <__smakebuf_r+0x94>
    7dea:	00e41583          	lh	a1,14(s0)
    7dee:	8526                	mv	a0,s1
    7df0:	0be010ef          	jal	ra,8eae <_isatty_r>
    7df4:	c901                	beqz	a0,7e04 <__smakebuf_r+0x94>
    7df6:	00c45783          	lhu	a5,12(s0)
    7dfa:	9bf1                	andi	a5,a5,-4
    7dfc:	0017e793          	ori	a5,a5,1
    7e00:	00f41623          	sh	a5,12(s0)
    7e04:	00c45783          	lhu	a5,12(s0)
    7e08:	00f96933          	or	s2,s2,a5
    7e0c:	01241623          	sh	s2,12(s0)
    7e10:	b741                	j	7d90 <__smakebuf_r+0x20>

00007e12 <malloc>:
malloc():
    7e12:	81418793          	addi	a5,gp,-2028 # 20000244 <_impure_ptr>
    7e16:	85aa                	mv	a1,a0
    7e18:	4388                	lw	a0,0(a5)
    7e1a:	7e40006f          	j	85fe <_malloc_r>

00007e1e <memchr>:
memchr():
    7e1e:	0ff5f593          	andi	a1,a1,255
    7e22:	962a                	add	a2,a2,a0
    7e24:	00c51463          	bne	a0,a2,7e2c <memchr+0xe>
    7e28:	4501                	li	a0,0
    7e2a:	8082                	ret
    7e2c:	00054783          	lbu	a5,0(a0)
    7e30:	feb78de3          	beq	a5,a1,7e2a <memchr+0xc>
    7e34:	0505                	addi	a0,a0,1
    7e36:	b7fd                	j	7e24 <memchr+0x6>

00007e38 <_Balloc>:
_Balloc():
    7e38:	515c                	lw	a5,36(a0)
    7e3a:	1141                	addi	sp,sp,-16
    7e3c:	c422                	sw	s0,8(sp)
    7e3e:	c04a                	sw	s2,0(sp)
    7e40:	c606                	sw	ra,12(sp)
    7e42:	c226                	sw	s1,4(sp)
    7e44:	842a                	mv	s0,a0
    7e46:	892e                	mv	s2,a1
    7e48:	ef89                	bnez	a5,7e62 <_Balloc+0x2a>
    7e4a:	4541                	li	a0,16
    7e4c:	fc7ff0ef          	jal	ra,7e12 <malloc>
    7e50:	d048                	sw	a0,36(s0)
    7e52:	00052223          	sw	zero,4(a0)
    7e56:	00052423          	sw	zero,8(a0)
    7e5a:	00052023          	sw	zero,0(a0)
    7e5e:	00052623          	sw	zero,12(a0)
    7e62:	5044                	lw	s1,36(s0)
    7e64:	44dc                	lw	a5,12(s1)
    7e66:	c795                	beqz	a5,7e92 <_Balloc+0x5a>
    7e68:	5058                	lw	a4,36(s0)
    7e6a:	00291793          	slli	a5,s2,0x2
    7e6e:	4758                	lw	a4,12(a4)
    7e70:	97ba                	add	a5,a5,a4
    7e72:	4388                	lw	a0,0(a5)
    7e74:	ed1d                	bnez	a0,7eb2 <_Balloc+0x7a>
    7e76:	4485                	li	s1,1
    7e78:	012494b3          	sll	s1,s1,s2
    7e7c:	00548613          	addi	a2,s1,5
    7e80:	060a                	slli	a2,a2,0x2
    7e82:	4585                	li	a1,1
    7e84:	8522                	mv	a0,s0
    7e86:	256d                	jal	8530 <_calloc_r>
    7e88:	cd11                	beqz	a0,7ea4 <_Balloc+0x6c>
    7e8a:	01252223          	sw	s2,4(a0)
    7e8e:	c504                	sw	s1,8(a0)
    7e90:	a01d                	j	7eb6 <_Balloc+0x7e>
    7e92:	02100613          	li	a2,33
    7e96:	4591                	li	a1,4
    7e98:	8522                	mv	a0,s0
    7e9a:	2d59                	jal	8530 <_calloc_r>
    7e9c:	505c                	lw	a5,36(s0)
    7e9e:	c4c8                	sw	a0,12(s1)
    7ea0:	47dc                	lw	a5,12(a5)
    7ea2:	f3f9                	bnez	a5,7e68 <_Balloc+0x30>
    7ea4:	4501                	li	a0,0
    7ea6:	40b2                	lw	ra,12(sp)
    7ea8:	4422                	lw	s0,8(sp)
    7eaa:	4492                	lw	s1,4(sp)
    7eac:	4902                	lw	s2,0(sp)
    7eae:	0141                	addi	sp,sp,16
    7eb0:	8082                	ret
    7eb2:	4118                	lw	a4,0(a0)
    7eb4:	c398                	sw	a4,0(a5)
    7eb6:	00052823          	sw	zero,16(a0)
    7eba:	00052623          	sw	zero,12(a0)
    7ebe:	b7e5                	j	7ea6 <_Balloc+0x6e>

00007ec0 <_Bfree>:
_Bfree():
    7ec0:	515c                	lw	a5,36(a0)
    7ec2:	1101                	addi	sp,sp,-32
    7ec4:	cc22                	sw	s0,24(sp)
    7ec6:	ce06                	sw	ra,28(sp)
    7ec8:	842a                	mv	s0,a0
    7eca:	ef99                	bnez	a5,7ee8 <_Bfree+0x28>
    7ecc:	4541                	li	a0,16
    7ece:	c62e                	sw	a1,12(sp)
    7ed0:	f43ff0ef          	jal	ra,7e12 <malloc>
    7ed4:	45b2                	lw	a1,12(sp)
    7ed6:	d048                	sw	a0,36(s0)
    7ed8:	00052223          	sw	zero,4(a0)
    7edc:	00052423          	sw	zero,8(a0)
    7ee0:	00052023          	sw	zero,0(a0)
    7ee4:	00052623          	sw	zero,12(a0)
    7ee8:	c991                	beqz	a1,7efc <_Bfree+0x3c>
    7eea:	5054                	lw	a3,36(s0)
    7eec:	41dc                	lw	a5,4(a1)
    7eee:	00279713          	slli	a4,a5,0x2
    7ef2:	46dc                	lw	a5,12(a3)
    7ef4:	97ba                	add	a5,a5,a4
    7ef6:	4398                	lw	a4,0(a5)
    7ef8:	c198                	sw	a4,0(a1)
    7efa:	c38c                	sw	a1,0(a5)
    7efc:	40f2                	lw	ra,28(sp)
    7efe:	4462                	lw	s0,24(sp)
    7f00:	6105                	addi	sp,sp,32
    7f02:	8082                	ret

00007f04 <__multadd>:
__multadd():
    7f04:	7179                	addi	sp,sp,-48
    7f06:	ce4e                	sw	s3,28(sp)
    7f08:	89aa                	mv	s3,a0
    7f0a:	6541                	lui	a0,0x10
    7f0c:	d422                	sw	s0,40(sp)
    7f0e:	d226                	sw	s1,36(sp)
    7f10:	842e                	mv	s0,a1
    7f12:	4984                	lw	s1,16(a1)
    7f14:	d606                	sw	ra,44(sp)
    7f16:	d04a                	sw	s2,32(sp)
    7f18:	05d1                	addi	a1,a1,20
    7f1a:	4801                	li	a6,0
    7f1c:	157d                	addi	a0,a0,-1
    7f1e:	419c                	lw	a5,0(a1)
    7f20:	0591                	addi	a1,a1,4
    7f22:	0805                	addi	a6,a6,1
    7f24:	00a7f733          	and	a4,a5,a0
    7f28:	02c70733          	mul	a4,a4,a2
    7f2c:	83c1                	srli	a5,a5,0x10
    7f2e:	02c787b3          	mul	a5,a5,a2
    7f32:	9736                	add	a4,a4,a3
    7f34:	01075693          	srli	a3,a4,0x10
    7f38:	8f69                	and	a4,a4,a0
    7f3a:	97b6                	add	a5,a5,a3
    7f3c:	0107d693          	srli	a3,a5,0x10
    7f40:	07c2                	slli	a5,a5,0x10
    7f42:	97ba                	add	a5,a5,a4
    7f44:	fef5ae23          	sw	a5,-4(a1)
    7f48:	fc984be3          	blt	a6,s1,7f1e <__multadd+0x1a>
    7f4c:	c2a1                	beqz	a3,7f8c <__multadd+0x88>
    7f4e:	441c                	lw	a5,8(s0)
    7f50:	02f4c763          	blt	s1,a5,7f7e <__multadd+0x7a>
    7f54:	404c                	lw	a1,4(s0)
    7f56:	854e                	mv	a0,s3
    7f58:	c636                	sw	a3,12(sp)
    7f5a:	0585                	addi	a1,a1,1
    7f5c:	eddff0ef          	jal	ra,7e38 <_Balloc>
    7f60:	4810                	lw	a2,16(s0)
    7f62:	00c40593          	addi	a1,s0,12
    7f66:	892a                	mv	s2,a0
    7f68:	0609                	addi	a2,a2,2
    7f6a:	060a                	slli	a2,a2,0x2
    7f6c:	0531                	addi	a0,a0,12
    7f6e:	f49fd0ef          	jal	ra,5eb6 <memcpy>
    7f72:	85a2                	mv	a1,s0
    7f74:	854e                	mv	a0,s3
    7f76:	f4bff0ef          	jal	ra,7ec0 <_Bfree>
    7f7a:	46b2                	lw	a3,12(sp)
    7f7c:	844a                	mv	s0,s2
    7f7e:	00448793          	addi	a5,s1,4
    7f82:	078a                	slli	a5,a5,0x2
    7f84:	97a2                	add	a5,a5,s0
    7f86:	c3d4                	sw	a3,4(a5)
    7f88:	0485                	addi	s1,s1,1
    7f8a:	c804                	sw	s1,16(s0)
    7f8c:	8522                	mv	a0,s0
    7f8e:	50b2                	lw	ra,44(sp)
    7f90:	5422                	lw	s0,40(sp)
    7f92:	5492                	lw	s1,36(sp)
    7f94:	5902                	lw	s2,32(sp)
    7f96:	49f2                	lw	s3,28(sp)
    7f98:	6145                	addi	sp,sp,48
    7f9a:	8082                	ret

00007f9c <__hi0bits>:
__hi0bits():
    7f9c:	7741                	lui	a4,0xffff0
    7f9e:	8f69                	and	a4,a4,a0
    7fa0:	87aa                	mv	a5,a0
    7fa2:	4501                	li	a0,0
    7fa4:	e319                	bnez	a4,7faa <__hi0bits+0xe>
    7fa6:	07c2                	slli	a5,a5,0x10
    7fa8:	4541                	li	a0,16
    7faa:	ff000737          	lui	a4,0xff000
    7fae:	8f7d                	and	a4,a4,a5
    7fb0:	e319                	bnez	a4,7fb6 <__hi0bits+0x1a>
    7fb2:	0521                	addi	a0,a0,8
    7fb4:	07a2                	slli	a5,a5,0x8
    7fb6:	f0000737          	lui	a4,0xf0000
    7fba:	8f7d                	and	a4,a4,a5
    7fbc:	e319                	bnez	a4,7fc2 <__hi0bits+0x26>
    7fbe:	0511                	addi	a0,a0,4
    7fc0:	0792                	slli	a5,a5,0x4
    7fc2:	c0000737          	lui	a4,0xc0000
    7fc6:	8f7d                	and	a4,a4,a5
    7fc8:	e319                	bnez	a4,7fce <__hi0bits+0x32>
    7fca:	0509                	addi	a0,a0,2
    7fcc:	078a                	slli	a5,a5,0x2
    7fce:	0007c963          	bltz	a5,7fe0 <__hi0bits+0x44>
    7fd2:	00179713          	slli	a4,a5,0x1
    7fd6:	0505                	addi	a0,a0,1
    7fd8:	00074463          	bltz	a4,7fe0 <__hi0bits+0x44>
    7fdc:	02000513          	li	a0,32
    7fe0:	8082                	ret

00007fe2 <__lo0bits>:
__lo0bits():
    7fe2:	411c                	lw	a5,0(a0)
    7fe4:	0077f713          	andi	a4,a5,7
    7fe8:	c30d                	beqz	a4,800a <__lo0bits+0x28>
    7fea:	0017f693          	andi	a3,a5,1
    7fee:	4701                	li	a4,0
    7ff0:	e699                	bnez	a3,7ffe <__lo0bits+0x1c>
    7ff2:	0027f713          	andi	a4,a5,2
    7ff6:	c711                	beqz	a4,8002 <__lo0bits+0x20>
    7ff8:	8385                	srli	a5,a5,0x1
    7ffa:	c11c                	sw	a5,0(a0)
    7ffc:	4705                	li	a4,1
    7ffe:	853a                	mv	a0,a4
    8000:	8082                	ret
    8002:	8389                	srli	a5,a5,0x2
    8004:	c11c                	sw	a5,0(a0)
    8006:	4709                	li	a4,2
    8008:	bfdd                	j	7ffe <__lo0bits+0x1c>
    800a:	01079693          	slli	a3,a5,0x10
    800e:	82c1                	srli	a3,a3,0x10
    8010:	4701                	li	a4,0
    8012:	e299                	bnez	a3,8018 <__lo0bits+0x36>
    8014:	83c1                	srli	a5,a5,0x10
    8016:	4741                	li	a4,16
    8018:	0ff7f693          	andi	a3,a5,255
    801c:	e299                	bnez	a3,8022 <__lo0bits+0x40>
    801e:	0721                	addi	a4,a4,8
    8020:	83a1                	srli	a5,a5,0x8
    8022:	00f7f693          	andi	a3,a5,15
    8026:	e299                	bnez	a3,802c <__lo0bits+0x4a>
    8028:	0711                	addi	a4,a4,4
    802a:	8391                	srli	a5,a5,0x4
    802c:	0037f693          	andi	a3,a5,3
    8030:	e299                	bnez	a3,8036 <__lo0bits+0x54>
    8032:	0709                	addi	a4,a4,2
    8034:	8389                	srli	a5,a5,0x2
    8036:	0017f693          	andi	a3,a5,1
    803a:	e681                	bnez	a3,8042 <__lo0bits+0x60>
    803c:	8385                	srli	a5,a5,0x1
    803e:	0705                	addi	a4,a4,1
    8040:	c399                	beqz	a5,8046 <__lo0bits+0x64>
    8042:	c11c                	sw	a5,0(a0)
    8044:	bf6d                	j	7ffe <__lo0bits+0x1c>
    8046:	02000713          	li	a4,32
    804a:	bf55                	j	7ffe <__lo0bits+0x1c>

0000804c <__i2b>:
__i2b():
    804c:	1141                	addi	sp,sp,-16
    804e:	c422                	sw	s0,8(sp)
    8050:	842e                	mv	s0,a1
    8052:	4585                	li	a1,1
    8054:	c606                	sw	ra,12(sp)
    8056:	de3ff0ef          	jal	ra,7e38 <_Balloc>
    805a:	c940                	sw	s0,20(a0)
    805c:	40b2                	lw	ra,12(sp)
    805e:	4422                	lw	s0,8(sp)
    8060:	4705                	li	a4,1
    8062:	c918                	sw	a4,16(a0)
    8064:	0141                	addi	sp,sp,16
    8066:	8082                	ret

00008068 <__multiply>:
__multiply():
    8068:	4998                	lw	a4,16(a1)
    806a:	4a1c                	lw	a5,16(a2)
    806c:	7179                	addi	sp,sp,-48
    806e:	d226                	sw	s1,36(sp)
    8070:	d606                	sw	ra,44(sp)
    8072:	d422                	sw	s0,40(sp)
    8074:	d04a                	sw	s2,32(sp)
    8076:	ce4e                	sw	s3,28(sp)
    8078:	84ae                	mv	s1,a1
    807a:	00f75463          	bge	a4,a5,8082 <__multiply+0x1a>
    807e:	84b2                	mv	s1,a2
    8080:	862e                	mv	a2,a1
    8082:	0104a983          	lw	s3,16(s1)
    8086:	01062903          	lw	s2,16(a2) # 10010 <_data_lma+0x6434>
    808a:	449c                	lw	a5,8(s1)
    808c:	40cc                	lw	a1,4(s1)
    808e:	01298433          	add	s0,s3,s2
    8092:	0087d363          	bge	a5,s0,8098 <__multiply+0x30>
    8096:	0585                	addi	a1,a1,1
    8098:	c632                	sw	a2,12(sp)
    809a:	d9fff0ef          	jal	ra,7e38 <_Balloc>
    809e:	4632                	lw	a2,12(sp)
    80a0:	01450813          	addi	a6,a0,20 # 10014 <_data_lma+0x6438>
    80a4:	00241313          	slli	t1,s0,0x2
    80a8:	9342                	add	t1,t1,a6
    80aa:	87c2                	mv	a5,a6
    80ac:	0267ed63          	bltu	a5,t1,80e6 <__multiply+0x7e>
    80b0:	01448593          	addi	a1,s1,20
    80b4:	00299893          	slli	a7,s3,0x2
    80b8:	0651                	addi	a2,a2,20
    80ba:	00291e13          	slli	t3,s2,0x2
    80be:	66c1                	lui	a3,0x10
    80c0:	98ae                	add	a7,a7,a1
    80c2:	9e32                	add	t3,t3,a2
    80c4:	16fd                	addi	a3,a3,-1
    80c6:	03c66463          	bltu	a2,t3,80ee <__multiply+0x86>
    80ca:	00805663          	blez	s0,80d6 <__multiply+0x6e>
    80ce:	1371                	addi	t1,t1,-4
    80d0:	00032783          	lw	a5,0(t1)
    80d4:	cbf1                	beqz	a5,81a8 <__multiply+0x140>
    80d6:	c900                	sw	s0,16(a0)
    80d8:	50b2                	lw	ra,44(sp)
    80da:	5422                	lw	s0,40(sp)
    80dc:	5492                	lw	s1,36(sp)
    80de:	5902                	lw	s2,32(sp)
    80e0:	49f2                	lw	s3,28(sp)
    80e2:	6145                	addi	sp,sp,48
    80e4:	8082                	ret
    80e6:	0007a023          	sw	zero,0(a5)
    80ea:	0791                	addi	a5,a5,4
    80ec:	b7c1                	j	80ac <__multiply+0x44>
    80ee:	00062f83          	lw	t6,0(a2)
    80f2:	00dfffb3          	and	t6,t6,a3
    80f6:	040f8a63          	beqz	t6,814a <__multiply+0xe2>
    80fa:	8f42                	mv	t5,a6
    80fc:	82ae                	mv	t0,a1
    80fe:	4481                	li	s1,0
    8100:	0002a703          	lw	a4,0(t0)
    8104:	000f2383          	lw	t2,0(t5)
    8108:	0f11                	addi	t5,t5,4
    810a:	00d77eb3          	and	t4,a4,a3
    810e:	03fe8eb3          	mul	t4,t4,t6
    8112:	00d3f7b3          	and	a5,t2,a3
    8116:	0103d393          	srli	t2,t2,0x10
    811a:	0291                	addi	t0,t0,4
    811c:	9ebe                	add	t4,t4,a5
    811e:	01075793          	srli	a5,a4,0x10
    8122:	03f787b3          	mul	a5,a5,t6
    8126:	9ea6                	add	t4,t4,s1
    8128:	010ed713          	srli	a4,t4,0x10
    812c:	00defeb3          	and	t4,t4,a3
    8130:	979e                	add	a5,a5,t2
    8132:	97ba                	add	a5,a5,a4
    8134:	0107d493          	srli	s1,a5,0x10
    8138:	07c2                	slli	a5,a5,0x10
    813a:	01d7e7b3          	or	a5,a5,t4
    813e:	feff2e23          	sw	a5,-4(t5)
    8142:	fb12efe3          	bltu	t0,a7,8100 <__multiply+0x98>
    8146:	009f2023          	sw	s1,0(t5)
    814a:	00265283          	lhu	t0,2(a2)
    814e:	04028a63          	beqz	t0,81a2 <__multiply+0x13a>
    8152:	00082783          	lw	a5,0(a6)
    8156:	8ec2                	mv	t4,a6
    8158:	8f2e                	mv	t5,a1
    815a:	4f81                	li	t6,0
    815c:	000f2703          	lw	a4,0(t5)
    8160:	002ed383          	lhu	t2,2(t4)
    8164:	8ff5                	and	a5,a5,a3
    8166:	8f75                	and	a4,a4,a3
    8168:	02570733          	mul	a4,a4,t0
    816c:	0e91                	addi	t4,t4,4
    816e:	0f11                	addi	t5,t5,4
    8170:	971e                	add	a4,a4,t2
    8172:	977e                	add	a4,a4,t6
    8174:	01071f93          	slli	t6,a4,0x10
    8178:	00ffe7b3          	or	a5,t6,a5
    817c:	fefeae23          	sw	a5,-4(t4)
    8180:	ffef5783          	lhu	a5,-2(t5)
    8184:	000eaf83          	lw	t6,0(t4)
    8188:	8341                	srli	a4,a4,0x10
    818a:	025787b3          	mul	a5,a5,t0
    818e:	00dfffb3          	and	t6,t6,a3
    8192:	97fe                	add	a5,a5,t6
    8194:	97ba                	add	a5,a5,a4
    8196:	0107df93          	srli	t6,a5,0x10
    819a:	fd1f61e3          	bltu	t5,a7,815c <__multiply+0xf4>
    819e:	00fea023          	sw	a5,0(t4)
    81a2:	0611                	addi	a2,a2,4
    81a4:	0811                	addi	a6,a6,4
    81a6:	b705                	j	80c6 <__multiply+0x5e>
    81a8:	147d                	addi	s0,s0,-1
    81aa:	b705                	j	80ca <__multiply+0x62>

000081ac <__pow5mult>:
__pow5mult():
    81ac:	1101                	addi	sp,sp,-32
    81ae:	ca26                	sw	s1,20(sp)
    81b0:	c84a                	sw	s2,16(sp)
    81b2:	c64e                	sw	s3,12(sp)
    81b4:	ce06                	sw	ra,28(sp)
    81b6:	cc22                	sw	s0,24(sp)
    81b8:	c452                	sw	s4,8(sp)
    81ba:	00367793          	andi	a5,a2,3
    81be:	892a                	mv	s2,a0
    81c0:	84b2                	mv	s1,a2
    81c2:	89ae                	mv	s3,a1
    81c4:	cf89                	beqz	a5,81de <__pow5mult+0x32>
    81c6:	17fd                	addi	a5,a5,-1
    81c8:	00002717          	auipc	a4,0x2
    81cc:	8e070713          	addi	a4,a4,-1824 # 9aa8 <p05.3319>
    81d0:	078a                	slli	a5,a5,0x2
    81d2:	97ba                	add	a5,a5,a4
    81d4:	4390                	lw	a2,0(a5)
    81d6:	4681                	li	a3,0
    81d8:	d2dff0ef          	jal	ra,7f04 <__multadd>
    81dc:	89aa                	mv	s3,a0
    81de:	8489                	srai	s1,s1,0x2
    81e0:	cca5                	beqz	s1,8258 <__pow5mult+0xac>
    81e2:	02492783          	lw	a5,36(s2)
    81e6:	ef91                	bnez	a5,8202 <__pow5mult+0x56>
    81e8:	4541                	li	a0,16
    81ea:	c29ff0ef          	jal	ra,7e12 <malloc>
    81ee:	02a92223          	sw	a0,36(s2)
    81f2:	00052223          	sw	zero,4(a0)
    81f6:	00052423          	sw	zero,8(a0)
    81fa:	00052023          	sw	zero,0(a0)
    81fe:	00052623          	sw	zero,12(a0)
    8202:	02492a03          	lw	s4,36(s2)
    8206:	008a2403          	lw	s0,8(s4)
    820a:	e819                	bnez	s0,8220 <__pow5mult+0x74>
    820c:	27100593          	li	a1,625
    8210:	854a                	mv	a0,s2
    8212:	e3bff0ef          	jal	ra,804c <__i2b>
    8216:	00aa2423          	sw	a0,8(s4)
    821a:	842a                	mv	s0,a0
    821c:	00052023          	sw	zero,0(a0)
    8220:	0014f793          	andi	a5,s1,1
    8224:	cf81                	beqz	a5,823c <__pow5mult+0x90>
    8226:	85ce                	mv	a1,s3
    8228:	8622                	mv	a2,s0
    822a:	854a                	mv	a0,s2
    822c:	e3dff0ef          	jal	ra,8068 <__multiply>
    8230:	8a2a                	mv	s4,a0
    8232:	85ce                	mv	a1,s3
    8234:	854a                	mv	a0,s2
    8236:	c8bff0ef          	jal	ra,7ec0 <_Bfree>
    823a:	89d2                	mv	s3,s4
    823c:	8485                	srai	s1,s1,0x1
    823e:	cc89                	beqz	s1,8258 <__pow5mult+0xac>
    8240:	4008                	lw	a0,0(s0)
    8242:	e909                	bnez	a0,8254 <__pow5mult+0xa8>
    8244:	8622                	mv	a2,s0
    8246:	85a2                	mv	a1,s0
    8248:	854a                	mv	a0,s2
    824a:	e1fff0ef          	jal	ra,8068 <__multiply>
    824e:	c008                	sw	a0,0(s0)
    8250:	00052023          	sw	zero,0(a0)
    8254:	842a                	mv	s0,a0
    8256:	b7e9                	j	8220 <__pow5mult+0x74>
    8258:	40f2                	lw	ra,28(sp)
    825a:	4462                	lw	s0,24(sp)
    825c:	854e                	mv	a0,s3
    825e:	44d2                	lw	s1,20(sp)
    8260:	4942                	lw	s2,16(sp)
    8262:	49b2                	lw	s3,12(sp)
    8264:	4a22                	lw	s4,8(sp)
    8266:	6105                	addi	sp,sp,32
    8268:	8082                	ret

0000826a <__lshift>:
__lshift():
    826a:	7179                	addi	sp,sp,-48
    826c:	d226                	sw	s1,36(sp)
    826e:	84ae                	mv	s1,a1
    8270:	ce4e                	sw	s3,28(sp)
    8272:	0104a983          	lw	s3,16(s1)
    8276:	d422                	sw	s0,40(sp)
    8278:	41cc                	lw	a1,4(a1)
    827a:	40565413          	srai	s0,a2,0x5
    827e:	449c                	lw	a5,8(s1)
    8280:	99a2                	add	s3,s3,s0
    8282:	d04a                	sw	s2,32(sp)
    8284:	ca56                	sw	s5,20(sp)
    8286:	d606                	sw	ra,44(sp)
    8288:	cc52                	sw	s4,24(sp)
    828a:	8aaa                	mv	s5,a0
    828c:	00198913          	addi	s2,s3,1
    8290:	0927c463          	blt	a5,s2,8318 <__lshift+0xae>
    8294:	8556                	mv	a0,s5
    8296:	c632                	sw	a2,12(sp)
    8298:	ba1ff0ef          	jal	ra,7e38 <_Balloc>
    829c:	4632                	lw	a2,12(sp)
    829e:	01450793          	addi	a5,a0,20
    82a2:	8a2a                	mv	s4,a0
    82a4:	86be                	mv	a3,a5
    82a6:	4701                	li	a4,0
    82a8:	0691                	addi	a3,a3,4
    82aa:	06874a63          	blt	a4,s0,831e <__lshift+0xb4>
    82ae:	00045363          	bgez	s0,82b4 <__lshift+0x4a>
    82b2:	4401                	li	s0,0
    82b4:	4894                	lw	a3,16(s1)
    82b6:	040a                	slli	s0,s0,0x2
    82b8:	00878733          	add	a4,a5,s0
    82bc:	068a                	slli	a3,a3,0x2
    82be:	01448793          	addi	a5,s1,20
    82c2:	8a7d                	andi	a2,a2,31
    82c4:	96be                	add	a3,a3,a5
    82c6:	c225                	beqz	a2,8326 <__lshift+0xbc>
    82c8:	02000813          	li	a6,32
    82cc:	40c80833          	sub	a6,a6,a2
    82d0:	4581                	li	a1,0
    82d2:	4388                	lw	a0,0(a5)
    82d4:	0711                	addi	a4,a4,4
    82d6:	0791                	addi	a5,a5,4
    82d8:	00c51533          	sll	a0,a0,a2
    82dc:	8dc9                	or	a1,a1,a0
    82de:	feb72e23          	sw	a1,-4(a4)
    82e2:	ffc7a583          	lw	a1,-4(a5)
    82e6:	0105d5b3          	srl	a1,a1,a6
    82ea:	fed7e4e3          	bltu	a5,a3,82d2 <__lshift+0x68>
    82ee:	c30c                	sw	a1,0(a4)
    82f0:	c199                	beqz	a1,82f6 <__lshift+0x8c>
    82f2:	00298913          	addi	s2,s3,2
    82f6:	197d                	addi	s2,s2,-1
    82f8:	012a2823          	sw	s2,16(s4)
    82fc:	8556                	mv	a0,s5
    82fe:	85a6                	mv	a1,s1
    8300:	bc1ff0ef          	jal	ra,7ec0 <_Bfree>
    8304:	50b2                	lw	ra,44(sp)
    8306:	5422                	lw	s0,40(sp)
    8308:	8552                	mv	a0,s4
    830a:	5492                	lw	s1,36(sp)
    830c:	5902                	lw	s2,32(sp)
    830e:	49f2                	lw	s3,28(sp)
    8310:	4a62                	lw	s4,24(sp)
    8312:	4ad2                	lw	s5,20(sp)
    8314:	6145                	addi	sp,sp,48
    8316:	8082                	ret
    8318:	0585                	addi	a1,a1,1
    831a:	0786                	slli	a5,a5,0x1
    831c:	bf95                	j	8290 <__lshift+0x26>
    831e:	fe06ae23          	sw	zero,-4(a3) # fffc <_data_lma+0x6420>
    8322:	0705                	addi	a4,a4,1
    8324:	b751                	j	82a8 <__lshift+0x3e>
    8326:	0791                	addi	a5,a5,4
    8328:	ffc7a603          	lw	a2,-4(a5)
    832c:	0711                	addi	a4,a4,4
    832e:	fec72e23          	sw	a2,-4(a4)
    8332:	fed7eae3          	bltu	a5,a3,8326 <__lshift+0xbc>
    8336:	b7c1                	j	82f6 <__lshift+0x8c>

00008338 <__mcmp>:
__mcmp():
    8338:	491c                	lw	a5,16(a0)
    833a:	4998                	lw	a4,16(a1)
    833c:	8f99                	sub	a5,a5,a4
    833e:	e38d                	bnez	a5,8360 <__mcmp+0x28>
    8340:	070a                	slli	a4,a4,0x2
    8342:	0551                	addi	a0,a0,20
    8344:	05d1                	addi	a1,a1,20
    8346:	00e506b3          	add	a3,a0,a4
    834a:	95ba                	add	a1,a1,a4
    834c:	16f1                	addi	a3,a3,-4
    834e:	15f1                	addi	a1,a1,-4
    8350:	4290                	lw	a2,0(a3)
    8352:	4198                	lw	a4,0(a1)
    8354:	00e60863          	beq	a2,a4,8364 <__mcmp+0x2c>
    8358:	57fd                	li	a5,-1
    835a:	00e66363          	bltu	a2,a4,8360 <__mcmp+0x28>
    835e:	4785                	li	a5,1
    8360:	853e                	mv	a0,a5
    8362:	8082                	ret
    8364:	fed564e3          	bltu	a0,a3,834c <__mcmp+0x14>
    8368:	bfe5                	j	8360 <__mcmp+0x28>

0000836a <__mdiff>:
__mdiff():
    836a:	1101                	addi	sp,sp,-32
    836c:	ca26                	sw	s1,20(sp)
    836e:	84ae                	mv	s1,a1
    8370:	c64e                	sw	s3,12(sp)
    8372:	85b2                	mv	a1,a2
    8374:	89aa                	mv	s3,a0
    8376:	8526                	mv	a0,s1
    8378:	cc22                	sw	s0,24(sp)
    837a:	ce06                	sw	ra,28(sp)
    837c:	c84a                	sw	s2,16(sp)
    837e:	8432                	mv	s0,a2
    8380:	fb9ff0ef          	jal	ra,8338 <__mcmp>
    8384:	e105                	bnez	a0,83a4 <__mdiff+0x3a>
    8386:	4581                	li	a1,0
    8388:	854e                	mv	a0,s3
    838a:	aafff0ef          	jal	ra,7e38 <_Balloc>
    838e:	4785                	li	a5,1
    8390:	c91c                	sw	a5,16(a0)
    8392:	00052a23          	sw	zero,20(a0)
    8396:	40f2                	lw	ra,28(sp)
    8398:	4462                	lw	s0,24(sp)
    839a:	44d2                	lw	s1,20(sp)
    839c:	4942                	lw	s2,16(sp)
    839e:	49b2                	lw	s3,12(sp)
    83a0:	6105                	addi	sp,sp,32
    83a2:	8082                	ret
    83a4:	4905                	li	s2,1
    83a6:	00054663          	bltz	a0,83b2 <__mdiff+0x48>
    83aa:	87a2                	mv	a5,s0
    83ac:	4901                	li	s2,0
    83ae:	8426                	mv	s0,s1
    83b0:	84be                	mv	s1,a5
    83b2:	404c                	lw	a1,4(s0)
    83b4:	854e                	mv	a0,s3
    83b6:	a83ff0ef          	jal	ra,7e38 <_Balloc>
    83ba:	01042303          	lw	t1,16(s0)
    83be:	0104a883          	lw	a7,16(s1)
    83c2:	01440613          	addi	a2,s0,20
    83c6:	00231e13          	slli	t3,t1,0x2
    83ca:	01448813          	addi	a6,s1,20
    83ce:	088a                	slli	a7,a7,0x2
    83d0:	6ec1                	lui	t4,0x10
    83d2:	01252623          	sw	s2,12(a0)
    83d6:	9e32                	add	t3,t3,a2
    83d8:	98c2                	add	a7,a7,a6
    83da:	01450693          	addi	a3,a0,20
    83de:	4f01                	li	t5,0
    83e0:	1efd                	addi	t4,t4,-1
    83e2:	4218                	lw	a4,0(a2)
    83e4:	00082f83          	lw	t6,0(a6)
    83e8:	0691                	addi	a3,a3,4
    83ea:	01d775b3          	and	a1,a4,t4
    83ee:	01dff7b3          	and	a5,t6,t4
    83f2:	95fa                	add	a1,a1,t5
    83f4:	8d9d                	sub	a1,a1,a5
    83f6:	010fdf93          	srli	t6,t6,0x10
    83fa:	01075793          	srli	a5,a4,0x10
    83fe:	41f787b3          	sub	a5,a5,t6
    8402:	4105d713          	srai	a4,a1,0x10
    8406:	97ba                	add	a5,a5,a4
    8408:	4107df13          	srai	t5,a5,0x10
    840c:	01d5f5b3          	and	a1,a1,t4
    8410:	07c2                	slli	a5,a5,0x10
    8412:	8fcd                	or	a5,a5,a1
    8414:	0811                	addi	a6,a6,4
    8416:	fef6ae23          	sw	a5,-4(a3)
    841a:	0611                	addi	a2,a2,4
    841c:	fd1863e3          	bltu	a6,a7,83e2 <__mdiff+0x78>
    8420:	65c1                	lui	a1,0x10
    8422:	15fd                	addi	a1,a1,-1
    8424:	01c66863          	bltu	a2,t3,8434 <__mdiff+0xca>
    8428:	16f1                	addi	a3,a3,-4
    842a:	429c                	lw	a5,0(a3)
    842c:	c795                	beqz	a5,8458 <__mdiff+0xee>
    842e:	00652823          	sw	t1,16(a0)
    8432:	b795                	j	8396 <__mdiff+0x2c>
    8434:	421c                	lw	a5,0(a2)
    8436:	0691                	addi	a3,a3,4
    8438:	0611                	addi	a2,a2,4
    843a:	00b7f733          	and	a4,a5,a1
    843e:	977a                	add	a4,a4,t5
    8440:	41075813          	srai	a6,a4,0x10
    8444:	83c1                	srli	a5,a5,0x10
    8446:	97c2                	add	a5,a5,a6
    8448:	4107df13          	srai	t5,a5,0x10
    844c:	8f6d                	and	a4,a4,a1
    844e:	07c2                	slli	a5,a5,0x10
    8450:	8fd9                	or	a5,a5,a4
    8452:	fef6ae23          	sw	a5,-4(a3)
    8456:	b7f9                	j	8424 <__mdiff+0xba>
    8458:	137d                	addi	t1,t1,-1
    845a:	b7f9                	j	8428 <__mdiff+0xbe>

0000845c <__d2b>:
__d2b():
    845c:	7179                	addi	sp,sp,-48
    845e:	d422                	sw	s0,40(sp)
    8460:	842e                	mv	s0,a1
    8462:	4585                	li	a1,1
    8464:	d226                	sw	s1,36(sp)
    8466:	d04a                	sw	s2,32(sp)
    8468:	84b2                	mv	s1,a2
    846a:	ce4e                	sw	s3,28(sp)
    846c:	cc52                	sw	s4,24(sp)
    846e:	893a                	mv	s2,a4
    8470:	d606                	sw	ra,44(sp)
    8472:	8a36                	mv	s4,a3
    8474:	9c5ff0ef          	jal	ra,7e38 <_Balloc>
    8478:	00100737          	lui	a4,0x100
    847c:	fff70793          	addi	a5,a4,-1 # fffff <_data_lma+0xf6423>
    8480:	8fe5                	and	a5,a5,s1
    8482:	80d1                	srli	s1,s1,0x14
    8484:	7ff4f493          	andi	s1,s1,2047
    8488:	89aa                	mv	s3,a0
    848a:	e0b5                	bnez	s1,84ee <__d2b+0x92>
    848c:	c63e                	sw	a5,12(sp)
    848e:	c42d                	beqz	s0,84f8 <__d2b+0x9c>
    8490:	0028                	addi	a0,sp,8
    8492:	c422                	sw	s0,8(sp)
    8494:	b4fff0ef          	jal	ra,7fe2 <__lo0bits>
    8498:	46a2                	lw	a3,8(sp)
    849a:	cd21                	beqz	a0,84f2 <__d2b+0x96>
    849c:	4732                	lw	a4,12(sp)
    849e:	02000793          	li	a5,32
    84a2:	8f89                	sub	a5,a5,a0
    84a4:	00f717b3          	sll	a5,a4,a5
    84a8:	8fd5                	or	a5,a5,a3
    84aa:	00a75733          	srl	a4,a4,a0
    84ae:	00f9aa23          	sw	a5,20(s3)
    84b2:	c63a                	sw	a4,12(sp)
    84b4:	4432                	lw	s0,12(sp)
    84b6:	0089ac23          	sw	s0,24(s3)
    84ba:	00803433          	snez	s0,s0
    84be:	0405                	addi	s0,s0,1
    84c0:	0089a823          	sw	s0,16(s3)
    84c4:	c4b9                	beqz	s1,8512 <__d2b+0xb6>
    84c6:	bcd48493          	addi	s1,s1,-1075
    84ca:	94aa                	add	s1,s1,a0
    84cc:	03500793          	li	a5,53
    84d0:	009a2023          	sw	s1,0(s4)
    84d4:	40a78533          	sub	a0,a5,a0
    84d8:	00a92023          	sw	a0,0(s2)
    84dc:	50b2                	lw	ra,44(sp)
    84de:	5422                	lw	s0,40(sp)
    84e0:	854e                	mv	a0,s3
    84e2:	5492                	lw	s1,36(sp)
    84e4:	5902                	lw	s2,32(sp)
    84e6:	49f2                	lw	s3,28(sp)
    84e8:	4a62                	lw	s4,24(sp)
    84ea:	6145                	addi	sp,sp,48
    84ec:	8082                	ret
    84ee:	8fd9                	or	a5,a5,a4
    84f0:	bf71                	j	848c <__d2b+0x30>
    84f2:	00d9aa23          	sw	a3,20(s3)
    84f6:	bf7d                	j	84b4 <__d2b+0x58>
    84f8:	0068                	addi	a0,sp,12
    84fa:	ae9ff0ef          	jal	ra,7fe2 <__lo0bits>
    84fe:	47b2                	lw	a5,12(sp)
    8500:	02050513          	addi	a0,a0,32
    8504:	4405                	li	s0,1
    8506:	00f9aa23          	sw	a5,20(s3)
    850a:	4785                	li	a5,1
    850c:	00f9a823          	sw	a5,16(s3)
    8510:	bf55                	j	84c4 <__d2b+0x68>
    8512:	00241793          	slli	a5,s0,0x2
    8516:	bce50513          	addi	a0,a0,-1074
    851a:	97ce                	add	a5,a5,s3
    851c:	00aa2023          	sw	a0,0(s4)
    8520:	4b88                	lw	a0,16(a5)
    8522:	0416                	slli	s0,s0,0x5
    8524:	a79ff0ef          	jal	ra,7f9c <__hi0bits>
    8528:	8c09                	sub	s0,s0,a0
    852a:	00892023          	sw	s0,0(s2)
    852e:	b77d                	j	84dc <__d2b+0x80>

00008530 <_calloc_r>:
_calloc_r():
    8530:	02c58633          	mul	a2,a1,a2
    8534:	1101                	addi	sp,sp,-32
    8536:	cc22                	sw	s0,24(sp)
    8538:	ce06                	sw	ra,28(sp)
    853a:	85b2                	mv	a1,a2
    853c:	c632                	sw	a2,12(sp)
    853e:	20c1                	jal	85fe <_malloc_r>
    8540:	842a                	mv	s0,a0
    8542:	c509                	beqz	a0,854c <_calloc_r+0x1c>
    8544:	4632                	lw	a2,12(sp)
    8546:	4581                	li	a1,0
    8548:	ccdf70ef          	jal	ra,214 <memset>
    854c:	8522                	mv	a0,s0
    854e:	40f2                	lw	ra,28(sp)
    8550:	4462                	lw	s0,24(sp)
    8552:	6105                	addi	sp,sp,32
    8554:	8082                	ret

00008556 <_free_r>:
_free_r():
    8556:	c1dd                	beqz	a1,85fc <_free_r+0xa6>
    8558:	ffc5a783          	lw	a5,-4(a1) # fffc <_data_lma+0x6420>
    855c:	1141                	addi	sp,sp,-16
    855e:	c422                	sw	s0,8(sp)
    8560:	c606                	sw	ra,12(sp)
    8562:	c226                	sw	s1,4(sp)
    8564:	ffc58413          	addi	s0,a1,-4
    8568:	0007d363          	bgez	a5,856e <_free_r+0x18>
    856c:	943e                	add	s0,s0,a5
    856e:	84aa                	mv	s1,a0
    8570:	217000ef          	jal	ra,8f86 <__malloc_lock>
    8574:	87018793          	addi	a5,gp,-1936 # 200002a0 <__malloc_free_list>
    8578:	439c                	lw	a5,0(a5)
    857a:	ef81                	bnez	a5,8592 <_free_r+0x3c>
    857c:	00042223          	sw	zero,4(s0)
    8580:	8681a823          	sw	s0,-1936(gp) # 200002a0 <__malloc_free_list>
    8584:	4422                	lw	s0,8(sp)
    8586:	40b2                	lw	ra,12(sp)
    8588:	8526                	mv	a0,s1
    858a:	4492                	lw	s1,4(sp)
    858c:	0141                	addi	sp,sp,16
    858e:	1fb0006f          	j	8f88 <__malloc_unlock>
    8592:	00f47e63          	bgeu	s0,a5,85ae <_free_r+0x58>
    8596:	4014                	lw	a3,0(s0)
    8598:	00d40733          	add	a4,s0,a3
    859c:	00e79663          	bne	a5,a4,85a8 <_free_r+0x52>
    85a0:	4398                	lw	a4,0(a5)
    85a2:	43dc                	lw	a5,4(a5)
    85a4:	9736                	add	a4,a4,a3
    85a6:	c018                	sw	a4,0(s0)
    85a8:	c05c                	sw	a5,4(s0)
    85aa:	bfd9                	j	8580 <_free_r+0x2a>
    85ac:	87ba                	mv	a5,a4
    85ae:	43d8                	lw	a4,4(a5)
    85b0:	c319                	beqz	a4,85b6 <_free_r+0x60>
    85b2:	fee47de3          	bgeu	s0,a4,85ac <_free_r+0x56>
    85b6:	4394                	lw	a3,0(a5)
    85b8:	00d78633          	add	a2,a5,a3
    85bc:	00861f63          	bne	a2,s0,85da <_free_r+0x84>
    85c0:	4010                	lw	a2,0(s0)
    85c2:	96b2                	add	a3,a3,a2
    85c4:	c394                	sw	a3,0(a5)
    85c6:	00d78633          	add	a2,a5,a3
    85ca:	fac71de3          	bne	a4,a2,8584 <_free_r+0x2e>
    85ce:	4310                	lw	a2,0(a4)
    85d0:	4358                	lw	a4,4(a4)
    85d2:	96b2                	add	a3,a3,a2
    85d4:	c394                	sw	a3,0(a5)
    85d6:	c3d8                	sw	a4,4(a5)
    85d8:	b775                	j	8584 <_free_r+0x2e>
    85da:	00c47563          	bgeu	s0,a2,85e4 <_free_r+0x8e>
    85de:	47b1                	li	a5,12
    85e0:	c09c                	sw	a5,0(s1)
    85e2:	b74d                	j	8584 <_free_r+0x2e>
    85e4:	4010                	lw	a2,0(s0)
    85e6:	00c406b3          	add	a3,s0,a2
    85ea:	00d71663          	bne	a4,a3,85f6 <_free_r+0xa0>
    85ee:	4314                	lw	a3,0(a4)
    85f0:	4358                	lw	a4,4(a4)
    85f2:	96b2                	add	a3,a3,a2
    85f4:	c014                	sw	a3,0(s0)
    85f6:	c058                	sw	a4,4(s0)
    85f8:	c3c0                	sw	s0,4(a5)
    85fa:	b769                	j	8584 <_free_r+0x2e>
    85fc:	8082                	ret

000085fe <_malloc_r>:
_malloc_r():
    85fe:	1101                	addi	sp,sp,-32
    8600:	ca26                	sw	s1,20(sp)
    8602:	00358493          	addi	s1,a1,3
    8606:	98f1                	andi	s1,s1,-4
    8608:	ce06                	sw	ra,28(sp)
    860a:	cc22                	sw	s0,24(sp)
    860c:	c84a                	sw	s2,16(sp)
    860e:	c64e                	sw	s3,12(sp)
    8610:	04a1                	addi	s1,s1,8
    8612:	47b1                	li	a5,12
    8614:	04f4f363          	bgeu	s1,a5,865a <_malloc_r+0x5c>
    8618:	44b1                	li	s1,12
    861a:	04b4e263          	bltu	s1,a1,865e <_malloc_r+0x60>
    861e:	892a                	mv	s2,a0
    8620:	167000ef          	jal	ra,8f86 <__malloc_lock>
    8624:	87018793          	addi	a5,gp,-1936 # 200002a0 <__malloc_free_list>
    8628:	4398                	lw	a4,0(a5)
    862a:	843a                	mv	s0,a4
    862c:	e039                	bnez	s0,8672 <_malloc_r+0x74>
    862e:	87418793          	addi	a5,gp,-1932 # 200002a4 <__malloc_sbrk_start>
    8632:	439c                	lw	a5,0(a5)
    8634:	e791                	bnez	a5,8640 <_malloc_r+0x42>
    8636:	4581                	li	a1,0
    8638:	854a                	mv	a0,s2
    863a:	2f09                	jal	8d4c <_sbrk_r>
    863c:	86a1aa23          	sw	a0,-1932(gp) # 200002a4 <__malloc_sbrk_start>
    8640:	85a6                	mv	a1,s1
    8642:	854a                	mv	a0,s2
    8644:	2721                	jal	8d4c <_sbrk_r>
    8646:	59fd                	li	s3,-1
    8648:	07351963          	bne	a0,s3,86ba <_malloc_r+0xbc>
    864c:	47b1                	li	a5,12
    864e:	00f92023          	sw	a5,0(s2)
    8652:	854a                	mv	a0,s2
    8654:	135000ef          	jal	ra,8f88 <__malloc_unlock>
    8658:	a029                	j	8662 <_malloc_r+0x64>
    865a:	fc04d0e3          	bgez	s1,861a <_malloc_r+0x1c>
    865e:	47b1                	li	a5,12
    8660:	c11c                	sw	a5,0(a0)
    8662:	4501                	li	a0,0
    8664:	40f2                	lw	ra,28(sp)
    8666:	4462                	lw	s0,24(sp)
    8668:	44d2                	lw	s1,20(sp)
    866a:	4942                	lw	s2,16(sp)
    866c:	49b2                	lw	s3,12(sp)
    866e:	6105                	addi	sp,sp,32
    8670:	8082                	ret
    8672:	401c                	lw	a5,0(s0)
    8674:	8f85                	sub	a5,a5,s1
    8676:	0207cf63          	bltz	a5,86b4 <_malloc_r+0xb6>
    867a:	46ad                	li	a3,11
    867c:	00f6f663          	bgeu	a3,a5,8688 <_malloc_r+0x8a>
    8680:	c01c                	sw	a5,0(s0)
    8682:	943e                	add	s0,s0,a5
    8684:	c004                	sw	s1,0(s0)
    8686:	a031                	j	8692 <_malloc_r+0x94>
    8688:	405c                	lw	a5,4(s0)
    868a:	02871363          	bne	a4,s0,86b0 <_malloc_r+0xb2>
    868e:	86f1a823          	sw	a5,-1936(gp) # 200002a0 <__malloc_free_list>
    8692:	854a                	mv	a0,s2
    8694:	0f5000ef          	jal	ra,8f88 <__malloc_unlock>
    8698:	00b40513          	addi	a0,s0,11
    869c:	00440793          	addi	a5,s0,4
    86a0:	9961                	andi	a0,a0,-8
    86a2:	40f50733          	sub	a4,a0,a5
    86a6:	df5d                	beqz	a4,8664 <_malloc_r+0x66>
    86a8:	943a                	add	s0,s0,a4
    86aa:	8f89                	sub	a5,a5,a0
    86ac:	c01c                	sw	a5,0(s0)
    86ae:	bf5d                	j	8664 <_malloc_r+0x66>
    86b0:	c35c                	sw	a5,4(a4)
    86b2:	b7c5                	j	8692 <_malloc_r+0x94>
    86b4:	8722                	mv	a4,s0
    86b6:	4040                	lw	s0,4(s0)
    86b8:	bf95                	j	862c <_malloc_r+0x2e>
    86ba:	00350413          	addi	s0,a0,3
    86be:	9871                	andi	s0,s0,-4
    86c0:	fc8502e3          	beq	a0,s0,8684 <_malloc_r+0x86>
    86c4:	40a405b3          	sub	a1,s0,a0
    86c8:	854a                	mv	a0,s2
    86ca:	2549                	jal	8d4c <_sbrk_r>
    86cc:	fb351ce3          	bne	a0,s3,8684 <_malloc_r+0x86>
    86d0:	bfb5                	j	864c <_malloc_r+0x4e>

000086d2 <__ssputs_r>:
__ssputs_r():
    86d2:	1101                	addi	sp,sp,-32
    86d4:	c84a                	sw	s2,16(sp)
    86d6:	0085a903          	lw	s2,8(a1)
    86da:	cc22                	sw	s0,24(sp)
    86dc:	c452                	sw	s4,8(sp)
    86de:	c05a                	sw	s6,0(sp)
    86e0:	ce06                	sw	ra,28(sp)
    86e2:	ca26                	sw	s1,20(sp)
    86e4:	c64e                	sw	s3,12(sp)
    86e6:	c256                	sw	s5,4(sp)
    86e8:	842e                	mv	s0,a1
    86ea:	8b32                	mv	s6,a2
    86ec:	8a36                	mv	s4,a3
    86ee:	0926ee63          	bltu	a3,s2,878a <__ssputs_r+0xb8>
    86f2:	00c5d783          	lhu	a5,12(a1)
    86f6:	4807f713          	andi	a4,a5,1152
    86fa:	c751                	beqz	a4,8786 <__ssputs_r+0xb4>
    86fc:	4004                	lw	s1,0(s0)
    86fe:	498c                	lw	a1,16(a1)
    8700:	4858                	lw	a4,20(s0)
    8702:	8aaa                	mv	s5,a0
    8704:	40b489b3          	sub	s3,s1,a1
    8708:	448d                	li	s1,3
    870a:	02e484b3          	mul	s1,s1,a4
    870e:	4709                	li	a4,2
    8710:	02e4c4b3          	div	s1,s1,a4
    8714:	00168713          	addi	a4,a3,1
    8718:	974e                	add	a4,a4,s3
    871a:	00e4f363          	bgeu	s1,a4,8720 <__ssputs_r+0x4e>
    871e:	84ba                	mv	s1,a4
    8720:	4007f793          	andi	a5,a5,1024
    8724:	c3d9                	beqz	a5,87aa <__ssputs_r+0xd8>
    8726:	85a6                	mv	a1,s1
    8728:	8556                	mv	a0,s5
    872a:	ed5ff0ef          	jal	ra,85fe <_malloc_r>
    872e:	892a                	mv	s2,a0
    8730:	e50d                	bnez	a0,875a <__ssputs_r+0x88>
    8732:	47b1                	li	a5,12
    8734:	00faa023          	sw	a5,0(s5)
    8738:	00c45783          	lhu	a5,12(s0)
    873c:	557d                	li	a0,-1
    873e:	0407e793          	ori	a5,a5,64
    8742:	00f41623          	sh	a5,12(s0)
    8746:	40f2                	lw	ra,28(sp)
    8748:	4462                	lw	s0,24(sp)
    874a:	44d2                	lw	s1,20(sp)
    874c:	4942                	lw	s2,16(sp)
    874e:	49b2                	lw	s3,12(sp)
    8750:	4a22                	lw	s4,8(sp)
    8752:	4a92                	lw	s5,4(sp)
    8754:	4b02                	lw	s6,0(sp)
    8756:	6105                	addi	sp,sp,32
    8758:	8082                	ret
    875a:	480c                	lw	a1,16(s0)
    875c:	864e                	mv	a2,s3
    875e:	f58fd0ef          	jal	ra,5eb6 <memcpy>
    8762:	00c45783          	lhu	a5,12(s0)
    8766:	b7f7f793          	andi	a5,a5,-1153
    876a:	0807e793          	ori	a5,a5,128
    876e:	00f41623          	sh	a5,12(s0)
    8772:	01242823          	sw	s2,16(s0)
    8776:	c844                	sw	s1,20(s0)
    8778:	994e                	add	s2,s2,s3
    877a:	413484b3          	sub	s1,s1,s3
    877e:	01242023          	sw	s2,0(s0)
    8782:	c404                	sw	s1,8(s0)
    8784:	8952                	mv	s2,s4
    8786:	012a7363          	bgeu	s4,s2,878c <__ssputs_r+0xba>
    878a:	8952                	mv	s2,s4
    878c:	4008                	lw	a0,0(s0)
    878e:	864a                	mv	a2,s2
    8790:	85da                	mv	a1,s6
    8792:	7aa000ef          	jal	ra,8f3c <memmove>
    8796:	441c                	lw	a5,8(s0)
    8798:	4501                	li	a0,0
    879a:	412787b3          	sub	a5,a5,s2
    879e:	c41c                	sw	a5,8(s0)
    87a0:	401c                	lw	a5,0(s0)
    87a2:	993e                	add	s2,s2,a5
    87a4:	01242023          	sw	s2,0(s0)
    87a8:	bf79                	j	8746 <__ssputs_r+0x74>
    87aa:	8626                	mv	a2,s1
    87ac:	8556                	mv	a0,s5
    87ae:	7dc000ef          	jal	ra,8f8a <_realloc_r>
    87b2:	892a                	mv	s2,a0
    87b4:	fd5d                	bnez	a0,8772 <__ssputs_r+0xa0>
    87b6:	480c                	lw	a1,16(s0)
    87b8:	8556                	mv	a0,s5
    87ba:	d9dff0ef          	jal	ra,8556 <_free_r>
    87be:	bf95                	j	8732 <__ssputs_r+0x60>

000087c0 <_svfiprintf_r>:
_svfprintf_r():
    87c0:	00c5d783          	lhu	a5,12(a1)
    87c4:	7171                	addi	sp,sp,-176
    87c6:	d326                	sw	s1,164(sp)
    87c8:	d14a                	sw	s2,160(sp)
    87ca:	cf4e                	sw	s3,156(sp)
    87cc:	d706                	sw	ra,172(sp)
    87ce:	d522                	sw	s0,168(sp)
    87d0:	cd52                	sw	s4,152(sp)
    87d2:	cb56                	sw	s5,148(sp)
    87d4:	c95a                	sw	s6,144(sp)
    87d6:	c75e                	sw	s7,140(sp)
    87d8:	c562                	sw	s8,136(sp)
    87da:	c366                	sw	s9,132(sp)
    87dc:	0807f793          	andi	a5,a5,128
    87e0:	89aa                	mv	s3,a0
    87e2:	892e                	mv	s2,a1
    87e4:	84b2                	mv	s1,a2
    87e6:	c3b9                	beqz	a5,882c <_svfiprintf_r+0x6c>
    87e8:	499c                	lw	a5,16(a1)
    87ea:	e3a9                	bnez	a5,882c <_svfiprintf_r+0x6c>
    87ec:	04000593          	li	a1,64
    87f0:	c636                	sw	a3,12(sp)
    87f2:	e0dff0ef          	jal	ra,85fe <_malloc_r>
    87f6:	00a92023          	sw	a0,0(s2)
    87fa:	00a92823          	sw	a0,16(s2)
    87fe:	46b2                	lw	a3,12(sp)
    8800:	e115                	bnez	a0,8824 <_svfiprintf_r+0x64>
    8802:	47b1                	li	a5,12
    8804:	00f9a023          	sw	a5,0(s3)
    8808:	557d                	li	a0,-1
    880a:	50ba                	lw	ra,172(sp)
    880c:	542a                	lw	s0,168(sp)
    880e:	549a                	lw	s1,164(sp)
    8810:	590a                	lw	s2,160(sp)
    8812:	49fa                	lw	s3,156(sp)
    8814:	4a6a                	lw	s4,152(sp)
    8816:	4ada                	lw	s5,148(sp)
    8818:	4b4a                	lw	s6,144(sp)
    881a:	4bba                	lw	s7,140(sp)
    881c:	4c2a                	lw	s8,136(sp)
    881e:	4c9a                	lw	s9,132(sp)
    8820:	614d                	addi	sp,sp,176
    8822:	8082                	ret
    8824:	04000793          	li	a5,64
    8828:	00f92a23          	sw	a5,20(s2)
    882c:	02000793          	li	a5,32
    8830:	02f10ca3          	sb	a5,57(sp)
    8834:	03000793          	li	a5,48
    8838:	da02                	sw	zero,52(sp)
    883a:	02f10d23          	sb	a5,58(sp)
    883e:	ce36                	sw	a3,28(sp)
    8840:	02500b93          	li	s7,37
    8844:	00001a97          	auipc	s5,0x1
    8848:	270a8a93          	addi	s5,s5,624 # 9ab4 <p05.3319+0xc>
    884c:	4c05                	li	s8,1
    884e:	4b29                	li	s6,10
    8850:	8426                	mv	s0,s1
    8852:	00044783          	lbu	a5,0(s0)
    8856:	c399                	beqz	a5,885c <_svfiprintf_r+0x9c>
    8858:	09779d63          	bne	a5,s7,88f2 <_svfiprintf_r+0x132>
    885c:	40940cb3          	sub	s9,s0,s1
    8860:	000c8e63          	beqz	s9,887c <_svfiprintf_r+0xbc>
    8864:	86e6                	mv	a3,s9
    8866:	8626                	mv	a2,s1
    8868:	85ca                	mv	a1,s2
    886a:	854e                	mv	a0,s3
    886c:	e67ff0ef          	jal	ra,86d2 <__ssputs_r>
    8870:	57fd                	li	a5,-1
    8872:	1af50263          	beq	a0,a5,8a16 <_svfiprintf_r+0x256>
    8876:	56d2                	lw	a3,52(sp)
    8878:	96e6                	add	a3,a3,s9
    887a:	da36                	sw	a3,52(sp)
    887c:	00044783          	lbu	a5,0(s0)
    8880:	18078b63          	beqz	a5,8a16 <_svfiprintf_r+0x256>
    8884:	57fd                	li	a5,-1
    8886:	00140493          	addi	s1,s0,1
    888a:	d002                	sw	zero,32(sp)
    888c:	d602                	sw	zero,44(sp)
    888e:	d23e                	sw	a5,36(sp)
    8890:	d402                	sw	zero,40(sp)
    8892:	060101a3          	sb	zero,99(sp)
    8896:	dc82                	sw	zero,120(sp)
    8898:	0004c583          	lbu	a1,0(s1)
    889c:	4615                	li	a2,5
    889e:	8556                	mv	a0,s5
    88a0:	d7eff0ef          	jal	ra,7e1e <memchr>
    88a4:	00148413          	addi	s0,s1,1
    88a8:	5782                	lw	a5,32(sp)
    88aa:	e531                	bnez	a0,88f6 <_svfiprintf_r+0x136>
    88ac:	0107f713          	andi	a4,a5,16
    88b0:	c709                	beqz	a4,88ba <_svfiprintf_r+0xfa>
    88b2:	02000713          	li	a4,32
    88b6:	06e101a3          	sb	a4,99(sp)
    88ba:	0087f713          	andi	a4,a5,8
    88be:	c709                	beqz	a4,88c8 <_svfiprintf_r+0x108>
    88c0:	02b00713          	li	a4,43
    88c4:	06e101a3          	sb	a4,99(sp)
    88c8:	0004c683          	lbu	a3,0(s1)
    88cc:	02a00713          	li	a4,42
    88d0:	02e68b63          	beq	a3,a4,8906 <_svfiprintf_r+0x146>
    88d4:	57b2                	lw	a5,44(sp)
    88d6:	8426                	mv	s0,s1
    88d8:	4681                	li	a3,0
    88da:	4625                	li	a2,9
    88dc:	00044703          	lbu	a4,0(s0)
    88e0:	00140593          	addi	a1,s0,1
    88e4:	fd070713          	addi	a4,a4,-48
    88e8:	06e67463          	bgeu	a2,a4,8950 <_svfiprintf_r+0x190>
    88ec:	c68d                	beqz	a3,8916 <_svfiprintf_r+0x156>
    88ee:	d63e                	sw	a5,44(sp)
    88f0:	a01d                	j	8916 <_svfiprintf_r+0x156>
    88f2:	0405                	addi	s0,s0,1
    88f4:	bfb9                	j	8852 <_svfiprintf_r+0x92>
    88f6:	41550533          	sub	a0,a0,s5
    88fa:	00ac1533          	sll	a0,s8,a0
    88fe:	8fc9                	or	a5,a5,a0
    8900:	d03e                	sw	a5,32(sp)
    8902:	84a2                	mv	s1,s0
    8904:	bf51                	j	8898 <_svfiprintf_r+0xd8>
    8906:	4772                	lw	a4,28(sp)
    8908:	00470693          	addi	a3,a4,4
    890c:	4318                	lw	a4,0(a4)
    890e:	ce36                	sw	a3,28(sp)
    8910:	02074963          	bltz	a4,8942 <_svfiprintf_r+0x182>
    8914:	d63a                	sw	a4,44(sp)
    8916:	00044703          	lbu	a4,0(s0)
    891a:	02e00793          	li	a5,46
    891e:	04f71f63          	bne	a4,a5,897c <_svfiprintf_r+0x1bc>
    8922:	00144703          	lbu	a4,1(s0)
    8926:	02a00793          	li	a5,42
    892a:	02f71b63          	bne	a4,a5,8960 <_svfiprintf_r+0x1a0>
    892e:	47f2                	lw	a5,28(sp)
    8930:	0409                	addi	s0,s0,2
    8932:	00478713          	addi	a4,a5,4
    8936:	439c                	lw	a5,0(a5)
    8938:	ce3a                	sw	a4,28(sp)
    893a:	0207c163          	bltz	a5,895c <_svfiprintf_r+0x19c>
    893e:	d23e                	sw	a5,36(sp)
    8940:	a835                	j	897c <_svfiprintf_r+0x1bc>
    8942:	40e00733          	neg	a4,a4
    8946:	0027e793          	ori	a5,a5,2
    894a:	d63a                	sw	a4,44(sp)
    894c:	d03e                	sw	a5,32(sp)
    894e:	b7e1                	j	8916 <_svfiprintf_r+0x156>
    8950:	036787b3          	mul	a5,a5,s6
    8954:	4685                	li	a3,1
    8956:	842e                	mv	s0,a1
    8958:	97ba                	add	a5,a5,a4
    895a:	b749                	j	88dc <_svfiprintf_r+0x11c>
    895c:	57fd                	li	a5,-1
    895e:	b7c5                	j	893e <_svfiprintf_r+0x17e>
    8960:	0405                	addi	s0,s0,1
    8962:	d202                	sw	zero,36(sp)
    8964:	4681                	li	a3,0
    8966:	4781                	li	a5,0
    8968:	4625                	li	a2,9
    896a:	00044703          	lbu	a4,0(s0)
    896e:	00140593          	addi	a1,s0,1
    8972:	fd070713          	addi	a4,a4,-48
    8976:	06e67863          	bgeu	a2,a4,89e6 <_svfiprintf_r+0x226>
    897a:	f2f1                	bnez	a3,893e <_svfiprintf_r+0x17e>
    897c:	00044583          	lbu	a1,0(s0)
    8980:	460d                	li	a2,3
    8982:	00001517          	auipc	a0,0x1
    8986:	13a50513          	addi	a0,a0,314 # 9abc <p05.3319+0x14>
    898a:	c94ff0ef          	jal	ra,7e1e <memchr>
    898e:	cd11                	beqz	a0,89aa <_svfiprintf_r+0x1ea>
    8990:	00001797          	auipc	a5,0x1
    8994:	12c78793          	addi	a5,a5,300 # 9abc <p05.3319+0x14>
    8998:	8d1d                	sub	a0,a0,a5
    899a:	04000793          	li	a5,64
    899e:	00a797b3          	sll	a5,a5,a0
    89a2:	5502                	lw	a0,32(sp)
    89a4:	0405                	addi	s0,s0,1
    89a6:	8d5d                	or	a0,a0,a5
    89a8:	d02a                	sw	a0,32(sp)
    89aa:	00044583          	lbu	a1,0(s0)
    89ae:	4619                	li	a2,6
    89b0:	00001517          	auipc	a0,0x1
    89b4:	11050513          	addi	a0,a0,272 # 9ac0 <p05.3319+0x18>
    89b8:	00140493          	addi	s1,s0,1
    89bc:	02b10c23          	sb	a1,56(sp)
    89c0:	c5eff0ef          	jal	ra,7e1e <memchr>
    89c4:	c135                	beqz	a0,8a28 <_svfiprintf_r+0x268>
    89c6:	ffffd797          	auipc	a5,0xffffd
    89ca:	72078793          	addi	a5,a5,1824 # 60e6 <_printf_float>
    89ce:	e795                	bnez	a5,89fa <_svfiprintf_r+0x23a>
    89d0:	5702                	lw	a4,32(sp)
    89d2:	47f2                	lw	a5,28(sp)
    89d4:	10077713          	andi	a4,a4,256
    89d8:	cf09                	beqz	a4,89f2 <_svfiprintf_r+0x232>
    89da:	0791                	addi	a5,a5,4
    89dc:	ce3e                	sw	a5,28(sp)
    89de:	57d2                	lw	a5,52(sp)
    89e0:	97d2                	add	a5,a5,s4
    89e2:	da3e                	sw	a5,52(sp)
    89e4:	b5b5                	j	8850 <_svfiprintf_r+0x90>
    89e6:	036787b3          	mul	a5,a5,s6
    89ea:	4685                	li	a3,1
    89ec:	842e                	mv	s0,a1
    89ee:	97ba                	add	a5,a5,a4
    89f0:	bfad                	j	896a <_svfiprintf_r+0x1aa>
    89f2:	079d                	addi	a5,a5,7
    89f4:	9be1                	andi	a5,a5,-8
    89f6:	07a1                	addi	a5,a5,8
    89f8:	b7d5                	j	89dc <_svfiprintf_r+0x21c>
    89fa:	0878                	addi	a4,sp,28
    89fc:	00000697          	auipc	a3,0x0
    8a00:	cd668693          	addi	a3,a3,-810 # 86d2 <__ssputs_r>
    8a04:	864a                	mv	a2,s2
    8a06:	100c                	addi	a1,sp,32
    8a08:	854e                	mv	a0,s3
    8a0a:	edcfd0ef          	jal	ra,60e6 <_printf_float>
    8a0e:	57fd                	li	a5,-1
    8a10:	8a2a                	mv	s4,a0
    8a12:	fcf516e3          	bne	a0,a5,89de <_svfiprintf_r+0x21e>
    8a16:	00c95783          	lhu	a5,12(s2)
    8a1a:	557d                	li	a0,-1
    8a1c:	0407f793          	andi	a5,a5,64
    8a20:	de0795e3          	bnez	a5,880a <_svfiprintf_r+0x4a>
    8a24:	5552                	lw	a0,52(sp)
    8a26:	b3d5                	j	880a <_svfiprintf_r+0x4a>
    8a28:	0878                	addi	a4,sp,28
    8a2a:	00000697          	auipc	a3,0x0
    8a2e:	ca868693          	addi	a3,a3,-856 # 86d2 <__ssputs_r>
    8a32:	864a                	mv	a2,s2
    8a34:	100c                	addi	a1,sp,32
    8a36:	854e                	mv	a0,s3
    8a38:	c7ffd0ef          	jal	ra,66b6 <_printf_i>
    8a3c:	bfc9                	j	8a0e <_svfiprintf_r+0x24e>

00008a3e <__sfputc_r>:
__sfputc_r():
    8a3e:	461c                	lw	a5,8(a2)
    8a40:	17fd                	addi	a5,a5,-1
    8a42:	c61c                	sw	a5,8(a2)
    8a44:	0007da63          	bgez	a5,8a58 <__sfputc_r+0x1a>
    8a48:	4e18                	lw	a4,24(a2)
    8a4a:	00e7c563          	blt	a5,a4,8a54 <__sfputc_r+0x16>
    8a4e:	47a9                	li	a5,10
    8a50:	00f59463          	bne	a1,a5,8a58 <__sfputc_r+0x1a>
    8a54:	fa3fd06f          	j	69f6 <__swbuf_r>
    8a58:	421c                	lw	a5,0(a2)
    8a5a:	852e                	mv	a0,a1
    8a5c:	00178713          	addi	a4,a5,1
    8a60:	c218                	sw	a4,0(a2)
    8a62:	00b78023          	sb	a1,0(a5)
    8a66:	8082                	ret

00008a68 <__sfputs_r>:
__sfputs_r():
    8a68:	1101                	addi	sp,sp,-32
    8a6a:	cc22                	sw	s0,24(sp)
    8a6c:	ca26                	sw	s1,20(sp)
    8a6e:	c84a                	sw	s2,16(sp)
    8a70:	c64e                	sw	s3,12(sp)
    8a72:	c452                	sw	s4,8(sp)
    8a74:	ce06                	sw	ra,28(sp)
    8a76:	892a                	mv	s2,a0
    8a78:	89ae                	mv	s3,a1
    8a7a:	8432                	mv	s0,a2
    8a7c:	00d604b3          	add	s1,a2,a3
    8a80:	5a7d                	li	s4,-1
    8a82:	00941463          	bne	s0,s1,8a8a <__sfputs_r+0x22>
    8a86:	4501                	li	a0,0
    8a88:	a811                	j	8a9c <__sfputs_r+0x34>
    8a8a:	00044583          	lbu	a1,0(s0)
    8a8e:	864e                	mv	a2,s3
    8a90:	854a                	mv	a0,s2
    8a92:	fadff0ef          	jal	ra,8a3e <__sfputc_r>
    8a96:	0405                	addi	s0,s0,1
    8a98:	ff4515e3          	bne	a0,s4,8a82 <__sfputs_r+0x1a>
    8a9c:	40f2                	lw	ra,28(sp)
    8a9e:	4462                	lw	s0,24(sp)
    8aa0:	44d2                	lw	s1,20(sp)
    8aa2:	4942                	lw	s2,16(sp)
    8aa4:	49b2                	lw	s3,12(sp)
    8aa6:	4a22                	lw	s4,8(sp)
    8aa8:	6105                	addi	sp,sp,32
    8aaa:	8082                	ret

00008aac <_vfiprintf_r>:
_vfiprintf_r():
    8aac:	7135                	addi	sp,sp,-160
    8aae:	cd22                	sw	s0,152(sp)
    8ab0:	cb26                	sw	s1,148(sp)
    8ab2:	c94a                	sw	s2,144(sp)
    8ab4:	c74e                	sw	s3,140(sp)
    8ab6:	cf06                	sw	ra,156(sp)
    8ab8:	c552                	sw	s4,136(sp)
    8aba:	c356                	sw	s5,132(sp)
    8abc:	c15a                	sw	s6,128(sp)
    8abe:	dede                	sw	s7,124(sp)
    8ac0:	dce2                	sw	s8,120(sp)
    8ac2:	dae6                	sw	s9,116(sp)
    8ac4:	89aa                	mv	s3,a0
    8ac6:	84ae                	mv	s1,a1
    8ac8:	8932                	mv	s2,a2
    8aca:	8436                	mv	s0,a3
    8acc:	c509                	beqz	a0,8ad6 <_vfiprintf_r+0x2a>
    8ace:	4d1c                	lw	a5,24(a0)
    8ad0:	e399                	bnez	a5,8ad6 <_vfiprintf_r+0x2a>
    8ad2:	8b4ff0ef          	jal	ra,7b86 <__sinit>
    8ad6:	00001797          	auipc	a5,0x1
    8ada:	ea278793          	addi	a5,a5,-350 # 9978 <__sf_fake_stdin>
    8ade:	0cf49d63          	bne	s1,a5,8bb8 <_vfiprintf_r+0x10c>
    8ae2:	0049a483          	lw	s1,4(s3)
    8ae6:	00c4d783          	lhu	a5,12(s1)
    8aea:	8ba1                	andi	a5,a5,8
    8aec:	cbe5                	beqz	a5,8bdc <_vfiprintf_r+0x130>
    8aee:	489c                	lw	a5,16(s1)
    8af0:	c7f5                	beqz	a5,8bdc <_vfiprintf_r+0x130>
    8af2:	02000793          	li	a5,32
    8af6:	02f104a3          	sb	a5,41(sp)
    8afa:	03000793          	li	a5,48
    8afe:	d202                	sw	zero,36(sp)
    8b00:	02f10523          	sb	a5,42(sp)
    8b04:	c622                	sw	s0,12(sp)
    8b06:	02500b93          	li	s7,37
    8b0a:	00001a97          	auipc	s5,0x1
    8b0e:	faaa8a93          	addi	s5,s5,-86 # 9ab4 <p05.3319+0xc>
    8b12:	4c05                	li	s8,1
    8b14:	4b29                	li	s6,10
    8b16:	844a                	mv	s0,s2
    8b18:	00044783          	lbu	a5,0(s0)
    8b1c:	c399                	beqz	a5,8b22 <_vfiprintf_r+0x76>
    8b1e:	0f779263          	bne	a5,s7,8c02 <_vfiprintf_r+0x156>
    8b22:	41240cb3          	sub	s9,s0,s2
    8b26:	000c8e63          	beqz	s9,8b42 <_vfiprintf_r+0x96>
    8b2a:	86e6                	mv	a3,s9
    8b2c:	864a                	mv	a2,s2
    8b2e:	85a6                	mv	a1,s1
    8b30:	854e                	mv	a0,s3
    8b32:	f37ff0ef          	jal	ra,8a68 <__sfputs_r>
    8b36:	57fd                	li	a5,-1
    8b38:	1ef50763          	beq	a0,a5,8d26 <_vfiprintf_r+0x27a>
    8b3c:	5692                	lw	a3,36(sp)
    8b3e:	96e6                	add	a3,a3,s9
    8b40:	d236                	sw	a3,36(sp)
    8b42:	00044783          	lbu	a5,0(s0)
    8b46:	1e078063          	beqz	a5,8d26 <_vfiprintf_r+0x27a>
    8b4a:	57fd                	li	a5,-1
    8b4c:	00140913          	addi	s2,s0,1
    8b50:	c802                	sw	zero,16(sp)
    8b52:	ce02                	sw	zero,28(sp)
    8b54:	ca3e                	sw	a5,20(sp)
    8b56:	cc02                	sw	zero,24(sp)
    8b58:	040109a3          	sb	zero,83(sp)
    8b5c:	d482                	sw	zero,104(sp)
    8b5e:	00094583          	lbu	a1,0(s2)
    8b62:	4615                	li	a2,5
    8b64:	8556                	mv	a0,s5
    8b66:	ab8ff0ef          	jal	ra,7e1e <memchr>
    8b6a:	00190413          	addi	s0,s2,1
    8b6e:	47c2                	lw	a5,16(sp)
    8b70:	e959                	bnez	a0,8c06 <_vfiprintf_r+0x15a>
    8b72:	0107f713          	andi	a4,a5,16
    8b76:	c709                	beqz	a4,8b80 <_vfiprintf_r+0xd4>
    8b78:	02000713          	li	a4,32
    8b7c:	04e109a3          	sb	a4,83(sp)
    8b80:	0087f713          	andi	a4,a5,8
    8b84:	c709                	beqz	a4,8b8e <_vfiprintf_r+0xe2>
    8b86:	02b00713          	li	a4,43
    8b8a:	04e109a3          	sb	a4,83(sp)
    8b8e:	00094683          	lbu	a3,0(s2)
    8b92:	02a00713          	li	a4,42
    8b96:	08e68063          	beq	a3,a4,8c16 <_vfiprintf_r+0x16a>
    8b9a:	47f2                	lw	a5,28(sp)
    8b9c:	844a                	mv	s0,s2
    8b9e:	4681                	li	a3,0
    8ba0:	4625                	li	a2,9
    8ba2:	00044703          	lbu	a4,0(s0)
    8ba6:	00140593          	addi	a1,s0,1
    8baa:	fd070713          	addi	a4,a4,-48
    8bae:	0ae67963          	bgeu	a2,a4,8c60 <_vfiprintf_r+0x1b4>
    8bb2:	cab5                	beqz	a3,8c26 <_vfiprintf_r+0x17a>
    8bb4:	ce3e                	sw	a5,28(sp)
    8bb6:	a885                	j	8c26 <_vfiprintf_r+0x17a>
    8bb8:	00001797          	auipc	a5,0x1
    8bbc:	de078793          	addi	a5,a5,-544 # 9998 <__sf_fake_stdout>
    8bc0:	00f49563          	bne	s1,a5,8bca <_vfiprintf_r+0x11e>
    8bc4:	0089a483          	lw	s1,8(s3)
    8bc8:	bf39                	j	8ae6 <_vfiprintf_r+0x3a>
    8bca:	00001797          	auipc	a5,0x1
    8bce:	d8e78793          	addi	a5,a5,-626 # 9958 <__sf_fake_stderr>
    8bd2:	f0f49ae3          	bne	s1,a5,8ae6 <_vfiprintf_r+0x3a>
    8bd6:	00c9a483          	lw	s1,12(s3)
    8bda:	b731                	j	8ae6 <_vfiprintf_r+0x3a>
    8bdc:	85a6                	mv	a1,s1
    8bde:	854e                	mv	a0,s3
    8be0:	eddfd0ef          	jal	ra,6abc <__swsetup_r>
    8be4:	d519                	beqz	a0,8af2 <_vfiprintf_r+0x46>
    8be6:	557d                	li	a0,-1
    8be8:	40fa                	lw	ra,156(sp)
    8bea:	446a                	lw	s0,152(sp)
    8bec:	44da                	lw	s1,148(sp)
    8bee:	494a                	lw	s2,144(sp)
    8bf0:	49ba                	lw	s3,140(sp)
    8bf2:	4a2a                	lw	s4,136(sp)
    8bf4:	4a9a                	lw	s5,132(sp)
    8bf6:	4b0a                	lw	s6,128(sp)
    8bf8:	5bf6                	lw	s7,124(sp)
    8bfa:	5c66                	lw	s8,120(sp)
    8bfc:	5cd6                	lw	s9,116(sp)
    8bfe:	610d                	addi	sp,sp,160
    8c00:	8082                	ret
    8c02:	0405                	addi	s0,s0,1
    8c04:	bf11                	j	8b18 <_vfiprintf_r+0x6c>
    8c06:	41550533          	sub	a0,a0,s5
    8c0a:	00ac1533          	sll	a0,s8,a0
    8c0e:	8fc9                	or	a5,a5,a0
    8c10:	c83e                	sw	a5,16(sp)
    8c12:	8922                	mv	s2,s0
    8c14:	b7a9                	j	8b5e <_vfiprintf_r+0xb2>
    8c16:	4732                	lw	a4,12(sp)
    8c18:	00470693          	addi	a3,a4,4
    8c1c:	4318                	lw	a4,0(a4)
    8c1e:	c636                	sw	a3,12(sp)
    8c20:	02074963          	bltz	a4,8c52 <_vfiprintf_r+0x1a6>
    8c24:	ce3a                	sw	a4,28(sp)
    8c26:	00044703          	lbu	a4,0(s0)
    8c2a:	02e00793          	li	a5,46
    8c2e:	04f71f63          	bne	a4,a5,8c8c <_vfiprintf_r+0x1e0>
    8c32:	00144703          	lbu	a4,1(s0)
    8c36:	02a00793          	li	a5,42
    8c3a:	02f71b63          	bne	a4,a5,8c70 <_vfiprintf_r+0x1c4>
    8c3e:	47b2                	lw	a5,12(sp)
    8c40:	0409                	addi	s0,s0,2
    8c42:	00478713          	addi	a4,a5,4
    8c46:	439c                	lw	a5,0(a5)
    8c48:	c63a                	sw	a4,12(sp)
    8c4a:	0207c163          	bltz	a5,8c6c <_vfiprintf_r+0x1c0>
    8c4e:	ca3e                	sw	a5,20(sp)
    8c50:	a835                	j	8c8c <_vfiprintf_r+0x1e0>
    8c52:	40e00733          	neg	a4,a4
    8c56:	0027e793          	ori	a5,a5,2
    8c5a:	ce3a                	sw	a4,28(sp)
    8c5c:	c83e                	sw	a5,16(sp)
    8c5e:	b7e1                	j	8c26 <_vfiprintf_r+0x17a>
    8c60:	036787b3          	mul	a5,a5,s6
    8c64:	4685                	li	a3,1
    8c66:	842e                	mv	s0,a1
    8c68:	97ba                	add	a5,a5,a4
    8c6a:	bf25                	j	8ba2 <_vfiprintf_r+0xf6>
    8c6c:	57fd                	li	a5,-1
    8c6e:	b7c5                	j	8c4e <_vfiprintf_r+0x1a2>
    8c70:	0405                	addi	s0,s0,1
    8c72:	ca02                	sw	zero,20(sp)
    8c74:	4681                	li	a3,0
    8c76:	4781                	li	a5,0
    8c78:	4625                	li	a2,9
    8c7a:	00044703          	lbu	a4,0(s0)
    8c7e:	00140593          	addi	a1,s0,1
    8c82:	fd070713          	addi	a4,a4,-48
    8c86:	06e67863          	bgeu	a2,a4,8cf6 <_vfiprintf_r+0x24a>
    8c8a:	f2f1                	bnez	a3,8c4e <_vfiprintf_r+0x1a2>
    8c8c:	00044583          	lbu	a1,0(s0)
    8c90:	460d                	li	a2,3
    8c92:	00001517          	auipc	a0,0x1
    8c96:	e2a50513          	addi	a0,a0,-470 # 9abc <p05.3319+0x14>
    8c9a:	984ff0ef          	jal	ra,7e1e <memchr>
    8c9e:	cd11                	beqz	a0,8cba <_vfiprintf_r+0x20e>
    8ca0:	00001797          	auipc	a5,0x1
    8ca4:	e1c78793          	addi	a5,a5,-484 # 9abc <p05.3319+0x14>
    8ca8:	8d1d                	sub	a0,a0,a5
    8caa:	04000793          	li	a5,64
    8cae:	00a797b3          	sll	a5,a5,a0
    8cb2:	4542                	lw	a0,16(sp)
    8cb4:	0405                	addi	s0,s0,1
    8cb6:	8d5d                	or	a0,a0,a5
    8cb8:	c82a                	sw	a0,16(sp)
    8cba:	00044583          	lbu	a1,0(s0)
    8cbe:	4619                	li	a2,6
    8cc0:	00001517          	auipc	a0,0x1
    8cc4:	e0050513          	addi	a0,a0,-512 # 9ac0 <p05.3319+0x18>
    8cc8:	00140913          	addi	s2,s0,1
    8ccc:	02b10423          	sb	a1,40(sp)
    8cd0:	94eff0ef          	jal	ra,7e1e <memchr>
    8cd4:	c12d                	beqz	a0,8d36 <_vfiprintf_r+0x28a>
    8cd6:	ffffd797          	auipc	a5,0xffffd
    8cda:	41078793          	addi	a5,a5,1040 # 60e6 <_printf_float>
    8cde:	e795                	bnez	a5,8d0a <_vfiprintf_r+0x25e>
    8ce0:	4742                	lw	a4,16(sp)
    8ce2:	47b2                	lw	a5,12(sp)
    8ce4:	10077713          	andi	a4,a4,256
    8ce8:	cf09                	beqz	a4,8d02 <_vfiprintf_r+0x256>
    8cea:	0791                	addi	a5,a5,4
    8cec:	c63e                	sw	a5,12(sp)
    8cee:	5792                	lw	a5,36(sp)
    8cf0:	97d2                	add	a5,a5,s4
    8cf2:	d23e                	sw	a5,36(sp)
    8cf4:	b50d                	j	8b16 <_vfiprintf_r+0x6a>
    8cf6:	036787b3          	mul	a5,a5,s6
    8cfa:	4685                	li	a3,1
    8cfc:	842e                	mv	s0,a1
    8cfe:	97ba                	add	a5,a5,a4
    8d00:	bfad                	j	8c7a <_vfiprintf_r+0x1ce>
    8d02:	079d                	addi	a5,a5,7
    8d04:	9be1                	andi	a5,a5,-8
    8d06:	07a1                	addi	a5,a5,8
    8d08:	b7d5                	j	8cec <_vfiprintf_r+0x240>
    8d0a:	0078                	addi	a4,sp,12
    8d0c:	00000697          	auipc	a3,0x0
    8d10:	d5c68693          	addi	a3,a3,-676 # 8a68 <__sfputs_r>
    8d14:	8626                	mv	a2,s1
    8d16:	080c                	addi	a1,sp,16
    8d18:	854e                	mv	a0,s3
    8d1a:	bccfd0ef          	jal	ra,60e6 <_printf_float>
    8d1e:	57fd                	li	a5,-1
    8d20:	8a2a                	mv	s4,a0
    8d22:	fcf516e3          	bne	a0,a5,8cee <_vfiprintf_r+0x242>
    8d26:	00c4d783          	lhu	a5,12(s1)
    8d2a:	0407f793          	andi	a5,a5,64
    8d2e:	ea079ce3          	bnez	a5,8be6 <_vfiprintf_r+0x13a>
    8d32:	5512                	lw	a0,36(sp)
    8d34:	bd55                	j	8be8 <_vfiprintf_r+0x13c>
    8d36:	0078                	addi	a4,sp,12
    8d38:	00000697          	auipc	a3,0x0
    8d3c:	d3068693          	addi	a3,a3,-720 # 8a68 <__sfputs_r>
    8d40:	8626                	mv	a2,s1
    8d42:	080c                	addi	a1,sp,16
    8d44:	854e                	mv	a0,s3
    8d46:	971fd0ef          	jal	ra,66b6 <_printf_i>
    8d4a:	bfd1                	j	8d1e <_vfiprintf_r+0x272>

00008d4c <_sbrk_r>:
_sbrk_r():
    8d4c:	1141                	addi	sp,sp,-16
    8d4e:	c422                	sw	s0,8(sp)
    8d50:	842a                	mv	s0,a0
    8d52:	852e                	mv	a0,a1
    8d54:	9001a423          	sw	zero,-1784(gp) # 20000338 <errno>
    8d58:	c606                	sw	ra,12(sp)
    8d5a:	2d51                	jal	93ee <_sbrk>
    8d5c:	57fd                	li	a5,-1
    8d5e:	00f51763          	bne	a0,a5,8d6c <_sbrk_r+0x20>
    8d62:	90818793          	addi	a5,gp,-1784 # 20000338 <errno>
    8d66:	439c                	lw	a5,0(a5)
    8d68:	c391                	beqz	a5,8d6c <_sbrk_r+0x20>
    8d6a:	c01c                	sw	a5,0(s0)
    8d6c:	40b2                	lw	ra,12(sp)
    8d6e:	4422                	lw	s0,8(sp)
    8d70:	0141                	addi	sp,sp,16
    8d72:	8082                	ret

00008d74 <__sread>:
__sread():
    8d74:	1141                	addi	sp,sp,-16
    8d76:	c422                	sw	s0,8(sp)
    8d78:	842e                	mv	s0,a1
    8d7a:	00e59583          	lh	a1,14(a1)
    8d7e:	c606                	sw	ra,12(sp)
    8d80:	248d                	jal	8fe2 <_read_r>
    8d82:	00054963          	bltz	a0,8d94 <__sread+0x20>
    8d86:	487c                	lw	a5,84(s0)
    8d88:	97aa                	add	a5,a5,a0
    8d8a:	c87c                	sw	a5,84(s0)
    8d8c:	40b2                	lw	ra,12(sp)
    8d8e:	4422                	lw	s0,8(sp)
    8d90:	0141                	addi	sp,sp,16
    8d92:	8082                	ret
    8d94:	00c45783          	lhu	a5,12(s0)
    8d98:	777d                	lui	a4,0xfffff
    8d9a:	177d                	addi	a4,a4,-1
    8d9c:	8ff9                	and	a5,a5,a4
    8d9e:	00f41623          	sh	a5,12(s0)
    8da2:	b7ed                	j	8d8c <__sread+0x18>

00008da4 <__swrite>:
__swrite():
    8da4:	00c5d783          	lhu	a5,12(a1)
    8da8:	1101                	addi	sp,sp,-32
    8daa:	cc22                	sw	s0,24(sp)
    8dac:	ca26                	sw	s1,20(sp)
    8dae:	c84a                	sw	s2,16(sp)
    8db0:	c64e                	sw	s3,12(sp)
    8db2:	ce06                	sw	ra,28(sp)
    8db4:	1007f793          	andi	a5,a5,256
    8db8:	84aa                	mv	s1,a0
    8dba:	842e                	mv	s0,a1
    8dbc:	8932                	mv	s2,a2
    8dbe:	89b6                	mv	s3,a3
    8dc0:	c791                	beqz	a5,8dcc <__swrite+0x28>
    8dc2:	00e59583          	lh	a1,14(a1)
    8dc6:	4689                	li	a3,2
    8dc8:	4601                	li	a2,0
    8dca:	2231                	jal	8ed6 <_lseek_r>
    8dcc:	00c45783          	lhu	a5,12(s0)
    8dd0:	777d                	lui	a4,0xfffff
    8dd2:	177d                	addi	a4,a4,-1
    8dd4:	8ff9                	and	a5,a5,a4
    8dd6:	00f41623          	sh	a5,12(s0)
    8dda:	00e41583          	lh	a1,14(s0)
    8dde:	4462                	lw	s0,24(sp)
    8de0:	40f2                	lw	ra,28(sp)
    8de2:	86ce                	mv	a3,s3
    8de4:	864a                	mv	a2,s2
    8de6:	49b2                	lw	s3,12(sp)
    8de8:	4942                	lw	s2,16(sp)
    8dea:	8526                	mv	a0,s1
    8dec:	44d2                	lw	s1,20(sp)
    8dee:	6105                	addi	sp,sp,32
    8df0:	a83d                	j	8e2e <_write_r>

00008df2 <__sseek>:
__sseek():
    8df2:	1141                	addi	sp,sp,-16
    8df4:	c422                	sw	s0,8(sp)
    8df6:	842e                	mv	s0,a1
    8df8:	00e59583          	lh	a1,14(a1)
    8dfc:	c606                	sw	ra,12(sp)
    8dfe:	28e1                	jal	8ed6 <_lseek_r>
    8e00:	57fd                	li	a5,-1
    8e02:	00c45703          	lhu	a4,12(s0)
    8e06:	00f51b63          	bne	a0,a5,8e1c <__sseek+0x2a>
    8e0a:	77fd                	lui	a5,0xfffff
    8e0c:	17fd                	addi	a5,a5,-1
    8e0e:	8ff9                	and	a5,a5,a4
    8e10:	00f41623          	sh	a5,12(s0)
    8e14:	40b2                	lw	ra,12(sp)
    8e16:	4422                	lw	s0,8(sp)
    8e18:	0141                	addi	sp,sp,16
    8e1a:	8082                	ret
    8e1c:	6785                	lui	a5,0x1
    8e1e:	8fd9                	or	a5,a5,a4
    8e20:	00f41623          	sh	a5,12(s0)
    8e24:	c868                	sw	a0,84(s0)
    8e26:	b7fd                	j	8e14 <__sseek+0x22>

00008e28 <__sclose>:
__sclose():
    8e28:	00e59583          	lh	a1,14(a1)
    8e2c:	a805                	j	8e5c <_close_r>

00008e2e <_write_r>:
_write_r():
    8e2e:	1141                	addi	sp,sp,-16
    8e30:	c422                	sw	s0,8(sp)
    8e32:	842a                	mv	s0,a0
    8e34:	852e                	mv	a0,a1
    8e36:	85b2                	mv	a1,a2
    8e38:	8636                	mv	a2,a3
    8e3a:	9001a423          	sw	zero,-1784(gp) # 20000338 <errno>
    8e3e:	c606                	sw	ra,12(sp)
    8e40:	c81f80ef          	jal	ra,1ac0 <_write>
    8e44:	57fd                	li	a5,-1
    8e46:	00f51763          	bne	a0,a5,8e54 <_write_r+0x26>
    8e4a:	90818793          	addi	a5,gp,-1784 # 20000338 <errno>
    8e4e:	439c                	lw	a5,0(a5)
    8e50:	c391                	beqz	a5,8e54 <_write_r+0x26>
    8e52:	c01c                	sw	a5,0(s0)
    8e54:	40b2                	lw	ra,12(sp)
    8e56:	4422                	lw	s0,8(sp)
    8e58:	0141                	addi	sp,sp,16
    8e5a:	8082                	ret

00008e5c <_close_r>:
_close_r():
    8e5c:	1141                	addi	sp,sp,-16
    8e5e:	c422                	sw	s0,8(sp)
    8e60:	842a                	mv	s0,a0
    8e62:	852e                	mv	a0,a1
    8e64:	9001a423          	sw	zero,-1784(gp) # 20000338 <errno>
    8e68:	c606                	sw	ra,12(sp)
    8e6a:	23a1                	jal	93b2 <_close>
    8e6c:	57fd                	li	a5,-1
    8e6e:	00f51763          	bne	a0,a5,8e7c <_close_r+0x20>
    8e72:	90818793          	addi	a5,gp,-1784 # 20000338 <errno>
    8e76:	439c                	lw	a5,0(a5)
    8e78:	c391                	beqz	a5,8e7c <_close_r+0x20>
    8e7a:	c01c                	sw	a5,0(s0)
    8e7c:	40b2                	lw	ra,12(sp)
    8e7e:	4422                	lw	s0,8(sp)
    8e80:	0141                	addi	sp,sp,16
    8e82:	8082                	ret

00008e84 <_fstat_r>:
_fstat_r():
    8e84:	1141                	addi	sp,sp,-16
    8e86:	c422                	sw	s0,8(sp)
    8e88:	842a                	mv	s0,a0
    8e8a:	852e                	mv	a0,a1
    8e8c:	85b2                	mv	a1,a2
    8e8e:	9001a423          	sw	zero,-1784(gp) # 20000338 <errno>
    8e92:	c606                	sw	ra,12(sp)
    8e94:	232d                	jal	93be <_fstat>
    8e96:	57fd                	li	a5,-1
    8e98:	00f51763          	bne	a0,a5,8ea6 <_fstat_r+0x22>
    8e9c:	90818793          	addi	a5,gp,-1784 # 20000338 <errno>
    8ea0:	439c                	lw	a5,0(a5)
    8ea2:	c391                	beqz	a5,8ea6 <_fstat_r+0x22>
    8ea4:	c01c                	sw	a5,0(s0)
    8ea6:	40b2                	lw	ra,12(sp)
    8ea8:	4422                	lw	s0,8(sp)
    8eaa:	0141                	addi	sp,sp,16
    8eac:	8082                	ret

00008eae <_isatty_r>:
_isatty_r():
    8eae:	1141                	addi	sp,sp,-16
    8eb0:	c422                	sw	s0,8(sp)
    8eb2:	842a                	mv	s0,a0
    8eb4:	852e                	mv	a0,a1
    8eb6:	9001a423          	sw	zero,-1784(gp) # 20000338 <errno>
    8eba:	c606                	sw	ra,12(sp)
    8ebc:	2339                	jal	93ca <_isatty>
    8ebe:	57fd                	li	a5,-1
    8ec0:	00f51763          	bne	a0,a5,8ece <_isatty_r+0x20>
    8ec4:	90818793          	addi	a5,gp,-1784 # 20000338 <errno>
    8ec8:	439c                	lw	a5,0(a5)
    8eca:	c391                	beqz	a5,8ece <_isatty_r+0x20>
    8ecc:	c01c                	sw	a5,0(s0)
    8ece:	40b2                	lw	ra,12(sp)
    8ed0:	4422                	lw	s0,8(sp)
    8ed2:	0141                	addi	sp,sp,16
    8ed4:	8082                	ret

00008ed6 <_lseek_r>:
_lseek_r():
    8ed6:	1141                	addi	sp,sp,-16
    8ed8:	c422                	sw	s0,8(sp)
    8eda:	842a                	mv	s0,a0
    8edc:	852e                	mv	a0,a1
    8ede:	85b2                	mv	a1,a2
    8ee0:	8636                	mv	a2,a3
    8ee2:	9001a423          	sw	zero,-1784(gp) # 20000338 <errno>
    8ee6:	c606                	sw	ra,12(sp)
    8ee8:	21fd                	jal	93d6 <_lseek>
    8eea:	57fd                	li	a5,-1
    8eec:	00f51763          	bne	a0,a5,8efa <_lseek_r+0x24>
    8ef0:	90818793          	addi	a5,gp,-1784 # 20000338 <errno>
    8ef4:	439c                	lw	a5,0(a5)
    8ef6:	c391                	beqz	a5,8efa <_lseek_r+0x24>
    8ef8:	c01c                	sw	a5,0(s0)
    8efa:	40b2                	lw	ra,12(sp)
    8efc:	4422                	lw	s0,8(sp)
    8efe:	0141                	addi	sp,sp,16
    8f00:	8082                	ret

00008f02 <__ascii_mbtowc>:
__ascii_mbtowc():
    8f02:	e185                	bnez	a1,8f22 <__ascii_mbtowc+0x20>
    8f04:	1141                	addi	sp,sp,-16
    8f06:	006c                	addi	a1,sp,12
    8f08:	4501                	li	a0,0
    8f0a:	ca11                	beqz	a2,8f1e <__ascii_mbtowc+0x1c>
    8f0c:	5579                	li	a0,-2
    8f0e:	ca81                	beqz	a3,8f1e <__ascii_mbtowc+0x1c>
    8f10:	00064783          	lbu	a5,0(a2)
    8f14:	c19c                	sw	a5,0(a1)
    8f16:	00064503          	lbu	a0,0(a2)
    8f1a:	00a03533          	snez	a0,a0
    8f1e:	0141                	addi	sp,sp,16
    8f20:	8082                	ret
    8f22:	4501                	li	a0,0
    8f24:	ca19                	beqz	a2,8f3a <__ascii_mbtowc+0x38>
    8f26:	5579                	li	a0,-2
    8f28:	ca89                	beqz	a3,8f3a <__ascii_mbtowc+0x38>
    8f2a:	00064783          	lbu	a5,0(a2)
    8f2e:	c19c                	sw	a5,0(a1)
    8f30:	00064503          	lbu	a0,0(a2)
    8f34:	00a03533          	snez	a0,a0
    8f38:	8082                	ret
    8f3a:	8082                	ret

00008f3c <memmove>:
memmove():
    8f3c:	04a5f363          	bgeu	a1,a0,8f82 <memmove+0x46>
    8f40:	00c586b3          	add	a3,a1,a2
    8f44:	02d57f63          	bgeu	a0,a3,8f82 <memmove+0x46>
    8f48:	fff64593          	not	a1,a2
    8f4c:	4781                	li	a5,0
    8f4e:	17fd                	addi	a5,a5,-1
    8f50:	00f59363          	bne	a1,a5,8f56 <memmove+0x1a>
    8f54:	8082                	ret
    8f56:	00f68733          	add	a4,a3,a5
    8f5a:	00074803          	lbu	a6,0(a4) # fffff000 <_eusrstack+0xdffef000>
    8f5e:	00c78733          	add	a4,a5,a2
    8f62:	972a                	add	a4,a4,a0
    8f64:	01070023          	sb	a6,0(a4)
    8f68:	b7dd                	j	8f4e <memmove+0x12>
    8f6a:	00f58733          	add	a4,a1,a5
    8f6e:	00074683          	lbu	a3,0(a4)
    8f72:	00f50733          	add	a4,a0,a5
    8f76:	0785                	addi	a5,a5,1
    8f78:	00d70023          	sb	a3,0(a4)
    8f7c:	fef617e3          	bne	a2,a5,8f6a <memmove+0x2e>
    8f80:	8082                	ret
    8f82:	4781                	li	a5,0
    8f84:	bfe5                	j	8f7c <memmove+0x40>

00008f86 <__malloc_lock>:
__malloc_lock():
    8f86:	8082                	ret

00008f88 <__malloc_unlock>:
__malloc_unlock():
    8f88:	8082                	ret

00008f8a <_realloc_r>:
_realloc_r():
    8f8a:	e581                	bnez	a1,8f92 <_realloc_r+0x8>
    8f8c:	85b2                	mv	a1,a2
    8f8e:	e70ff06f          	j	85fe <_malloc_r>
    8f92:	1101                	addi	sp,sp,-32
    8f94:	cc22                	sw	s0,24(sp)
    8f96:	ce06                	sw	ra,28(sp)
    8f98:	ca26                	sw	s1,20(sp)
    8f9a:	c84a                	sw	s2,16(sp)
    8f9c:	c64e                	sw	s3,12(sp)
    8f9e:	8432                	mv	s0,a2
    8fa0:	ee01                	bnez	a2,8fb8 <_realloc_r+0x2e>
    8fa2:	db4ff0ef          	jal	ra,8556 <_free_r>
    8fa6:	4901                	li	s2,0
    8fa8:	40f2                	lw	ra,28(sp)
    8faa:	4462                	lw	s0,24(sp)
    8fac:	854a                	mv	a0,s2
    8fae:	44d2                	lw	s1,20(sp)
    8fb0:	4942                	lw	s2,16(sp)
    8fb2:	49b2                	lw	s3,12(sp)
    8fb4:	6105                	addi	sp,sp,32
    8fb6:	8082                	ret
    8fb8:	84ae                	mv	s1,a1
    8fba:	89aa                	mv	s3,a0
    8fbc:	288d                	jal	902e <_malloc_usable_size_r>
    8fbe:	8926                	mv	s2,s1
    8fc0:	fe8574e3          	bgeu	a0,s0,8fa8 <_realloc_r+0x1e>
    8fc4:	85a2                	mv	a1,s0
    8fc6:	854e                	mv	a0,s3
    8fc8:	e36ff0ef          	jal	ra,85fe <_malloc_r>
    8fcc:	892a                	mv	s2,a0
    8fce:	dd69                	beqz	a0,8fa8 <_realloc_r+0x1e>
    8fd0:	85a6                	mv	a1,s1
    8fd2:	8622                	mv	a2,s0
    8fd4:	ee3fc0ef          	jal	ra,5eb6 <memcpy>
    8fd8:	85a6                	mv	a1,s1
    8fda:	854e                	mv	a0,s3
    8fdc:	d7aff0ef          	jal	ra,8556 <_free_r>
    8fe0:	b7e1                	j	8fa8 <_realloc_r+0x1e>

00008fe2 <_read_r>:
_read_r():
    8fe2:	1141                	addi	sp,sp,-16
    8fe4:	c422                	sw	s0,8(sp)
    8fe6:	842a                	mv	s0,a0
    8fe8:	852e                	mv	a0,a1
    8fea:	85b2                	mv	a1,a2
    8fec:	8636                	mv	a2,a3
    8fee:	9001a423          	sw	zero,-1784(gp) # 20000338 <errno>
    8ff2:	c606                	sw	ra,12(sp)
    8ff4:	26fd                	jal	93e2 <_read>
    8ff6:	57fd                	li	a5,-1
    8ff8:	00f51763          	bne	a0,a5,9006 <_read_r+0x24>
    8ffc:	90818793          	addi	a5,gp,-1784 # 20000338 <errno>
    9000:	439c                	lw	a5,0(a5)
    9002:	c391                	beqz	a5,9006 <_read_r+0x24>
    9004:	c01c                	sw	a5,0(s0)
    9006:	40b2                	lw	ra,12(sp)
    9008:	4422                	lw	s0,8(sp)
    900a:	0141                	addi	sp,sp,16
    900c:	8082                	ret

0000900e <__ascii_wctomb>:
__ascii_wctomb():
    900e:	cd91                	beqz	a1,902a <__ascii_wctomb+0x1c>
    9010:	0ff00793          	li	a5,255
    9014:	00c7f763          	bgeu	a5,a2,9022 <__ascii_wctomb+0x14>
    9018:	08a00793          	li	a5,138
    901c:	c11c                	sw	a5,0(a0)
    901e:	557d                	li	a0,-1
    9020:	8082                	ret
    9022:	00c58023          	sb	a2,0(a1)
    9026:	4505                	li	a0,1
    9028:	8082                	ret
    902a:	4501                	li	a0,0
    902c:	8082                	ret

0000902e <_malloc_usable_size_r>:
_malloc_usable_size_r():
    902e:	ffc5a783          	lw	a5,-4(a1)
    9032:	ffc78513          	addi	a0,a5,-4 # ffc <uart_init+0xd2>
    9036:	0007d563          	bgez	a5,9040 <_malloc_usable_size_r+0x12>
    903a:	95aa                	add	a1,a1,a0
    903c:	419c                	lw	a5,0(a1)
    903e:	953e                	add	a0,a0,a5
    9040:	8082                	ret

00009042 <__gedf2>:
__gtdf2():
    9042:	0145d713          	srli	a4,a1,0x14
    9046:	001007b7          	lui	a5,0x100
    904a:	17fd                	addi	a5,a5,-1
    904c:	0146d813          	srli	a6,a3,0x14
    9050:	7ff77713          	andi	a4,a4,2047
    9054:	7ff00893          	li	a7,2047
    9058:	00b7f333          	and	t1,a5,a1
    905c:	8e2a                	mv	t3,a0
    905e:	8ff5                	and	a5,a5,a3
    9060:	81fd                	srli	a1,a1,0x1f
    9062:	8eb2                	mv	t4,a2
    9064:	7ff87813          	andi	a6,a6,2047
    9068:	82fd                	srli	a3,a3,0x1f
    906a:	03170863          	beq	a4,a7,909a <__gedf2+0x58>
    906e:	03180063          	beq	a6,a7,908e <__gedf2+0x4c>
    9072:	eb0d                	bnez	a4,90a4 <__gedf2+0x62>
    9074:	00a368b3          	or	a7,t1,a0
    9078:	00081463          	bnez	a6,9080 <__gedf2+0x3e>
    907c:	8e5d                	or	a2,a2,a5
    907e:	ca29                	beqz	a2,90d0 <__gedf2+0x8e>
    9080:	04088563          	beqz	a7,90ca <__gedf2+0x88>
    9084:	02d58863          	beq	a1,a3,90b4 <__gedf2+0x72>
    9088:	4505                	li	a0,1
    908a:	ed95                	bnez	a1,90c6 <__gedf2+0x84>
    908c:	8082                	ret
    908e:	00c7e8b3          	or	a7,a5,a2
    9092:	fe0880e3          	beqz	a7,9072 <__gedf2+0x30>
    9096:	5579                	li	a0,-2
    9098:	8082                	ret
    909a:	00a36533          	or	a0,t1,a0
    909e:	fd65                	bnez	a0,9096 <__gedf2+0x54>
    90a0:	02e80c63          	beq	a6,a4,90d8 <__gedf2+0x96>
    90a4:	00081463          	bnez	a6,90ac <__gedf2+0x6a>
    90a8:	8e5d                	or	a2,a2,a5
    90aa:	de79                	beqz	a2,9088 <__gedf2+0x46>
    90ac:	fcd59ee3          	bne	a1,a3,9088 <__gedf2+0x46>
    90b0:	fce84ce3          	blt	a6,a4,9088 <__gedf2+0x46>
    90b4:	01074863          	blt	a4,a6,90c4 <__gedf2+0x82>
    90b8:	fc67e8e3          	bltu	a5,t1,9088 <__gedf2+0x46>
    90bc:	02f30363          	beq	t1,a5,90e2 <__gedf2+0xa0>
    90c0:	00f37f63          	bgeu	t1,a5,90de <__gedf2+0x9c>
    90c4:	e581                	bnez	a1,90cc <__gedf2+0x8a>
    90c6:	557d                	li	a0,-1
    90c8:	8082                	ret
    90ca:	def5                	beqz	a3,90c6 <__gedf2+0x84>
    90cc:	4505                	li	a0,1
    90ce:	8082                	ret
    90d0:	4501                	li	a0,0
    90d2:	fa089be3          	bnez	a7,9088 <__gedf2+0x46>
    90d6:	8082                	ret
    90d8:	8e5d                	or	a2,a2,a5
    90da:	da69                	beqz	a2,90ac <__gedf2+0x6a>
    90dc:	bf6d                	j	9096 <__gedf2+0x54>
    90de:	4501                	li	a0,0
    90e0:	8082                	ret
    90e2:	fbcee3e3          	bltu	t4,t3,9088 <__gedf2+0x46>
    90e6:	4501                	li	a0,0
    90e8:	fbde72e3          	bgeu	t3,t4,908c <__gedf2+0x4a>
    90ec:	f1e5                	bnez	a1,90cc <__gedf2+0x8a>
    90ee:	bfe1                	j	90c6 <__gedf2+0x84>

000090f0 <__unorddf2>:
__unorddf2():
    90f0:	0145d713          	srli	a4,a1,0x14
    90f4:	001007b7          	lui	a5,0x100
    90f8:	17fd                	addi	a5,a5,-1
    90fa:	fff74713          	not	a4,a4
    90fe:	0146d813          	srli	a6,a3,0x14
    9102:	8dfd                	and	a1,a1,a5
    9104:	8ff5                	and	a5,a5,a3
    9106:	01571693          	slli	a3,a4,0x15
    910a:	7ff87813          	andi	a6,a6,2047
    910e:	ca99                	beqz	a3,9124 <__unorddf2+0x34>
    9110:	7ff00713          	li	a4,2047
    9114:	4501                	li	a0,0
    9116:	00e80363          	beq	a6,a4,911c <__unorddf2+0x2c>
    911a:	8082                	ret
    911c:	8fd1                	or	a5,a5,a2
    911e:	00f03533          	snez	a0,a5
    9122:	8082                	ret
    9124:	8dc9                	or	a1,a1,a0
    9126:	4505                	li	a0,1
    9128:	d5e5                	beqz	a1,9110 <__unorddf2+0x20>
    912a:	8082                	ret

0000912c <__floatunsidf>:
__floatunsidf():
    912c:	cd1d                	beqz	a0,916a <__floatunsidf+0x3e>
    912e:	1141                	addi	sp,sp,-16
    9130:	c422                	sw	s0,8(sp)
    9132:	c606                	sw	ra,12(sp)
    9134:	842a                	mv	s0,a0
    9136:	d0bfc0ef          	jal	ra,5e40 <__clzsi2>
    913a:	41e00693          	li	a3,1054
    913e:	8e89                	sub	a3,a3,a0
    9140:	47a9                	li	a5,10
    9142:	7ff6f693          	andi	a3,a3,2047
    9146:	02a7dc63          	bge	a5,a0,917e <__floatunsidf+0x52>
    914a:	1555                	addi	a0,a0,-11
    914c:	00a417b3          	sll	a5,s0,a0
    9150:	07b2                	slli	a5,a5,0xc
    9152:	83b1                	srli	a5,a5,0xc
    9154:	4701                	li	a4,0
    9156:	40b2                	lw	ra,12(sp)
    9158:	4422                	lw	s0,8(sp)
    915a:	07b2                	slli	a5,a5,0xc
    915c:	06d2                	slli	a3,a3,0x14
    915e:	83b1                	srli	a5,a5,0xc
    9160:	8fd5                	or	a5,a5,a3
    9162:	853a                	mv	a0,a4
    9164:	85be                	mv	a1,a5
    9166:	0141                	addi	sp,sp,16
    9168:	8082                	ret
    916a:	4781                	li	a5,0
    916c:	4681                	li	a3,0
    916e:	07b2                	slli	a5,a5,0xc
    9170:	06d2                	slli	a3,a3,0x14
    9172:	83b1                	srli	a5,a5,0xc
    9174:	4701                	li	a4,0
    9176:	8fd5                	or	a5,a5,a3
    9178:	853a                	mv	a0,a4
    917a:	85be                	mv	a1,a5
    917c:	8082                	ret
    917e:	472d                	li	a4,11
    9180:	8f09                	sub	a4,a4,a0
    9182:	00e457b3          	srl	a5,s0,a4
    9186:	07b2                	slli	a5,a5,0xc
    9188:	01550713          	addi	a4,a0,21
    918c:	00e41733          	sll	a4,s0,a4
    9190:	83b1                	srli	a5,a5,0xc
    9192:	b7d1                	j	9156 <__floatunsidf+0x2a>

00009194 <__trunctfdf2>:
__trunctfdf2():
    9194:	00c52803          	lw	a6,12(a0)
    9198:	4118                	lw	a4,0(a0)
    919a:	4154                	lw	a3,4(a0)
    919c:	450c                	lw	a1,8(a0)
    919e:	6521                	lui	a0,0x8
    91a0:	fff50793          	addi	a5,a0,-1 # 7fff <__lo0bits+0x1d>
    91a4:	01085613          	srli	a2,a6,0x10
    91a8:	00359e13          	slli	t3,a1,0x3
    91ac:	8e7d                	and	a2,a2,a5
    91ae:	01d75893          	srli	a7,a4,0x1d
    91b2:	01d6d793          	srli	a5,a3,0x1d
    91b6:	01081313          	slli	t1,a6,0x10
    91ba:	068e                	slli	a3,a3,0x3
    91bc:	1141                	addi	sp,sp,-16
    91be:	01c7e7b3          	or	a5,a5,t3
    91c2:	0116e6b3          	or	a3,a3,a7
    91c6:	01035313          	srli	t1,t1,0x10
    91ca:	00371e13          	slli	t3,a4,0x3
    91ce:	00160893          	addi	a7,a2,1
    91d2:	1579                	addi	a0,a0,-2
    91d4:	81f5                	srli	a1,a1,0x1d
    91d6:	030e                	slli	t1,t1,0x3
    91d8:	c43e                	sw	a5,8(sp)
    91da:	c236                	sw	a3,4(sp)
    91dc:	c072                	sw	t3,0(sp)
    91de:	00a8f533          	and	a0,a7,a0
    91e2:	01f85813          	srli	a6,a6,0x1f
    91e6:	0065e5b3          	or	a1,a1,t1
    91ea:	c905                	beqz	a0,921a <__trunctfdf2+0x86>
    91ec:	7771                	lui	a4,0xffffc
    91ee:	40070713          	addi	a4,a4,1024 # ffffc400 <_eusrstack+0xdffec400>
    91f2:	963a                	add	a2,a2,a4
    91f4:	7fe00713          	li	a4,2046
    91f8:	04c75d63          	bge	a4,a2,9252 <__trunctfdf2+0xbe>
    91fc:	7ff00613          	li	a2,2047
    9200:	4701                	li	a4,0
    9202:	4781                	li	a5,0
    9204:	0732                	slli	a4,a4,0xc
    9206:	0652                	slli	a2,a2,0x14
    9208:	8331                	srli	a4,a4,0xc
    920a:	087e                	slli	a6,a6,0x1f
    920c:	8f51                	or	a4,a4,a2
    920e:	01076733          	or	a4,a4,a6
    9212:	853e                	mv	a0,a5
    9214:	85ba                	mv	a1,a4
    9216:	0141                	addi	sp,sp,16
    9218:	8082                	ret
    921a:	8fd5                	or	a5,a5,a3
    921c:	8fcd                	or	a5,a5,a1
    921e:	01c7e7b3          	or	a5,a5,t3
    9222:	e205                	bnez	a2,9242 <__trunctfdf2+0xae>
    9224:	cbf1                	beqz	a5,92f8 <__trunctfdf2+0x164>
    9226:	4781                	li	a5,0
    9228:	4695                	li	a3,5
    922a:	0036d593          	srli	a1,a3,0x3
    922e:	00979713          	slli	a4,a5,0x9
    9232:	01d79693          	slli	a3,a5,0x1d
    9236:	00b6e7b3          	or	a5,a3,a1
    923a:	8331                	srli	a4,a4,0xc
    923c:	7ff67613          	andi	a2,a2,2047
    9240:	b7d1                	j	9204 <__trunctfdf2+0x70>
    9242:	dfcd                	beqz	a5,91fc <__trunctfdf2+0x68>
    9244:	4801                	li	a6,0
    9246:	7ff00613          	li	a2,2047
    924a:	00080737          	lui	a4,0x80
    924e:	4781                	li	a5,0
    9250:	bf55                	j	9204 <__trunctfdf2+0x70>
    9252:	0ac04663          	bgtz	a2,92fe <__trunctfdf2+0x16a>
    9256:	fcc00793          	li	a5,-52
    925a:	0ef64f63          	blt	a2,a5,9358 <__trunctfdf2+0x1c4>
    925e:	03d00793          	li	a5,61
    9262:	40c78633          	sub	a2,a5,a2
    9266:	40565793          	srai	a5,a2,0x5
    926a:	00080737          	lui	a4,0x80
    926e:	8dd9                	or	a1,a1,a4
    9270:	00279513          	slli	a0,a5,0x2
    9274:	870a                	mv	a4,sp
    9276:	4681                	li	a3,0
    9278:	c62e                	sw	a1,12(sp)
    927a:	00a108b3          	add	a7,sp,a0
    927e:	0711                	addi	a4,a4,4
    9280:	8a7d                	andi	a2,a2,31
    9282:	01c6e6b3          	or	a3,a3,t3
    9286:	01170963          	beq	a4,a7,9298 <__trunctfdf2+0x104>
    928a:	00072e03          	lw	t3,0(a4) # 80000 <_data_lma+0x76424>
    928e:	0711                	addi	a4,a4,4
    9290:	01c6e6b3          	or	a3,a3,t3
    9294:	ff171be3          	bne	a4,a7,928a <__trunctfdf2+0xf6>
    9298:	470d                	li	a4,3
    929a:	8f1d                	sub	a4,a4,a5
    929c:	ca79                	beqz	a2,9372 <__trunctfdf2+0x1de>
    929e:	01010893          	addi	a7,sp,16
    92a2:	98aa                	add	a7,a7,a0
    92a4:	ff08a883          	lw	a7,-16(a7) # fff0 <_data_lma+0x6414>
    92a8:	02000e13          	li	t3,32
    92ac:	40ce0e33          	sub	t3,t3,a2
    92b0:	01c898b3          	sll	a7,a7,t3
    92b4:	0116e6b3          	or	a3,a3,a7
    92b8:	cb75                	beqz	a4,93ac <__trunctfdf2+0x218>
    92ba:	070a                	slli	a4,a4,0x2
    92bc:	950a                	add	a0,a0,sp
    92be:	00e10eb3          	add	t4,sp,a4
    92c2:	888a                	mv	a7,sp
    92c4:	410c                	lw	a1,0(a0)
    92c6:	00452303          	lw	t1,4(a0)
    92ca:	0891                	addi	a7,a7,4
    92cc:	00c5d5b3          	srl	a1,a1,a2
    92d0:	01c31333          	sll	t1,t1,t3
    92d4:	0065e5b3          	or	a1,a1,t1
    92d8:	feb8ae23          	sw	a1,-4(a7)
    92dc:	0511                	addi	a0,a0,4
    92de:	ff1e93e3          	bne	t4,a7,92c4 <__trunctfdf2+0x130>
    92e2:	4591                	li	a1,4
    92e4:	40f587b3          	sub	a5,a1,a5
    92e8:	45b2                	lw	a1,12(sp)
    92ea:	0808                	addi	a0,sp,16
    92ec:	972a                	add	a4,a4,a0
    92ee:	00c5d5b3          	srl	a1,a1,a2
    92f2:	feb72823          	sw	a1,-16(a4)
    92f6:	a861                	j	938e <__trunctfdf2+0x1fa>
    92f8:	4601                	li	a2,0
    92fa:	4701                	li	a4,0
    92fc:	b721                	j	9204 <__trunctfdf2+0x70>
    92fe:	00469713          	slli	a4,a3,0x4
    9302:	00479513          	slli	a0,a5,0x4
    9306:	01c76733          	or	a4,a4,t3
    930a:	82f1                	srli	a3,a3,0x1c
    930c:	83f1                	srli	a5,a5,0x1c
    930e:	0592                	slli	a1,a1,0x4
    9310:	00e03733          	snez	a4,a4
    9314:	8ec9                	or	a3,a3,a0
    9316:	8fcd                	or	a5,a5,a1
    9318:	8ed9                	or	a3,a3,a4
    931a:	0076f713          	andi	a4,a3,7
    931e:	c711                	beqz	a4,932a <__trunctfdf2+0x196>
    9320:	00f6f713          	andi	a4,a3,15
    9324:	4591                	li	a1,4
    9326:	02b71c63          	bne	a4,a1,935e <__trunctfdf2+0x1ca>
    932a:	00800737          	lui	a4,0x800
    932e:	8f7d                	and	a4,a4,a5
    9330:	ee070de3          	beqz	a4,922a <__trunctfdf2+0x96>
    9334:	0605                	addi	a2,a2,1
    9336:	7ff00713          	li	a4,2047
    933a:	ece601e3          	beq	a2,a4,91fc <__trunctfdf2+0x68>
    933e:	ff800737          	lui	a4,0xff800
    9342:	177d                	addi	a4,a4,-1
    9344:	8f7d                	and	a4,a4,a5
    9346:	01d71793          	slli	a5,a4,0x1d
    934a:	828d                	srli	a3,a3,0x3
    934c:	0726                	slli	a4,a4,0x9
    934e:	7ff67613          	andi	a2,a2,2047
    9352:	8fd5                	or	a5,a5,a3
    9354:	8331                	srli	a4,a4,0xc
    9356:	b57d                	j	9204 <__trunctfdf2+0x70>
    9358:	4685                	li	a3,1
    935a:	4781                	li	a5,0
    935c:	4601                	li	a2,0
    935e:	ffc6b713          	sltiu	a4,a3,-4
    9362:	00174713          	xori	a4,a4,1
    9366:	97ba                	add	a5,a5,a4
    9368:	00800737          	lui	a4,0x800
    936c:	0691                	addi	a3,a3,4
    936e:	8f7d                	and	a4,a4,a5
    9370:	b7c1                	j	9330 <__trunctfdf2+0x19c>
    9372:	858a                	mv	a1,sp
    9374:	00a588b3          	add	a7,a1,a0
    9378:	0008a883          	lw	a7,0(a7)
    937c:	0591                	addi	a1,a1,4
    937e:	0605                	addi	a2,a2,1
    9380:	ff15ae23          	sw	a7,-4(a1)
    9384:	fec758e3          	bge	a4,a2,9374 <__trunctfdf2+0x1e0>
    9388:	4711                	li	a4,4
    938a:	40f707b3          	sub	a5,a4,a5
    938e:	078a                	slli	a5,a5,0x2
    9390:	978a                	add	a5,a5,sp
    9392:	0818                	addi	a4,sp,16
    9394:	0007a023          	sw	zero,0(a5) # 100000 <_data_lma+0xf6424>
    9398:	0791                	addi	a5,a5,4
    939a:	fee79de3          	bne	a5,a4,9394 <__trunctfdf2+0x200>
    939e:	4702                	lw	a4,0(sp)
    93a0:	00d036b3          	snez	a3,a3
    93a4:	4792                	lw	a5,4(sp)
    93a6:	8ed9                	or	a3,a3,a4
    93a8:	4601                	li	a2,0
    93aa:	bf85                	j	931a <__trunctfdf2+0x186>
    93ac:	4785                	li	a5,1
    93ae:	4701                	li	a4,0
    93b0:	bf2d                	j	92ea <__trunctfdf2+0x156>

000093b2 <_close>:
_close():
    93b2:	05800793          	li	a5,88
    93b6:	90f1a423          	sw	a5,-1784(gp) # 20000338 <errno>
    93ba:	557d                	li	a0,-1
    93bc:	8082                	ret

000093be <_fstat>:
_fstat():
    93be:	05800793          	li	a5,88
    93c2:	90f1a423          	sw	a5,-1784(gp) # 20000338 <errno>
    93c6:	557d                	li	a0,-1
    93c8:	8082                	ret

000093ca <_isatty>:
_isatty():
    93ca:	05800793          	li	a5,88
    93ce:	90f1a423          	sw	a5,-1784(gp) # 20000338 <errno>
    93d2:	4501                	li	a0,0
    93d4:	8082                	ret

000093d6 <_lseek>:
_lseek():
    93d6:	05800793          	li	a5,88
    93da:	90f1a423          	sw	a5,-1784(gp) # 20000338 <errno>
    93de:	557d                	li	a0,-1
    93e0:	8082                	ret

000093e2 <_read>:
_read():
    93e2:	05800793          	li	a5,88
    93e6:	90f1a423          	sw	a5,-1784(gp) # 20000338 <errno>
    93ea:	557d                	li	a0,-1
    93ec:	8082                	ret

000093ee <_sbrk>:
_sbrk():
    93ee:	87818793          	addi	a5,gp,-1928 # 200002a8 <heap_end.1518>
    93f2:	439c                	lw	a5,0(a5)
    93f4:	c791                	beqz	a5,9400 <_sbrk+0x12>
    93f6:	953e                	add	a0,a0,a5
    93f8:	86a1ac23          	sw	a0,-1928(gp) # 200002a8 <heap_end.1518>
    93fc:	853e                	mv	a0,a5
    93fe:	8082                	ret
    9400:	90c18793          	addi	a5,gp,-1780 # 2000033c <_ebss>
    9404:	953e                	add	a0,a0,a5
    9406:	86a1ac23          	sw	a0,-1928(gp) # 200002a8 <heap_end.1518>
    940a:	853e                	mv	a0,a5
    940c:	8082                	ret
    940e:	0000                	unimp
    9410:	552f3a43          	0x552f3a43
    9414:	73726573          	csrrsi	a0,0x737,4
    9418:	3136382f          	0x3136382f
    941c:	3835                	jal	8c58 <_vfiprintf_r+0x1ac>
    941e:	7365442f          	0x7365442f
    9422:	706f746b          	0x706f746b
    9426:	4545492f          	0x4545492f
    942a:	442d5343          	0x442d5343
    942e:	7365                	lui	t1,0xffff9
    9430:	6769                	lui	a4,0x1a
    9432:	2f6e                	fld	ft10,216(sp)
    9434:	6148                	flw	fa0,4(a0)
    9436:	6472                	flw	fs0,28(sp)
    9438:	65726177          	0x65726177
    943c:	6665522f          	0x6665522f
    9440:	7265                	lui	tp,0xffff9
    9442:	6e65                	lui	t3,0x19
    9444:	432f6563          	bltu	t5,s2,986e <__clz_tab+0xb6>
    9448:	5648                	lw	a0,44(a2)
    944a:	5f373033          	0x5f373033
    944e:	694c                	flw	fa1,20(a0)
    9450:	7262                	flw	ft4,56(sp)
    9452:	7261                	lui	tp,0xffff8
    9454:	2d79                	jal	9af2 <_ctype_+0x1a>
    9456:	616d                	addi	sp,sp,240
    9458:	72657473          	csrrci	s0,0x726,10
    945c:	6178452f          	0x6178452f
    9460:	706d                	c.lui	zero,0xffffb
    9462:	656c                	flw	fa1,76(a0)
    9464:	62696c2f          	0x62696c2f
    9468:	6172                	flw	ft2,28(sp)
    946a:	6972                	flw	fs2,28(sp)
    946c:	7365                	lui	t1,0xffff9
    946e:	5f667a2f          	0x5f667a2f
    9472:	7264                	flw	fs1,100(a2)
    9474:	7669                	lui	a2,0xffffa
    9476:	7265                	lui	tp,0xffff9
    9478:	5f667a2f          	0x5f667a2f
    947c:	7264                	flw	fs1,100(a2)
    947e:	7669                	lui	a2,0xffffa
    9480:	7265                	lui	tp,0xffff9
    9482:	655f 636e 646f      	0x646f636e655f
    9488:	7265                	lui	tp,0xffff9
    948a:	632e                	flw	ft6,200(sp)
    948c:	0000                	unimp
    948e:	0000                	unimp
    9490:	7341                	lui	t1,0xffff0
    9492:	74726573          	csrrsi	a0,0x747,4
    9496:	6520                	flw	fs0,72(a0)
    9498:	7272                	flw	ft4,60(sp)
    949a:	0000726f          	jal	tp,1049a <_data_lma+0x68be>
    949e:	0000                	unimp
    94a0:	6966                	flw	fs2,88(sp)
    94a2:	656c                	flw	fa1,76(a0)
    94a4:	203a                	fld	ft0,392(sp)
    94a6:	7325                	lui	t1,0xfffe9
    94a8:	0000                	unimp
    94aa:	0000                	unimp
    94ac:	6966                	flw	fs2,88(sp)
    94ae:	656c                	flw	fa1,76(a0)
    94b0:	203a                	fld	ft0,392(sp)
    94b2:	646d                	lui	s0,0x1b
    94b4:	73252f6b          	0x73252f6b
    94b8:	0000                	unimp
    94ba:	0000                	unimp
    94bc:	696c                	flw	fa1,84(a0)
    94be:	656e                	flw	fa0,216(sp)
    94c0:	203a                	fld	ft0,392(sp)
    94c2:	6425                	lui	s0,0x9
    94c4:	0000                	unimp
    94c6:	0000                	unimp
    94c8:	7341                	lui	t1,0xffff0
    94ca:	74726573          	csrrsi	a0,0x747,4
    94ce:	6520                	flw	fs0,72(a0)
    94d0:	7272                	flw	ft4,60(sp)
    94d2:	6920726f          	jal	tp,10b64 <_data_lma+0x6f88>
    94d6:	206e                	fld	ft0,216(sp)
    94d8:	7325                	lui	t1,0xfffe9
    94da:	6c20                	flw	fs0,88(s0)
    94dc:	6e69                	lui	t3,0x1a
    94de:	2065                	jal	9586 <gpio_group+0x12>
    94e0:	6425                	lui	s0,0x9
    94e2:	0d2e                	slli	s10,s10,0xb
    94e4:	000a                	c.slli	zero,0x2
    94e6:	0000                	unimp
    94e8:	6f4c                	flw	fa1,28(a4)
    94ea:	656d2067          	0x656d2067
    94ee:	67617373          	csrrci	t1,0x676,2
    94f2:	2065                	jal	959a <tim_index+0x12>
    94f4:	7266                	flw	ft4,120(sp)
    94f6:	25206d6f          	jal	s10,f748 <_data_lma+0x5b6c>
    94fa:	696c2073          	csrs	0x696,s8
    94fe:	656e                	flw	fa0,216(sp)
    9500:	2520                	fld	fs0,72(a0)
    9502:	2064                	fld	fs1,192(s0)
    9504:	223a                	fld	ft4,392(sp)
    9506:	7325                	lui	t1,0xfffe9
    9508:	2e22                	fld	ft8,8(sp)
    950a:	0a0d                	addi	s4,s4,3
    950c:	0000                	unimp
    950e:	0000                	unimp
    9510:	4e45                	li	t3,17
    9512:	45444f43          	0x45444f43
    9516:	5f52                	lw	t5,52(sp)
    9518:	5551                	li	a0,-12
    951a:	4441                	li	s0,16
    951c:	4544                	lw	s1,12(a0)
    951e:	6f632043          	fmadd.q	ft0,ft6,fs6,fa3,rdn
    9522:	6e75                	lui	t3,0x1d
    9524:	6574                	flw	fa3,76(a0)
    9526:	2072                	fld	ft0,280(sp)
    9528:	2509                	jal	9b2a <_ctype_+0x52>
    952a:	2064                	fld	fs1,192(s0)
    952c:	0d2e                	slli	s10,s10,0xb
    952e:	000a                	c.slli	zero,0x2
    9530:	420a                	lw	tp,128(sp)
    9532:	7561                	lui	a0,0xffff8
    9534:	2064                	fld	fs1,192(s0)
    9536:	6152                	flw	ft2,20(sp)
    9538:	6574                	flw	fa3,76(a0)
    953a:	3d20                	fld	fs0,120(a0)
    953c:	2520                	fld	fs0,72(a0)
    953e:	0064                	addi	s1,sp,12
    9540:	640a                	flw	fs0,128(sp)
    9542:	7461                	lui	s0,0xffff8
    9544:	4261                	li	tp,24
    9546:	7469                	lui	s0,0xffffa
    9548:	3d20                	fld	fs0,120(a0)
    954a:	2520                	fld	fs0,72(a0)
    954c:	0064                	addi	s1,sp,12
    954e:	0000                	unimp
    9550:	730a                	flw	ft6,160(sp)
    9552:	6f74                	flw	fa3,92(a4)
    9554:	4270                	lw	a2,68(a2)
    9556:	7469                	lui	s0,0xffffa
    9558:	3d20                	fld	fs0,120(a0)
    955a:	2520                	fld	fs0,72(a0)
    955c:	0064                	addi	s1,sp,12
    955e:	0000                	unimp
    9560:	700a                	flw	ft0,160(sp)
    9562:	7261                	lui	tp,0xffff8
    9564:	7469                	lui	s0,0xffffa
    9566:	5479                	li	s0,-2
    9568:	7079                	c.lui	zero,0xffffe
    956a:	2065                	jal	9612 <MyCfgDescrHD+0x2e>
    956c:	203d                	jal	959a <tim_index+0x12>
    956e:	6425                	lui	s0,0x9
    9570:	0000                	unimp
	...

00009574 <gpio_group>:
    9574:	0800 4001 0c00 4001 1000 4001 1400 4001     ...@...@...@...@
    9584:	1800 4001                                   ...@

00009588 <tim_index>:
    9588:	2c00 4001 0000 4000 0400 4000 0800 4000     .,.@...@...@...@
    9598:	0c00 4000 1000 4000 1400 4000 3400 4001     ...@...@...@.4.@
    95a8:	4c00 4001 5000 4001                         .L.@.P.@

000095b0 <uart_index>:
    95b0:	3800 4001 4400 4000 4800 4000 4c00 4000     .8.@.D.@.H.@.L.@
    95c0:	5000 4000 1800 4000 1c00 4000 2000 4000     .P.@...@...@. .@

000095d0 <MyDevDescrHD>:
    95d0:	0112 0200 0002 0800 1a86 5722 0100 0201     .........."W....
    95e0:	0103 0000                                   ....

000095e4 <MyCfgDescrHD>:
    95e4:	0209 0043 0102 a000 0932 0004 0100 0202     ..C.....2.......
    95f4:	0001 2405 1000 0501 0124 0000 2404 0202     ...$....$....$..
    9604:	2405 0006 0701 8105 4003 ff00 0409 0001     .$.......@......
    9614:	0a02 0000 0700 0205 4002 0000 0507 0282     .........@......
    9624:	0040 0000                                   @...

00009628 <MyReportDescHD>:
    9628:	0314 0032 0030 0031 0037 002d 0032 002d     ..2.0.1.7.-.2.-.
    9638:	0032 0035                                   2.5.

0000963c <MyManuInfoHD>:
    963c:	030e 0077 0063 0068 002e 0063 006e 0000     ..w.c.h...c.n...

0000964c <MyProdInfoHD>:
    964c:	030c 0043 0048 0033 0030 0037               ..C.H.3.0.7.

00009658 <MySerNumInfoHD>:
    9658:	0316 0030 0031 0032 0033 0034 0035 0036     ..0.1.2.3.4.5.6.
    9668:	0037 0038 0039 0000                         7.8.9...

00009670 <MyUSBQUADescHD>:
    9670:	060a 0200 00ff 40ff 0001 0000 3dd4 0000     .......@.....=..
    9680:	3b28 0000 3ee2 0000 3c1e 0000 3ee2 0000     (;...>...<...>..
    9690:	3abe 0000 3900 0000 3ee2 0000 3ae2 0000     .:...9...>...:..
    96a0:	3b0a 0000 3d98 0000 3db8 0000 3a48 0000     .;...=...=..H:..
    96b0:	3932 0000 3944 0000 3958 0000 3a48 0000     29..D9..X9..H:..
    96c0:	3a48 0000 39f0 0000 3a02 0000 3a48 0000     H:...9...:..H:..
    96d0:	3a48 0000 3a48 0000 3a48 0000 3a48 0000     H:..H:..H:..H:..
    96e0:	3a48 0000 3a48 0000 3a40 0000 3a48 0000     H:..H:..@:..H:..
    96f0:	3a48 0000 3a48 0000 3a48 0000 3a48 0000     H:..H:..H:..H:..
    9700:	3a48 0000 3a48 0000 3a48 0000 3a48 0000     H:..H:..H:..H:..
    9710:	3a48 0000 3a48 0000 3a48 0000 3a48 0000     H:..H:..H:..H:..
    9720:	3a48 0000 3a48 0000 3a48 0000 3a48 0000     H:..H:..H:..H:..
    9730:	3a48 0000 39de 0000 b5ac ffff b430 ffff     H:...9......0...
    9740:	b540 ffff b548 ffff b540 ffff b460 ffff     @...H...@...`...
    9750:	b540 ffff b548 ffff b430 ffff b430 ffff     @...H...0...0...
    9760:	b460 ffff b548 ffff b5a2 ffff b5a2 ffff     `...H...........
    9770:	b5a2 ffff b460 ffff bc0e ffff bb00 ffff     ....`...........
    9780:	bb00 ffff bafe ffff bb06 ffff bb06 ffff     ................
    9790:	bacc ffff bafe ffff bb06 ffff bacc ffff     ................
    97a0:	bb06 ffff bafe ffff bbfa ffff bbfa ffff     ................
    97b0:	bbfa ffff bacc ffff                         ........

000097b8 <__clz_tab>:
    97b8:	0100 0202 0303 0303 0404 0404 0404 0404     ................
    97c8:	0505 0505 0505 0505 0505 0505 0505 0505     ................
    97d8:	0606 0606 0606 0606 0606 0606 0606 0606     ................
    97e8:	0606 0606 0606 0606 0606 0606 0606 0606     ................
    97f8:	0707 0707 0707 0707 0707 0707 0707 0707     ................
    9808:	0707 0707 0707 0707 0707 0707 0707 0707     ................
    9818:	0707 0707 0707 0707 0707 0707 0707 0707     ................
    9828:	0707 0707 0707 0707 0707 0707 0707 0707     ................
    9838:	0808 0808 0808 0808 0808 0808 0808 0808     ................
    9848:	0808 0808 0808 0808 0808 0808 0808 0808     ................
    9858:	0808 0808 0808 0808 0808 0808 0808 0808     ................
    9868:	0808 0808 0808 0808 0808 0808 0808 0808     ................
    9878:	0808 0808 0808 0808 0808 0808 0808 0808     ................
    9888:	0808 0808 0808 0808 0808 0808 0808 0808     ................
    9898:	0808 0808 0808 0808 0808 0808 0808 0808     ................
    98a8:	0808 0808 0808 0808 0808 0808 0808 0808     ................
    98b8:	ffff ffff ffff 7fef 4e49 0046 6e69 0066     ........INF.inf.
    98c8:	414e 004e 616e 006e 0030 0000 3130 3332     NAN.nan.0...0123
    98d8:	3534 3736 3938 4241 4443 4645 0000 0000     456789ABCDEF....
    98e8:	3130 3332 3534 3736 3938 6261 6463 6665     0123456789abcdef
	...
    9904:	0000 3ff8 4361 636f 87a7 3fd2 c8b3 8b60     ...?aCoc...?..`.
    9914:	8a28 3fc6 79fb 509f 4413 3fd3 0000 0000     (..?.y.P.D.?....
    9924:	0000 3ff0 0000 0000 0000 4024 0000 0000     ...?......$@....
    9934:	0000 401c 0000 0000 0000 4014 0000 0000     ...@.......@....
    9944:	0000 3fe0 6e49 6966 696e 7974 0000 0000     ...?Infinity....
    9954:	614e 004e                                   NaN.

00009958 <__sf_fake_stderr>:
	...

00009978 <__sf_fake_stdin>:
	...

00009998 <__sf_fake_stdout>:
	...

000099b8 <__mprec_bigtens>:
    99b8:	8000 37e0 c379 4341 6e17 b505 b8b5 4693     ...7y.AC.n.....F
    99c8:	f9f5 e93f 4f03 4d38 1d32 f930 7748 5a82     ..?..O8M2.0.Hw.Z
    99d8:	bf3c 7f73 4fdd 7515                         <.s..O.u

000099e0 <__mprec_tens>:
    99e0:	0000 0000 0000 3ff0 0000 0000 0000 4024     .......?......$@
    99f0:	0000 0000 0000 4059 0000 0000 4000 408f     ......Y@.....@.@
    9a00:	0000 0000 8800 40c3 0000 0000 6a00 40f8     .......@.....j.@
    9a10:	0000 0000 8480 412e 0000 0000 12d0 4163     .......A......cA
    9a20:	0000 0000 d784 4197 0000 0000 cd65 41cd     .......A....e..A
    9a30:	0000 2000 a05f 4202 0000 e800 4876 4237     ... _..B....vH7B
    9a40:	0000 a200 1a94 426d 0000 e540 309c 42a2     ......mB..@..0.B
    9a50:	0000 1e90 bcc4 42d6 0000 2634 6bf5 430c     .......B..4&.k.C
    9a60:	8000 37e0 c379 4341 a000 85d8 3457 4376     ...7y.AC....W4vC
    9a70:	c800 674e c16d 43ab 3d00 6091 58e4 43e1     ..Ngm..C.=.`.X.C
    9a80:	8c40 78b5 af1d 4415 ef50 d6e2 1ae4 444b     @..x...DP.....KD
    9a90:	d592 064d f0cf 4480 4af6 c7e1 2d02 44b5     ..M....D.J...-.D
    9aa0:	9db4 79d9 7843 44ea                         ...yCx.D

00009aa8 <p05.3319>:
    9aa8:	0005 0000 0019 0000 007d 0000 2d23 2b30     ........}...#-0+
    9ab8:	0020 0000 6c68 004c 6665 4567 4746 0000      ...hlL.efgEFG..
    9ac8:	0043 0000 4f50 4953 0058 0000 002e 0000     C...POSIX.......

00009ad8 <_ctype_>:
    9ad8:	2000 2020 2020 2020 2020 2828 2828 2028     .         ((((( 
    9ae8:	2020 2020 2020 2020 2020 2020 2020 2020                     
    9af8:	8820 1010 1010 1010 1010 1010 1010 1010      ...............
    9b08:	0410 0404 0404 0404 0404 1004 1010 1010     ................
    9b18:	1010 4141 4141 4141 0101 0101 0101 0101     ..AAAAAA........
    9b28:	0101 0101 0101 0101 0101 0101 1010 1010     ................
    9b38:	1010 4242 4242 4242 0202 0202 0202 0202     ..BBBBBB........
    9b48:	0202 0202 0202 0202 0202 0202 1010 1010     ................
    9b58:	0020 0000 0000 0000 0000 0000 0000 0000      ...............
	...
