
Robot_Master.elf:     file format elf32-littleriscv
Robot_Master.elf
architecture: riscv:rv32, flags 0x00000112:
EXEC_P, HAS_SYMS, D_PAGED
start address 0x00000000

Program Header:
    LOAD off    0x00001000 vaddr 0x00000000 paddr 0x00000000 align 2**12
         filesz 0x000020e8 memsz 0x000020e8 flags r-x
    LOAD off    0x00004000 vaddr 0x20000000 paddr 0x000020e8 align 2**12
         filesz 0x00000078 memsz 0x000000b8 flags rw-
    LOAD off    0x00004800 vaddr 0x20004800 paddr 0x20004800 align 2**12
         filesz 0x00000000 memsz 0x00000800 flags rw-

Sections:
Idx Name           Size      VMA       LMA       File off  Algn  Flags
  0 .init          00000038  00000000  00000000  00001000  2**1  CONTENTS, ALLOC, LOAD, READONLY, CODE
  1 .vector        00000108  00000038  00000038  00001038  2**1  CONTENTS, ALLOC, LOAD, READONLY, CODE
  2 .text          00001fa8  00000140  00000140  00001140  2**2  CONTENTS, ALLOC, LOAD, READONLY, CODE
  3 .fini          00000000  000020e8  000020e8  00004078  2**0  CONTENTS, ALLOC, LOAD, CODE
  4 .dalign        00000000  20000000  20000000  00004078  2**0  CONTENTS
  5 .dlalign       00000000  000020e8  000020e8  00004078  2**0  CONTENTS
  6 .data          00000078  20000000  000020e8  00004000  2**2  CONTENTS, ALLOC, LOAD, DATA
  7 .bss           00000040  20000078  00002160  00004078  2**2  ALLOC
  8 .stack         00000800  20004800  20004800  00004800  2**0  ALLOC
  9 .debug_info    00011704  00000000  00000000  00004078  2**0  CONTENTS, READONLY, DEBUGGING
 10 .debug_abbrev  00002c13  00000000  00000000  0001577c  2**0  CONTENTS, READONLY, DEBUGGING
 11 .debug_aranges 00000a80  00000000  00000000  00018390  2**3  CONTENTS, READONLY, DEBUGGING
 12 .debug_ranges  00000928  00000000  00000000  00018e10  2**3  CONTENTS, READONLY, DEBUGGING
 13 .debug_line    000098dc  00000000  00000000  00019738  2**0  CONTENTS, READONLY, DEBUGGING
 14 .debug_str     00003772  00000000  00000000  00023014  2**0  CONTENTS, READONLY, DEBUGGING
 15 .comment       00000033  00000000  00000000  00026786  2**0  CONTENTS, READONLY
 16 .debug_frame   00002488  00000000  00000000  000267bc  2**2  CONTENTS, READONLY, DEBUGGING
 17 .stabstr       00000183  00000000  00000000  00028c44  2**0  CONTENTS, READONLY, DEBUGGING
SYMBOL TABLE:
00000000 l    d  .init	00000000 .init
00000038 l    d  .vector	00000000 .vector
00000140 l    d  .text	00000000 .text
000020e8 l    d  .fini	00000000 .fini
20000000 l    d  .dalign	00000000 .dalign
000020e8 l    d  .dlalign	00000000 .dlalign
20000000 l    d  .data	00000000 .data
20000078 l    d  .bss	00000000 .bss
20004800 l    d  .stack	00000000 .stack
00000000 l    d  .debug_info	00000000 .debug_info
00000000 l    d  .debug_abbrev	00000000 .debug_abbrev
00000000 l    d  .debug_aranges	00000000 .debug_aranges
00000000 l    d  .debug_ranges	00000000 .debug_ranges
00000000 l    d  .debug_line	00000000 .debug_line
00000000 l    d  .debug_str	00000000 .debug_str
00000000 l    d  .comment	00000000 .comment
00000000 l    d  .debug_frame	00000000 .debug_frame
00000000 l    d  .stabstr	00000000 .stabstr
00000000 l    df *ABS*	00000000 ./Libraries/wch_libraries/Startup/startup_ch32v10x.o
00000038 l       .vector	00000000 _vector_base
00000000 l    df *ABS*	00000000 isr.c
00000000 l    df *ABS*	00000000 main.c
00000000 l    df *ABS*	00000000 ch32v10x_dma.c
00000000 l    df *ABS*	00000000 ch32v10x_exti.c
00000000 l    df *ABS*	00000000 ch32v10x_gpio.c
00000000 l    df *ABS*	00000000 ch32v10x_misc.c
000009e0 l     F .text	00000032 NVIC_EnableIRQ
00000a12 l     F .text	00000032 NVIC_DisableIRQ
00000a44 l     F .text	0000002a NVIC_SetPriority
00000000 l    df *ABS*	00000000 ch32v10x_rcc.c
20000000 l     O .data	00000010 APBAHBPrescTable
20000068 l     O .data	00000004 ADCPrescTable
00000000 l    df *ABS*	00000000 ch32v10x_tim.c
00000000 l    df *ABS*	00000000 ch32v10x_usart.c
00000000 l    df *ABS*	00000000 SEEKFREE_MT9V03X.c
00000000 l    df *ABS*	00000000 SEEKFREE_UART_7725.c
00000000 l    df *ABS*	00000000 zf_gpio.c
00000000 l    df *ABS*	00000000 zf_nvic.c
00000000 l    df *ABS*	00000000 zf_uart.c
00000000 l    df *ABS*	00000000 board.c
00000000 l    df *ABS*	00000000 clock_config.c
00001ace l     F .text	00000140 SetSysClock
00000000 l    df *ABS*	00000000 Robot_Communite.c
20000070 l     O .data	00000001 start_receive_flag.6007
2000008d l     O .bss	00000001 cnt.6006
20000090 l     O .bss	00000004 sync.6011
20000094 l     O .bss	00000001 start_pulse.6012
00000000 l    df *ABS*	00000000 Util.c
00000000 l    df *ABS*	00000000 Data.c
00000000 l    df *ABS*	00000000 common.c
00000000 l    df *ABS*	00000000 close.c
00000196 g     F .text	00000014 EXTI2_IRQHandler
20000868 g       .data	00000000 __global_pointer$
000002b6 g     F .text	00000090 TIM1_CC_IRQHandler
0000048e g     F .text	00000008 HardFault_Handler
00000a6e g     F .text	000000c4 NVIC_Init
20000088 g     O .bss	00000004 sys_clk
0000047e g     F .text	00000010 NMI_Handler
000001aa g     F .text	00000010 EXTI3_IRQHandler
2000006c g     O .data	00000004 camera_type
20000078 g       .bss	00000000 _sbss
00000800 g       *ABS*	00000000 __stack_size
200000a4 g     O .bss	00000014 sip_receive_info
20000085 g     O .bss	00000001 ov7725_uart_finish_flag
000008a4 g     F .text	0000013c GPIO_PinRemapConfig
00000140 g     F .text	00000010 EXTI0_IRQHandler
000011cc g     F .text	00000026 USART_ReceiveData
00001a06 g     F .text	00000046 uart_putbuff
00000038 g       .init	00000000 _einit
00001748 g     F .text	00000028 sys_recover_irq
00000e48 g     F .text	0000002e TIM_ClearITPendingBit
00000d4c g     F .text	00000046 RCC_APB2PeriphClockCmd
000013b2 g     F .text	00000036 mt9v03x_vsync
000001ea g     F .text	00000010 ADC1_2_IRQHandler
00000642 g     F .text	0000022a GPIO_Init
0000168e g     F .text	00000098 nvic_init
000010a8 g     F .text	00000060 USART_Cmd
000012f4 g     F .text	0000004e USART_ClearITPendingBit
20000010 g     O .data	00000031 standard_sip_info
00000d92 g     F .text	00000046 RCC_APB1PeriphClockCmd
00000438 g     F .text	00000046 DMA1_Channel4_IRQHandler
00001f06 g     F .text	00000074 Keep_Robot_Communite
00000538 g     F .text	0000005c DMA_GetFlagStatus
00000428 g     F .text	00000010 USART3_IRQHandler
00000622 g     F .text	00000020 EXTI_ClearITPendingBit
200000b8 g       .bss	00000000 _ebss
000011f2 g     F .text	00000102 USART_GetITStatus
00001416 g     F .text	00000070 ov7725_cof_uart_interrupt
000020d8 g     O .text	00000010 UARTN
0000039e g     F .text	00000030 TIM4_IRQHandler
0000086c g     F .text	00000038 GPIO_WriteBit
20000083 g     O .bss	00000001 ov7725_uart_receive_num
200000b8 g       .bss	00000000 end
00000dd8 g     F .text	00000070 TIM_GetITStatus
00000b32 g     F .text	0000021a RCC_GetClocksFreq
000018ac g     F .text	00000104 uart_init
00000e76 g     F .text	00000232 USART_Init
0000036e g     F .text	00000030 TIM3_IRQHandler
000017ac g     F .text	00000028 EnableGlobalIRQ
000017d4 g     F .text	000000d8 uart_gpio_init
0000025e g     F .text	00000058 TIM1_TRG_COM_IRQHandler
000014bc g     F .text	0000002e ov7725_uart_dma
00000000 g       .init	00000000 _start
20000084 g     O .bss	00000001 ov7725_uart_receive_flag
00001726 g     F .text	00000022 close_all_irq
000001da g     F .text	00000010 EXTI15_10_IRQHandler
000020c8 g     O .text	00000010 GPION
00001108 g     F .text	000000c4 USART_ITConfig
20000000 g       .dalign	00000000 _data_vma
000001ca g     F .text	00000010 EXTI9_5_IRQHandler
00001cce g     F .text	0000008e Add_Checksum
00001a9a g     F .text	00000034 board_init
00001dea g     F .text	0000011c Start_Robot_Connection_Sync
000005cc g     F .text	00000056 EXTI_GetITStatus
000013e8 g     F .text	0000002e mt9v03x_dma
00000496 g     F .text	00000028 main
000001ba g     F .text	00000010 EXTI4_IRQHandler
00001d5c g     F .text	0000008e Receive_Sip
00001770 g     F .text	0000003c DisableGlobalIRQ
00001c0e g     F .text	0000007c SystemInit
00000000 g       .init	00000000 _sinit
2000007b g     O .bss	00000001 receive_num
20000098 g     O .bss	0000000c irq_status
20000044 g     O .data	0000001f standard_io_info
0000022e g     F .text	00000030 TIM1_UP_IRQHandler
20000078 g     O .bss	00000003 receive
00001486 g     F .text	00000036 ov7725_uart_vsync
00000346 g     F .text	00000028 TIM2_IRQHandler
20005000 g       .stack	00000000 _eusrstack
2000007c g     O .bss	00000001 uart_receive_flag
0000200e g     F .text	000000ba Calc_Check_Sum
00001342 g     F .text	00000070 mt9v03x_uart_callback
2000007d g     O .bss	00000001 mt9v03x_finish_flag
000001fa g     F .text	00000034 TIM1_BRK_IRQHandler
00000150 g     F .text	00000046 EXTI1_IRQHandler
20000078 g       .data	00000000 _edata
000020e8 g       .dlalign	00000000 _data_lma
000003ce g     F .text	0000005a USART2_IRQHandler
00000594 g     F .text	00000038 DMA_ClearFlag
000004be  w      .text	00000000 handle_reset
00001f7a g     F .text	00000094 USART1_IRQHandler
00001a4c g     F .text	0000004e uart_rx_irq
000014ea g     F .text	000001a4 gpio_init
00001c8a g     F .text	00000044 Robot_Communite_Init
000019b0 g     F .text	00000056 uart_putchar
2000008c g     O .bss	00000001 uart_state
20000080 g     O .bss	00000003 ov7725_uart_receive



Disassembly of section .init:

00000000 <_sinit>:
_start():
D:\MounRiver\MounRiver_Studio\workspace\Seekfree_CH32V103R8T6_Opensource_Library\obj/../Libraries/wch_libraries/Startup/startup_ch32v10x.S:13

	.section	.init,"ax",@progbits
	.global	_start
	.align	1
_start:
	j	handle_reset
   0:	4be0006f          	j	4be <handle_reset>
   4:	00000013          	nop
   8:	00000013          	nop
   c:	00000013          	nop
  10:	00000013          	nop
  14:	00000013          	nop
  18:	00000013          	nop
  1c:	00000013          	nop
  20:	00000013          	nop
  24:	00000013          	nop
  28:	00000013          	nop
  2c:	00000013          	nop
  30:	00000013          	nop
  34:	00100073          	ebreak

Disassembly of section .vector:

00000038 <_vector_base>:
_vector_base():
D:\MounRiver\MounRiver_Studio\workspace\Seekfree_CH32V103R8T6_Opensource_Library\obj/../Libraries/wch_libraries/Startup/startup_ch32v10x.S:31
	.word 0x00100073
    .section    .vector,"ax",@progbits
    .align  1
_vector_base:
    .option norvc;
        j   _start
  38:	fc9ff06f          	j	0 <_sinit>
  3c:	0000                	unimp
  3e:	0000                	unimp
D:\MounRiver\MounRiver_Studio\workspace\Seekfree_CH32V103R8T6_Opensource_Library\obj/../Libraries/wch_libraries/Startup/startup_ch32v10x.S:33
    .word   0
        j   NMI_Handler                 /* NMI Handler */
  40:	43e0006f          	j	47e <NMI_Handler>
D:\MounRiver\MounRiver_Studio\workspace\Seekfree_CH32V103R8T6_Opensource_Library\obj/../Libraries/wch_libraries/Startup/startup_ch32v10x.S:34
        j   HardFault_Handler           /* Hard Fault Handler */
  44:	44a0006f          	j	48e <HardFault_Handler>
	...
D:\MounRiver\MounRiver_Studio\workspace\Seekfree_CH32V103R8T6_Opensource_Library\obj/../Libraries/wch_libraries/Startup/startup_ch32v10x.S:43
    .word   0
    .word   0
    .word   0
    .word   0
    .word   0
        j   SysTick_Handler            /* SysTick Handler */
  68:	f99ff06f          	j	0 <_sinit>
  6c:	0000                	unimp
  6e:	0000                	unimp
D:\MounRiver\MounRiver_Studio\workspace\Seekfree_CH32V103R8T6_Opensource_Library\obj/../Libraries/wch_libraries/Startup/startup_ch32v10x.S:45
    .word   0
        j   SW_handler                 /* SW Handler */
  70:	f91ff06f          	j	0 <_sinit>
  74:	0000                	unimp
  76:	0000                	unimp
D:\MounRiver\MounRiver_Studio\workspace\Seekfree_CH32V103R8T6_Opensource_Library\obj/../Libraries/wch_libraries/Startup/startup_ch32v10x.S:48
    .word   0
    /* External Interrupts */
        j   WWDG_IRQHandler            /* Window Watchdog */
  78:	f89ff06f          	j	0 <_sinit>
D:\MounRiver\MounRiver_Studio\workspace\Seekfree_CH32V103R8T6_Opensource_Library\obj/../Libraries/wch_libraries/Startup/startup_ch32v10x.S:49
        j   PVD_IRQHandler             /* PVD through EXTI Line detect */
  7c:	f85ff06f          	j	0 <_sinit>
D:\MounRiver\MounRiver_Studio\workspace\Seekfree_CH32V103R8T6_Opensource_Library\obj/../Libraries/wch_libraries/Startup/startup_ch32v10x.S:50
        j   TAMPER_IRQHandler          /* TAMPER */
  80:	f81ff06f          	j	0 <_sinit>
D:\MounRiver\MounRiver_Studio\workspace\Seekfree_CH32V103R8T6_Opensource_Library\obj/../Libraries/wch_libraries/Startup/startup_ch32v10x.S:51
        j   RTC_IRQHandler             /* RTC */
  84:	f7dff06f          	j	0 <_sinit>
D:\MounRiver\MounRiver_Studio\workspace\Seekfree_CH32V103R8T6_Opensource_Library\obj/../Libraries/wch_libraries/Startup/startup_ch32v10x.S:52
        j   FLASH_IRQHandler           /* Flash */
  88:	f79ff06f          	j	0 <_sinit>
D:\MounRiver\MounRiver_Studio\workspace\Seekfree_CH32V103R8T6_Opensource_Library\obj/../Libraries/wch_libraries/Startup/startup_ch32v10x.S:53
        j   RCC_IRQHandler             /* RCC */
  8c:	f75ff06f          	j	0 <_sinit>
D:\MounRiver\MounRiver_Studio\workspace\Seekfree_CH32V103R8T6_Opensource_Library\obj/../Libraries/wch_libraries/Startup/startup_ch32v10x.S:54
        j   EXTI0_IRQHandler           /* EXTI Line 0 */
  90:	0b00006f          	j	140 <EXTI0_IRQHandler>
D:\MounRiver\MounRiver_Studio\workspace\Seekfree_CH32V103R8T6_Opensource_Library\obj/../Libraries/wch_libraries/Startup/startup_ch32v10x.S:55
        j   EXTI1_IRQHandler           /* EXTI Line 1 */
  94:	0bc0006f          	j	150 <EXTI1_IRQHandler>
D:\MounRiver\MounRiver_Studio\workspace\Seekfree_CH32V103R8T6_Opensource_Library\obj/../Libraries/wch_libraries/Startup/startup_ch32v10x.S:56
        j   EXTI2_IRQHandler           /* EXTI Line 2 */
  98:	0fe0006f          	j	196 <EXTI2_IRQHandler>
D:\MounRiver\MounRiver_Studio\workspace\Seekfree_CH32V103R8T6_Opensource_Library\obj/../Libraries/wch_libraries/Startup/startup_ch32v10x.S:57
        j   EXTI3_IRQHandler           /* EXTI Line 3 */
  9c:	10e0006f          	j	1aa <EXTI3_IRQHandler>
D:\MounRiver\MounRiver_Studio\workspace\Seekfree_CH32V103R8T6_Opensource_Library\obj/../Libraries/wch_libraries/Startup/startup_ch32v10x.S:58
        j   EXTI4_IRQHandler           /* EXTI Line 4 */
  a0:	11a0006f          	j	1ba <EXTI4_IRQHandler>
D:\MounRiver\MounRiver_Studio\workspace\Seekfree_CH32V103R8T6_Opensource_Library\obj/../Libraries/wch_libraries/Startup/startup_ch32v10x.S:59
        j   DMA1_Channel1_IRQHandler   /* DMA1 Channel 1 */
  a4:	f5dff06f          	j	0 <_sinit>
D:\MounRiver\MounRiver_Studio\workspace\Seekfree_CH32V103R8T6_Opensource_Library\obj/../Libraries/wch_libraries/Startup/startup_ch32v10x.S:60
        j   DMA1_Channel2_IRQHandler   /* DMA1 Channel 2 */
  a8:	f59ff06f          	j	0 <_sinit>
D:\MounRiver\MounRiver_Studio\workspace\Seekfree_CH32V103R8T6_Opensource_Library\obj/../Libraries/wch_libraries/Startup/startup_ch32v10x.S:61
        j   DMA1_Channel3_IRQHandler   /* DMA1 Channel 3 */
  ac:	f55ff06f          	j	0 <_sinit>
D:\MounRiver\MounRiver_Studio\workspace\Seekfree_CH32V103R8T6_Opensource_Library\obj/../Libraries/wch_libraries/Startup/startup_ch32v10x.S:62
        j   DMA1_Channel4_IRQHandler   /* DMA1 Channel 4 */
  b0:	3880006f          	j	438 <DMA1_Channel4_IRQHandler>
D:\MounRiver\MounRiver_Studio\workspace\Seekfree_CH32V103R8T6_Opensource_Library\obj/../Libraries/wch_libraries/Startup/startup_ch32v10x.S:63
        j   DMA1_Channel5_IRQHandler   /* DMA1 Channel 5 */
  b4:	f4dff06f          	j	0 <_sinit>
D:\MounRiver\MounRiver_Studio\workspace\Seekfree_CH32V103R8T6_Opensource_Library\obj/../Libraries/wch_libraries/Startup/startup_ch32v10x.S:64
        j   DMA1_Channel6_IRQHandler   /* DMA1 Channel 6 */
  b8:	f49ff06f          	j	0 <_sinit>
D:\MounRiver\MounRiver_Studio\workspace\Seekfree_CH32V103R8T6_Opensource_Library\obj/../Libraries/wch_libraries/Startup/startup_ch32v10x.S:65
        j   DMA1_Channel7_IRQHandler   /* DMA1 Channel 7 */
  bc:	f45ff06f          	j	0 <_sinit>
D:\MounRiver\MounRiver_Studio\workspace\Seekfree_CH32V103R8T6_Opensource_Library\obj/../Libraries/wch_libraries/Startup/startup_ch32v10x.S:66
        j   ADC1_2_IRQHandler          /* ADC1_2 */
  c0:	12a0006f          	j	1ea <ADC1_2_IRQHandler>
	...
D:\MounRiver\MounRiver_Studio\workspace\Seekfree_CH32V103R8T6_Opensource_Library\obj/../Libraries/wch_libraries/Startup/startup_ch32v10x.S:71
        .word   0
        .word   0
        .word   0
        .word   0
        j   EXTI9_5_IRQHandler         /* EXTI Line 9..5 */
  d4:	0f60006f          	j	1ca <EXTI9_5_IRQHandler>
D:\MounRiver\MounRiver_Studio\workspace\Seekfree_CH32V103R8T6_Opensource_Library\obj/../Libraries/wch_libraries/Startup/startup_ch32v10x.S:72
        j   TIM1_BRK_IRQHandler        /* TIM1 Break */
  d8:	1220006f          	j	1fa <TIM1_BRK_IRQHandler>
D:\MounRiver\MounRiver_Studio\workspace\Seekfree_CH32V103R8T6_Opensource_Library\obj/../Libraries/wch_libraries/Startup/startup_ch32v10x.S:73
        j   TIM1_UP_IRQHandler         /* TIM1 Update */
  dc:	1520006f          	j	22e <TIM1_UP_IRQHandler>
D:\MounRiver\MounRiver_Studio\workspace\Seekfree_CH32V103R8T6_Opensource_Library\obj/../Libraries/wch_libraries/Startup/startup_ch32v10x.S:74
        j   TIM1_TRG_COM_IRQHandler    /* TIM1 Trigger and Commutation */
  e0:	17e0006f          	j	25e <TIM1_TRG_COM_IRQHandler>
D:\MounRiver\MounRiver_Studio\workspace\Seekfree_CH32V103R8T6_Opensource_Library\obj/../Libraries/wch_libraries/Startup/startup_ch32v10x.S:75
        j   TIM1_CC_IRQHandler         /* TIM1 Capture Compare */
  e4:	1d20006f          	j	2b6 <TIM1_CC_IRQHandler>
D:\MounRiver\MounRiver_Studio\workspace\Seekfree_CH32V103R8T6_Opensource_Library\obj/../Libraries/wch_libraries/Startup/startup_ch32v10x.S:76
        j   TIM2_IRQHandler            /* TIM2 */
  e8:	25e0006f          	j	346 <TIM2_IRQHandler>
D:\MounRiver\MounRiver_Studio\workspace\Seekfree_CH32V103R8T6_Opensource_Library\obj/../Libraries/wch_libraries/Startup/startup_ch32v10x.S:77
        j   TIM3_IRQHandler            /* TIM3 */
  ec:	2820006f          	j	36e <TIM3_IRQHandler>
D:\MounRiver\MounRiver_Studio\workspace\Seekfree_CH32V103R8T6_Opensource_Library\obj/../Libraries/wch_libraries/Startup/startup_ch32v10x.S:78
        j   TIM4_IRQHandler            /* TIM4 */
  f0:	2ae0006f          	j	39e <TIM4_IRQHandler>
D:\MounRiver\MounRiver_Studio\workspace\Seekfree_CH32V103R8T6_Opensource_Library\obj/../Libraries/wch_libraries/Startup/startup_ch32v10x.S:79
        j   I2C1_EV_IRQHandler         /* I2C1 Event */
  f4:	f0dff06f          	j	0 <_sinit>
D:\MounRiver\MounRiver_Studio\workspace\Seekfree_CH32V103R8T6_Opensource_Library\obj/../Libraries/wch_libraries/Startup/startup_ch32v10x.S:80
        j   I2C1_ER_IRQHandler         /* I2C1 Error */
  f8:	f09ff06f          	j	0 <_sinit>
D:\MounRiver\MounRiver_Studio\workspace\Seekfree_CH32V103R8T6_Opensource_Library\obj/../Libraries/wch_libraries/Startup/startup_ch32v10x.S:81
        j   I2C2_EV_IRQHandler         /* I2C2 Event */
  fc:	f05ff06f          	j	0 <_sinit>
D:\MounRiver\MounRiver_Studio\workspace\Seekfree_CH32V103R8T6_Opensource_Library\obj/../Libraries/wch_libraries/Startup/startup_ch32v10x.S:82
        j   I2C2_ER_IRQHandler         /* I2C2 Error */
 100:	f01ff06f          	j	0 <_sinit>
D:\MounRiver\MounRiver_Studio\workspace\Seekfree_CH32V103R8T6_Opensource_Library\obj/../Libraries/wch_libraries/Startup/startup_ch32v10x.S:83
        j   SPI1_IRQHandler            /* SPI1 */
 104:	efdff06f          	j	0 <_sinit>
D:\MounRiver\MounRiver_Studio\workspace\Seekfree_CH32V103R8T6_Opensource_Library\obj/../Libraries/wch_libraries/Startup/startup_ch32v10x.S:84
        j   SPI2_IRQHandler            /* SPI2 */
 108:	ef9ff06f          	j	0 <_sinit>
D:\MounRiver\MounRiver_Studio\workspace\Seekfree_CH32V103R8T6_Opensource_Library\obj/../Libraries/wch_libraries/Startup/startup_ch32v10x.S:85
        j   USART1_IRQHandler          /* USART1 */
 10c:	66f0106f          	j	1f7a <USART1_IRQHandler>
D:\MounRiver\MounRiver_Studio\workspace\Seekfree_CH32V103R8T6_Opensource_Library\obj/../Libraries/wch_libraries/Startup/startup_ch32v10x.S:86
        j   USART2_IRQHandler          /* USART2 */
 110:	2be0006f          	j	3ce <USART2_IRQHandler>
D:\MounRiver\MounRiver_Studio\workspace\Seekfree_CH32V103R8T6_Opensource_Library\obj/../Libraries/wch_libraries/Startup/startup_ch32v10x.S:87
        j   USART3_IRQHandler          /* USART3 */
 114:	3140006f          	j	428 <USART3_IRQHandler>
D:\MounRiver\MounRiver_Studio\workspace\Seekfree_CH32V103R8T6_Opensource_Library\obj/../Libraries/wch_libraries/Startup/startup_ch32v10x.S:88
        j   EXTI15_10_IRQHandler       /* EXTI Line 15..10 */
 118:	0c20006f          	j	1da <EXTI15_10_IRQHandler>
D:\MounRiver\MounRiver_Studio\workspace\Seekfree_CH32V103R8T6_Opensource_Library\obj/../Libraries/wch_libraries/Startup/startup_ch32v10x.S:89
        j   RTCAlarm_IRQHandler        /* RTC Alarm through EXTI Line */
 11c:	ee5ff06f          	j	0 <_sinit>
D:\MounRiver\MounRiver_Studio\workspace\Seekfree_CH32V103R8T6_Opensource_Library\obj/../Libraries/wch_libraries/Startup/startup_ch32v10x.S:90
        j   USBWakeUp_IRQHandler       /* USB Wakeup from suspend */
 120:	ee1ff06f          	j	0 <_sinit>
D:\MounRiver\MounRiver_Studio\workspace\Seekfree_CH32V103R8T6_Opensource_Library\obj/../Libraries/wch_libraries/Startup/startup_ch32v10x.S:91
        j   USBHD_IRQHandler           /* USBHD */
 124:	eddff06f          	j	0 <_sinit>
	...

Disassembly of section .text:

00000140 <EXTI0_IRQHandler>:
EXTI0_IRQHandler():
D:\MounRiver\MounRiver_Studio\workspace\Robot_Master\obj/../USER/isr.c:63
//void RTCAlarm_IRQHandler(void) __attribute__((interrupt("WCH-Interrupt-fast")));
//void USBWakeUp_IRQHandler(void) __attribute__((interrupt("WCH-Interrupt-fast")));
//void USBHD_IRQHandler(void) __attribute__((interrupt("WCH-Interrupt-fast")));

void EXTI0_IRQHandler(void)
{
     140:	1141                	addi	sp,sp,-16
     142:	c622                	sw	s0,12(sp)
     144:	0800                	addi	s0,sp,16
D:\MounRiver\MounRiver_Studio\workspace\Robot_Master\obj/../USER/isr.c:66


}
     146:	0001                	nop
     148:	4432                	lw	s0,12(sp)
     14a:	0141                	addi	sp,sp,16
     14c:	30200073          	mret

00000150 <EXTI1_IRQHandler>:
EXTI1_IRQHandler():
D:\MounRiver\MounRiver_Studio\workspace\Robot_Master\obj/../USER/isr.c:69

void EXTI1_IRQHandler(void)
{
     150:	1141                	addi	sp,sp,-16
     152:	c622                	sw	s0,12(sp)
     154:	0800                	addi	s0,sp,16
D:\MounRiver\MounRiver_Studio\workspace\Robot_Master\obj/../USER/isr.c:70
    if(SET == EXTI_GetITStatus(EXTI_Line1))
     156:	4509                	li	a0,2
     158:	2995                	jal	5cc <EXTI_GetITStatus>
     15a:	872a                	mv	a4,a0
     15c:	4785                	li	a5,1
     15e:	02f71763          	bne	a4,a5,18c <EXTI1_IRQHandler+0x3c>
D:\MounRiver\MounRiver_Studio\workspace\Robot_Master\obj/../USER/isr.c:72
    {
        if(camera_type == CAMERA_BIN_UART)
     162:	200007b7          	lui	a5,0x20000
     166:	06c7a703          	lw	a4,108(a5) # 2000006c <camera_type>
     16a:	4789                	li	a5,2
     16c:	00f71563          	bne	a4,a5,176 <EXTI1_IRQHandler+0x26>
D:\MounRiver\MounRiver_Studio\workspace\Robot_Master\obj/../USER/isr.c:73
            ov7725_uart_vsync();
     170:	316010ef          	jal	ra,1486 <ov7725_uart_vsync>
     174:	a811                	j	188 <EXTI1_IRQHandler+0x38>
D:\MounRiver\MounRiver_Studio\workspace\Robot_Master\obj/../USER/isr.c:74
        else if(camera_type == CAMERA_GRAYSCALE)
     176:	200007b7          	lui	a5,0x20000
     17a:	06c7a703          	lw	a4,108(a5) # 2000006c <camera_type>
     17e:	4785                	li	a5,1
     180:	00f71463          	bne	a4,a5,188 <EXTI1_IRQHandler+0x38>
D:\MounRiver\MounRiver_Studio\workspace\Robot_Master\obj/../USER/isr.c:75
            mt9v03x_vsync();
     184:	22e010ef          	jal	ra,13b2 <mt9v03x_vsync>
D:\MounRiver\MounRiver_Studio\workspace\Robot_Master\obj/../USER/isr.c:76
        EXTI_ClearITPendingBit(EXTI_Line1);
     188:	4509                	li	a0,2
     18a:	2961                	jal	622 <EXTI_ClearITPendingBit>
D:\MounRiver\MounRiver_Studio\workspace\Robot_Master\obj/../USER/isr.c:79
    }

}
     18c:	0001                	nop
     18e:	4432                	lw	s0,12(sp)
     190:	0141                	addi	sp,sp,16
     192:	30200073          	mret

00000196 <EXTI2_IRQHandler>:
EXTI2_IRQHandler():
D:\MounRiver\MounRiver_Studio\workspace\Robot_Master\obj/../USER/isr.c:82

void EXTI2_IRQHandler(void)
{
     196:	1141                	addi	sp,sp,-16
     198:	c622                	sw	s0,12(sp)
     19a:	0800                	addi	s0,sp,16
D:\MounRiver\MounRiver_Studio\workspace\Robot_Master\obj/../USER/isr.c:83
    EXTI_ClearITPendingBit(EXTI_Line2);
     19c:	4511                	li	a0,4
     19e:	2151                	jal	622 <EXTI_ClearITPendingBit>
D:\MounRiver\MounRiver_Studio\workspace\Robot_Master\obj/../USER/isr.c:84
}
     1a0:	0001                	nop
     1a2:	4432                	lw	s0,12(sp)
     1a4:	0141                	addi	sp,sp,16
     1a6:	30200073          	mret

000001aa <EXTI3_IRQHandler>:
EXTI3_IRQHandler():
D:\MounRiver\MounRiver_Studio\workspace\Robot_Master\obj/../USER/isr.c:87

void EXTI3_IRQHandler(void)
{
     1aa:	1141                	addi	sp,sp,-16
     1ac:	c622                	sw	s0,12(sp)
     1ae:	0800                	addi	s0,sp,16
D:\MounRiver\MounRiver_Studio\workspace\Robot_Master\obj/../USER/isr.c:90


}
     1b0:	0001                	nop
     1b2:	4432                	lw	s0,12(sp)
     1b4:	0141                	addi	sp,sp,16
     1b6:	30200073          	mret

000001ba <EXTI4_IRQHandler>:
EXTI4_IRQHandler():
D:\MounRiver\MounRiver_Studio\workspace\Robot_Master\obj/../USER/isr.c:93

void EXTI4_IRQHandler(void)
{
     1ba:	1141                	addi	sp,sp,-16
     1bc:	c622                	sw	s0,12(sp)
     1be:	0800                	addi	s0,sp,16
D:\MounRiver\MounRiver_Studio\workspace\Robot_Master\obj/../USER/isr.c:96


}
     1c0:	0001                	nop
     1c2:	4432                	lw	s0,12(sp)
     1c4:	0141                	addi	sp,sp,16
     1c6:	30200073          	mret

000001ca <EXTI9_5_IRQHandler>:
EXTI9_5_IRQHandler():
D:\MounRiver\MounRiver_Studio\workspace\Robot_Master\obj/../USER/isr.c:99

void EXTI9_5_IRQHandler(void)
{
     1ca:	1141                	addi	sp,sp,-16
     1cc:	c622                	sw	s0,12(sp)
     1ce:	0800                	addi	s0,sp,16
D:\MounRiver\MounRiver_Studio\workspace\Robot_Master\obj/../USER/isr.c:102


}
     1d0:	0001                	nop
     1d2:	4432                	lw	s0,12(sp)
     1d4:	0141                	addi	sp,sp,16
     1d6:	30200073          	mret

000001da <EXTI15_10_IRQHandler>:
EXTI15_10_IRQHandler():
D:\MounRiver\MounRiver_Studio\workspace\Robot_Master\obj/../USER/isr.c:105

void EXTI15_10_IRQHandler(void)
{
     1da:	1141                	addi	sp,sp,-16
     1dc:	c622                	sw	s0,12(sp)
     1de:	0800                	addi	s0,sp,16
D:\MounRiver\MounRiver_Studio\workspace\Robot_Master\obj/../USER/isr.c:107

}
     1e0:	0001                	nop
     1e2:	4432                	lw	s0,12(sp)
     1e4:	0141                	addi	sp,sp,16
     1e6:	30200073          	mret

000001ea <ADC1_2_IRQHandler>:
ADC1_2_IRQHandler():
D:\MounRiver\MounRiver_Studio\workspace\Robot_Master\obj/../USER/isr.c:110

void ADC1_2_IRQHandler(void)
{
     1ea:	1141                	addi	sp,sp,-16
     1ec:	c622                	sw	s0,12(sp)
     1ee:	0800                	addi	s0,sp,16
D:\MounRiver\MounRiver_Studio\workspace\Robot_Master\obj/../USER/isr.c:113


}
     1f0:	0001                	nop
     1f2:	4432                	lw	s0,12(sp)
     1f4:	0141                	addi	sp,sp,16
     1f6:	30200073          	mret

000001fa <TIM1_BRK_IRQHandler>:
TIM1_BRK_IRQHandler():
D:\MounRiver\MounRiver_Studio\workspace\Robot_Master\obj/../USER/isr.c:116

void TIM1_BRK_IRQHandler(void)
{
     1fa:	1141                	addi	sp,sp,-16
     1fc:	c622                	sw	s0,12(sp)
     1fe:	0800                	addi	s0,sp,16
D:\MounRiver\MounRiver_Studio\workspace\Robot_Master\obj/../USER/isr.c:117
    if(TIM_GetITStatus(TIM1, TIM_IT_Break) != RESET)
     200:	08000593          	li	a1,128
     204:	400137b7          	lui	a5,0x40013
     208:	c0078513          	addi	a0,a5,-1024 # 40012c00 <_eusrstack+0x2000dc00>
     20c:	3cd000ef          	jal	ra,dd8 <TIM_GetITStatus>
     210:	87aa                	mv	a5,a0
     212:	cb89                	beqz	a5,224 <TIM1_BRK_IRQHandler+0x2a>
D:\MounRiver\MounRiver_Studio\workspace\Robot_Master\obj/../USER/isr.c:119
    {
        TIM_ClearITPendingBit(TIM1, TIM_IT_Break);
     214:	08000593          	li	a1,128
     218:	400137b7          	lui	a5,0x40013
     21c:	c0078513          	addi	a0,a5,-1024 # 40012c00 <_eusrstack+0x2000dc00>
     220:	429000ef          	jal	ra,e48 <TIM_ClearITPendingBit>
D:\MounRiver\MounRiver_Studio\workspace\Robot_Master\obj/../USER/isr.c:122

    }
}
     224:	0001                	nop
     226:	4432                	lw	s0,12(sp)
     228:	0141                	addi	sp,sp,16
     22a:	30200073          	mret

0000022e <TIM1_UP_IRQHandler>:
TIM1_UP_IRQHandler():
D:\MounRiver\MounRiver_Studio\workspace\Robot_Master\obj/../USER/isr.c:125

void TIM1_UP_IRQHandler(void)
{
     22e:	1141                	addi	sp,sp,-16
     230:	c622                	sw	s0,12(sp)
     232:	0800                	addi	s0,sp,16
D:\MounRiver\MounRiver_Studio\workspace\Robot_Master\obj/../USER/isr.c:126
    if(TIM_GetITStatus(TIM1, TIM_IT_Update) != RESET)
     234:	4585                	li	a1,1
     236:	400137b7          	lui	a5,0x40013
     23a:	c0078513          	addi	a0,a5,-1024 # 40012c00 <_eusrstack+0x2000dc00>
     23e:	39b000ef          	jal	ra,dd8 <TIM_GetITStatus>
     242:	87aa                	mv	a5,a0
     244:	cb81                	beqz	a5,254 <TIM1_UP_IRQHandler+0x26>
D:\MounRiver\MounRiver_Studio\workspace\Robot_Master\obj/../USER/isr.c:128
    {
        TIM_ClearITPendingBit(TIM1, TIM_IT_Update);
     246:	4585                	li	a1,1
     248:	400137b7          	lui	a5,0x40013
     24c:	c0078513          	addi	a0,a5,-1024 # 40012c00 <_eusrstack+0x2000dc00>
     250:	3f9000ef          	jal	ra,e48 <TIM_ClearITPendingBit>
D:\MounRiver\MounRiver_Studio\workspace\Robot_Master\obj/../USER/isr.c:131

    }
}
     254:	0001                	nop
     256:	4432                	lw	s0,12(sp)
     258:	0141                	addi	sp,sp,16
     25a:	30200073          	mret

0000025e <TIM1_TRG_COM_IRQHandler>:
TIM1_TRG_COM_IRQHandler():
D:\MounRiver\MounRiver_Studio\workspace\Robot_Master\obj/../USER/isr.c:134

void TIM1_TRG_COM_IRQHandler(void)
{
     25e:	1141                	addi	sp,sp,-16
     260:	c622                	sw	s0,12(sp)
     262:	0800                	addi	s0,sp,16
D:\MounRiver\MounRiver_Studio\workspace\Robot_Master\obj/../USER/isr.c:135
    if(TIM_GetITStatus(TIM1, TIM_IT_Trigger) != RESET)
     264:	04000593          	li	a1,64
     268:	400137b7          	lui	a5,0x40013
     26c:	c0078513          	addi	a0,a5,-1024 # 40012c00 <_eusrstack+0x2000dc00>
     270:	369000ef          	jal	ra,dd8 <TIM_GetITStatus>
     274:	87aa                	mv	a5,a0
     276:	cb89                	beqz	a5,288 <TIM1_TRG_COM_IRQHandler+0x2a>
D:\MounRiver\MounRiver_Studio\workspace\Robot_Master\obj/../USER/isr.c:137
    {
        TIM_ClearITPendingBit(TIM1, TIM_IT_Trigger);
     278:	04000593          	li	a1,64
     27c:	400137b7          	lui	a5,0x40013
     280:	c0078513          	addi	a0,a5,-1024 # 40012c00 <_eusrstack+0x2000dc00>
     284:	3c5000ef          	jal	ra,e48 <TIM_ClearITPendingBit>
D:\MounRiver\MounRiver_Studio\workspace\Robot_Master\obj/../USER/isr.c:140

    }
    if(TIM_GetITStatus(TIM1, TIM_IT_COM) != RESET)
     288:	02000593          	li	a1,32
     28c:	400137b7          	lui	a5,0x40013
     290:	c0078513          	addi	a0,a5,-1024 # 40012c00 <_eusrstack+0x2000dc00>
     294:	345000ef          	jal	ra,dd8 <TIM_GetITStatus>
     298:	87aa                	mv	a5,a0
     29a:	cb89                	beqz	a5,2ac <TIM1_TRG_COM_IRQHandler+0x4e>
D:\MounRiver\MounRiver_Studio\workspace\Robot_Master\obj/../USER/isr.c:142
    {
        TIM_ClearITPendingBit(TIM1, TIM_IT_COM);
     29c:	02000593          	li	a1,32
     2a0:	400137b7          	lui	a5,0x40013
     2a4:	c0078513          	addi	a0,a5,-1024 # 40012c00 <_eusrstack+0x2000dc00>
     2a8:	3a1000ef          	jal	ra,e48 <TIM_ClearITPendingBit>
D:\MounRiver\MounRiver_Studio\workspace\Robot_Master\obj/../USER/isr.c:145

    }
}
     2ac:	0001                	nop
     2ae:	4432                	lw	s0,12(sp)
     2b0:	0141                	addi	sp,sp,16
     2b2:	30200073          	mret

000002b6 <TIM1_CC_IRQHandler>:
TIM1_CC_IRQHandler():
D:\MounRiver\MounRiver_Studio\workspace\Robot_Master\obj/../USER/isr.c:148

void TIM1_CC_IRQHandler(void)
{
     2b6:	1141                	addi	sp,sp,-16
     2b8:	c622                	sw	s0,12(sp)
     2ba:	0800                	addi	s0,sp,16
D:\MounRiver\MounRiver_Studio\workspace\Robot_Master\obj/../USER/isr.c:149
    if(TIM_GetITStatus(TIM1, TIM_IT_CC1) != RESET)
     2bc:	4589                	li	a1,2
     2be:	400137b7          	lui	a5,0x40013
     2c2:	c0078513          	addi	a0,a5,-1024 # 40012c00 <_eusrstack+0x2000dc00>
     2c6:	313000ef          	jal	ra,dd8 <TIM_GetITStatus>
     2ca:	87aa                	mv	a5,a0
     2cc:	cb81                	beqz	a5,2dc <TIM1_CC_IRQHandler+0x26>
D:\MounRiver\MounRiver_Studio\workspace\Robot_Master\obj/../USER/isr.c:151
    {
        TIM_ClearITPendingBit(TIM1, TIM_IT_CC1);
     2ce:	4589                	li	a1,2
     2d0:	400137b7          	lui	a5,0x40013
     2d4:	c0078513          	addi	a0,a5,-1024 # 40012c00 <_eusrstack+0x2000dc00>
     2d8:	371000ef          	jal	ra,e48 <TIM_ClearITPendingBit>
D:\MounRiver\MounRiver_Studio\workspace\Robot_Master\obj/../USER/isr.c:154

    }
    if(TIM_GetITStatus(TIM1, TIM_IT_CC2) != RESET)
     2dc:	4591                	li	a1,4
     2de:	400137b7          	lui	a5,0x40013
     2e2:	c0078513          	addi	a0,a5,-1024 # 40012c00 <_eusrstack+0x2000dc00>
     2e6:	2f3000ef          	jal	ra,dd8 <TIM_GetITStatus>
     2ea:	87aa                	mv	a5,a0
     2ec:	cb81                	beqz	a5,2fc <TIM1_CC_IRQHandler+0x46>
D:\MounRiver\MounRiver_Studio\workspace\Robot_Master\obj/../USER/isr.c:156
    {
        TIM_ClearITPendingBit(TIM1, TIM_IT_CC2);
     2ee:	4591                	li	a1,4
     2f0:	400137b7          	lui	a5,0x40013
     2f4:	c0078513          	addi	a0,a5,-1024 # 40012c00 <_eusrstack+0x2000dc00>
     2f8:	351000ef          	jal	ra,e48 <TIM_ClearITPendingBit>
D:\MounRiver\MounRiver_Studio\workspace\Robot_Master\obj/../USER/isr.c:159

    }
    if(TIM_GetITStatus(TIM1, TIM_IT_CC3) != RESET)
     2fc:	45a1                	li	a1,8
     2fe:	400137b7          	lui	a5,0x40013
     302:	c0078513          	addi	a0,a5,-1024 # 40012c00 <_eusrstack+0x2000dc00>
     306:	2d3000ef          	jal	ra,dd8 <TIM_GetITStatus>
     30a:	87aa                	mv	a5,a0
     30c:	cb81                	beqz	a5,31c <TIM1_CC_IRQHandler+0x66>
D:\MounRiver\MounRiver_Studio\workspace\Robot_Master\obj/../USER/isr.c:161
    {
        TIM_ClearITPendingBit(TIM1, TIM_IT_CC3);
     30e:	45a1                	li	a1,8
     310:	400137b7          	lui	a5,0x40013
     314:	c0078513          	addi	a0,a5,-1024 # 40012c00 <_eusrstack+0x2000dc00>
     318:	331000ef          	jal	ra,e48 <TIM_ClearITPendingBit>
D:\MounRiver\MounRiver_Studio\workspace\Robot_Master\obj/../USER/isr.c:164

    }
    if(TIM_GetITStatus(TIM1, TIM_IT_CC4) != RESET)
     31c:	45c1                	li	a1,16
     31e:	400137b7          	lui	a5,0x40013
     322:	c0078513          	addi	a0,a5,-1024 # 40012c00 <_eusrstack+0x2000dc00>
     326:	2b3000ef          	jal	ra,dd8 <TIM_GetITStatus>
     32a:	87aa                	mv	a5,a0
     32c:	cb81                	beqz	a5,33c <TIM1_CC_IRQHandler+0x86>
D:\MounRiver\MounRiver_Studio\workspace\Robot_Master\obj/../USER/isr.c:166
    {
        TIM_ClearITPendingBit(TIM1, TIM_IT_CC4);
     32e:	45c1                	li	a1,16
     330:	400137b7          	lui	a5,0x40013
     334:	c0078513          	addi	a0,a5,-1024 # 40012c00 <_eusrstack+0x2000dc00>
     338:	311000ef          	jal	ra,e48 <TIM_ClearITPendingBit>
D:\MounRiver\MounRiver_Studio\workspace\Robot_Master\obj/../USER/isr.c:169

    }
}
     33c:	0001                	nop
     33e:	4432                	lw	s0,12(sp)
     340:	0141                	addi	sp,sp,16
     342:	30200073          	mret

00000346 <TIM2_IRQHandler>:
TIM2_IRQHandler():
D:\MounRiver\MounRiver_Studio\workspace\Robot_Master\obj/../USER/isr.c:172

void TIM2_IRQHandler(void)
{
     346:	1141                	addi	sp,sp,-16
     348:	c622                	sw	s0,12(sp)
     34a:	0800                	addi	s0,sp,16
D:\MounRiver\MounRiver_Studio\workspace\Robot_Master\obj/../USER/isr.c:174

    if(TIM_GetITStatus(TIM2, TIM_IT_Update) != RESET)
     34c:	4585                	li	a1,1
     34e:	40000537          	lui	a0,0x40000
     352:	287000ef          	jal	ra,dd8 <TIM_GetITStatus>
     356:	87aa                	mv	a5,a0
     358:	c791                	beqz	a5,364 <TIM2_IRQHandler+0x1e>
D:\MounRiver\MounRiver_Studio\workspace\Robot_Master\obj/../USER/isr.c:176
    {
        TIM_ClearITPendingBit(TIM2, TIM_IT_Update );
     35a:	4585                	li	a1,1
     35c:	40000537          	lui	a0,0x40000
     360:	2e9000ef          	jal	ra,e48 <TIM_ClearITPendingBit>
D:\MounRiver\MounRiver_Studio\workspace\Robot_Master\obj/../USER/isr.c:182
        //ccd_collect();//CCD数据采集
        //gpio_toggle(B5);
        //GPIO_PIN_RESET(B5);
        //GPIO_PIN_SET(B5);
    }
}
     364:	0001                	nop
     366:	4432                	lw	s0,12(sp)
     368:	0141                	addi	sp,sp,16
     36a:	30200073          	mret

0000036e <TIM3_IRQHandler>:
TIM3_IRQHandler():
D:\MounRiver\MounRiver_Studio\workspace\Robot_Master\obj/../USER/isr.c:185

void TIM3_IRQHandler(void)
{
     36e:	1141                	addi	sp,sp,-16
     370:	c622                	sw	s0,12(sp)
     372:	0800                	addi	s0,sp,16
D:\MounRiver\MounRiver_Studio\workspace\Robot_Master\obj/../USER/isr.c:186
    if(TIM_GetITStatus(TIM3, TIM_IT_Update) != RESET)
     374:	4585                	li	a1,1
     376:	400007b7          	lui	a5,0x40000
     37a:	40078513          	addi	a0,a5,1024 # 40000400 <_eusrstack+0x1fffb400>
     37e:	25b000ef          	jal	ra,dd8 <TIM_GetITStatus>
     382:	87aa                	mv	a5,a0
     384:	cb81                	beqz	a5,394 <TIM3_IRQHandler+0x26>
D:\MounRiver\MounRiver_Studio\workspace\Robot_Master\obj/../USER/isr.c:188
    {
        TIM_ClearITPendingBit(TIM3, TIM_IT_Update );
     386:	4585                	li	a1,1
     388:	400007b7          	lui	a5,0x40000
     38c:	40078513          	addi	a0,a5,1024 # 40000400 <_eusrstack+0x1fffb400>
     390:	2b9000ef          	jal	ra,e48 <TIM_ClearITPendingBit>
D:\MounRiver\MounRiver_Studio\workspace\Robot_Master\obj/../USER/isr.c:191

    }
}
     394:	0001                	nop
     396:	4432                	lw	s0,12(sp)
     398:	0141                	addi	sp,sp,16
     39a:	30200073          	mret

0000039e <TIM4_IRQHandler>:
TIM4_IRQHandler():
D:\MounRiver\MounRiver_Studio\workspace\Robot_Master\obj/../USER/isr.c:194

void TIM4_IRQHandler(void)
{
     39e:	1141                	addi	sp,sp,-16
     3a0:	c622                	sw	s0,12(sp)
     3a2:	0800                	addi	s0,sp,16
D:\MounRiver\MounRiver_Studio\workspace\Robot_Master\obj/../USER/isr.c:195
    if(TIM_GetITStatus(TIM4, TIM_IT_Update) != RESET)
     3a4:	4585                	li	a1,1
     3a6:	400017b7          	lui	a5,0x40001
     3aa:	80078513          	addi	a0,a5,-2048 # 40000800 <_eusrstack+0x1fffb800>
     3ae:	22b000ef          	jal	ra,dd8 <TIM_GetITStatus>
     3b2:	87aa                	mv	a5,a0
     3b4:	cb81                	beqz	a5,3c4 <TIM4_IRQHandler+0x26>
D:\MounRiver\MounRiver_Studio\workspace\Robot_Master\obj/../USER/isr.c:197
    {
        TIM_ClearITPendingBit(TIM4, TIM_IT_Update );
     3b6:	4585                	li	a1,1
     3b8:	400017b7          	lui	a5,0x40001
     3bc:	80078513          	addi	a0,a5,-2048 # 40000800 <_eusrstack+0x1fffb800>
     3c0:	289000ef          	jal	ra,e48 <TIM_ClearITPendingBit>
D:\MounRiver\MounRiver_Studio\workspace\Robot_Master\obj/../USER/isr.c:200

    }
}
     3c4:	0001                	nop
     3c6:	4432                	lw	s0,12(sp)
     3c8:	0141                	addi	sp,sp,16
     3ca:	30200073          	mret

000003ce <USART2_IRQHandler>:
USART2_IRQHandler():
D:\MounRiver\MounRiver_Studio\workspace\Robot_Master\obj/../USER/isr.c:210
//        USART_ClearITPendingBit(USART1, USART_IT_RXNE);     //清除串口接收中断标志位
//    }
//}

void USART2_IRQHandler(void)
{
     3ce:	1141                	addi	sp,sp,-16
     3d0:	c622                	sw	s0,12(sp)
     3d2:	0800                	addi	s0,sp,16
D:\MounRiver\MounRiver_Studio\workspace\Robot_Master\obj/../USER/isr.c:211
    if(USART_GetITStatus(USART2, USART_IT_RXNE) != RESET)
     3d4:	52500593          	li	a1,1317
     3d8:	400047b7          	lui	a5,0x40004
     3dc:	40078513          	addi	a0,a5,1024 # 40004400 <_eusrstack+0x1ffff400>
     3e0:	613000ef          	jal	ra,11f2 <USART_GetITStatus>
     3e4:	87aa                	mv	a5,a0
     3e6:	cf85                	beqz	a5,41e <USART2_IRQHandler+0x50>
D:\MounRiver\MounRiver_Studio\workspace\Robot_Master\obj/../USER/isr.c:213
    {
        USART_ClearITPendingBit(USART2, USART_IT_RXNE);
     3e8:	52500593          	li	a1,1317
     3ec:	400047b7          	lui	a5,0x40004
     3f0:	40078513          	addi	a0,a5,1024 # 40004400 <_eusrstack+0x1ffff400>
     3f4:	701000ef          	jal	ra,12f4 <USART_ClearITPendingBit>
D:\MounRiver\MounRiver_Studio\workspace\Robot_Master\obj/../USER/isr.c:214
        if(camera_type == CAMERA_BIN_UART)
     3f8:	200007b7          	lui	a5,0x20000
     3fc:	06c7a703          	lw	a4,108(a5) # 2000006c <camera_type>
     400:	4789                	li	a5,2
     402:	00f71563          	bne	a4,a5,40c <USART2_IRQHandler+0x3e>
D:\MounRiver\MounRiver_Studio\workspace\Robot_Master\obj/../USER/isr.c:215
            ov7725_cof_uart_interrupt();
     406:	010010ef          	jal	ra,1416 <ov7725_cof_uart_interrupt>
D:\MounRiver\MounRiver_Studio\workspace\Robot_Master\obj/../USER/isr.c:219
        else if(camera_type == CAMERA_GRAYSCALE)
            mt9v03x_uart_callback();
    }
}
     40a:	a811                	j	41e <USART2_IRQHandler+0x50>
D:\MounRiver\MounRiver_Studio\workspace\Robot_Master\obj/../USER/isr.c:216
        else if(camera_type == CAMERA_GRAYSCALE)
     40c:	200007b7          	lui	a5,0x20000
     410:	06c7a703          	lw	a4,108(a5) # 2000006c <camera_type>
     414:	4785                	li	a5,1
     416:	00f71463          	bne	a4,a5,41e <USART2_IRQHandler+0x50>
D:\MounRiver\MounRiver_Studio\workspace\Robot_Master\obj/../USER/isr.c:217
            mt9v03x_uart_callback();
     41a:	729000ef          	jal	ra,1342 <mt9v03x_uart_callback>
D:\MounRiver\MounRiver_Studio\workspace\Robot_Master\obj/../USER/isr.c:219
}
     41e:	0001                	nop
     420:	4432                	lw	s0,12(sp)
     422:	0141                	addi	sp,sp,16
     424:	30200073          	mret

00000428 <USART3_IRQHandler>:
USART3_IRQHandler():
D:\MounRiver\MounRiver_Studio\workspace\Robot_Master\obj/../USER/isr.c:222

void USART3_IRQHandler(void)
{
     428:	1141                	addi	sp,sp,-16
     42a:	c622                	sw	s0,12(sp)
     42c:	0800                	addi	s0,sp,16
D:\MounRiver\MounRiver_Studio\workspace\Robot_Master\obj/../USER/isr.c:224

}
     42e:	0001                	nop
     430:	4432                	lw	s0,12(sp)
     432:	0141                	addi	sp,sp,16
     434:	30200073          	mret

00000438 <DMA1_Channel4_IRQHandler>:
DMA1_Channel4_IRQHandler():
D:\MounRiver\MounRiver_Studio\workspace\Robot_Master\obj/../USER/isr.c:227

void DMA1_Channel4_IRQHandler(void)
{
     438:	1141                	addi	sp,sp,-16
     43a:	c622                	sw	s0,12(sp)
     43c:	0800                	addi	s0,sp,16
D:\MounRiver\MounRiver_Studio\workspace\Robot_Master\obj/../USER/isr.c:228
    if(SET == DMA_GetFlagStatus(DMA1_FLAG_TC4))
     43e:	6509                	lui	a0,0x2
     440:	28e5                	jal	538 <DMA_GetFlagStatus>
     442:	872a                	mv	a4,a0
     444:	4785                	li	a5,1
     446:	02f71763          	bne	a4,a5,474 <DMA1_Channel4_IRQHandler+0x3c>
D:\MounRiver\MounRiver_Studio\workspace\Robot_Master\obj/../USER/isr.c:230
    {
        DMA_ClearFlag(DMA1_FLAG_TC4);
     44a:	6509                	lui	a0,0x2
     44c:	22a1                	jal	594 <DMA_ClearFlag>
D:\MounRiver\MounRiver_Studio\workspace\Robot_Master\obj/../USER/isr.c:231
        if(camera_type == CAMERA_BIN_UART)
     44e:	200007b7          	lui	a5,0x20000
     452:	06c7a703          	lw	a4,108(a5) # 2000006c <camera_type>
     456:	4789                	li	a5,2
     458:	00f71563          	bne	a4,a5,462 <DMA1_Channel4_IRQHandler+0x2a>
D:\MounRiver\MounRiver_Studio\workspace\Robot_Master\obj/../USER/isr.c:232
            ov7725_uart_dma();
     45c:	060010ef          	jal	ra,14bc <ov7725_uart_dma>
D:\MounRiver\MounRiver_Studio\workspace\Robot_Master\obj/../USER/isr.c:236
        else if(camera_type == CAMERA_GRAYSCALE)
            mt9v03x_dma();
    }
}
     460:	a811                	j	474 <DMA1_Channel4_IRQHandler+0x3c>
D:\MounRiver\MounRiver_Studio\workspace\Robot_Master\obj/../USER/isr.c:233
        else if(camera_type == CAMERA_GRAYSCALE)
     462:	200007b7          	lui	a5,0x20000
     466:	06c7a703          	lw	a4,108(a5) # 2000006c <camera_type>
     46a:	4785                	li	a5,1
     46c:	00f71463          	bne	a4,a5,474 <DMA1_Channel4_IRQHandler+0x3c>
D:\MounRiver\MounRiver_Studio\workspace\Robot_Master\obj/../USER/isr.c:234
            mt9v03x_dma();
     470:	779000ef          	jal	ra,13e8 <mt9v03x_dma>
D:\MounRiver\MounRiver_Studio\workspace\Robot_Master\obj/../USER/isr.c:236
}
     474:	0001                	nop
     476:	4432                	lw	s0,12(sp)
     478:	0141                	addi	sp,sp,16
     47a:	30200073          	mret

0000047e <NMI_Handler>:
NMI_Handler():
D:\MounRiver\MounRiver_Studio\workspace\Robot_Master\obj/../USER/isr.c:245
* Description    : This function handles NMI exception.
* Input          : None
* Return         : None
*******************************************************************************/
void NMI_Handler(void)
{
     47e:	1141                	addi	sp,sp,-16
     480:	c622                	sw	s0,12(sp)
     482:	0800                	addi	s0,sp,16
D:\MounRiver\MounRiver_Studio\workspace\Robot_Master\obj/../USER/isr.c:247

}
     484:	0001                	nop
     486:	4432                	lw	s0,12(sp)
     488:	0141                	addi	sp,sp,16
     48a:	30200073          	mret

0000048e <HardFault_Handler>:
HardFault_Handler():
D:\MounRiver\MounRiver_Studio\workspace\Robot_Master\obj/../USER/isr.c:256
* Description    : This function handles Hard Fault exception.
* Input          : None
* Return         : None
*******************************************************************************/
void HardFault_Handler(void)
{
     48e:	1141                	addi	sp,sp,-16
     490:	c622                	sw	s0,12(sp)
     492:	0800                	addi	s0,sp,16
D:\MounRiver\MounRiver_Studio\workspace\Robot_Master\obj/../USER/isr.c:258 (discriminator 1)

  while (1)
     494:	a001                	j	494 <HardFault_Handler+0x6>

00000496 <main>:
main():
D:\MounRiver\MounRiver_Studio\workspace\Robot_Master\obj/../USER/main.c:29

#include "myheadfile.h"


int main(void)
{
     496:	1141                	addi	sp,sp,-16
     498:	c606                	sw	ra,12(sp)
     49a:	c422                	sw	s0,8(sp)
     49c:	0800                	addi	s0,sp,16
D:\MounRiver\MounRiver_Studio\workspace\Robot_Master\obj/../USER/main.c:30
    DisableGlobalIRQ();
     49e:	2d2010ef          	jal	ra,1770 <DisableGlobalIRQ>
D:\MounRiver\MounRiver_Studio\workspace\Robot_Master\obj/../USER/main.c:31
    board_init();                           //务必保留
     4a2:	5f8010ef          	jal	ra,1a9a <board_init>
D:\MounRiver\MounRiver_Studio\workspace\Robot_Master\obj/../USER/main.c:33

    Robot_Communite_Init();
     4a6:	7e4010ef          	jal	ra,1c8a <Robot_Communite_Init>
D:\MounRiver\MounRiver_Studio\workspace\Robot_Master\obj/../USER/main.c:35

    EnableGlobalIRQ(0);
     4aa:	4501                	li	a0,0
     4ac:	300010ef          	jal	ra,17ac <EnableGlobalIRQ>
D:\MounRiver\MounRiver_Studio\workspace\Robot_Master\obj/../USER/main.c:38

    while(1){
        if(Start_Robot_Connection_Sync())
     4b0:	13b010ef          	jal	ra,1dea <Start_Robot_Connection_Sync>
     4b4:	87aa                	mv	a5,a0
     4b6:	dfed                	beqz	a5,4b0 <main+0x1a>
D:\MounRiver\MounRiver_Studio\workspace\Robot_Master\obj/../USER/main.c:42 (discriminator 1)
            break;
    }
    while(1){
        Keep_Robot_Communite();
     4b8:	24f010ef          	jal	ra,1f06 <Keep_Robot_Communite>
     4bc:	bff5                	j	4b8 <main+0x22>

000004be <handle_reset>:
handle_reset():
D:\MounRiver\MounRiver_Studio\workspace\Seekfree_CH32V103R8T6_Opensource_Library\obj/../Libraries/wch_libraries/Startup/startup_ch32v10x.S:147
	.weak	handle_reset
	.align	1
handle_reset:
.option push 
.option	norelax 
	la gp, __global_pointer$
     4be:	20000197          	auipc	gp,0x20000
     4c2:	3aa18193          	addi	gp,gp,938 # 20000868 <__global_pointer$>
D:\MounRiver\MounRiver_Studio\workspace\Seekfree_CH32V103R8T6_Opensource_Library\obj/../Libraries/wch_libraries/Startup/startup_ch32v10x.S:150
.option	pop 
1:
	la sp, _eusrstack 
     4c6:	20005117          	auipc	sp,0x20005
     4ca:	b3a10113          	addi	sp,sp,-1222 # 20005000 <_eusrstack>
D:\MounRiver\MounRiver_Studio\workspace\Seekfree_CH32V103R8T6_Opensource_Library\obj/../Libraries/wch_libraries/Startup/startup_ch32v10x.S:153
2:
	/* Load data section from flash to RAM */
	la a0, _data_lma
     4ce:	00002517          	auipc	a0,0x2
     4d2:	c1a50513          	addi	a0,a0,-998 # 20e8 <_data_lma>
D:\MounRiver\MounRiver_Studio\workspace\Seekfree_CH32V103R8T6_Opensource_Library\obj/../Libraries/wch_libraries/Startup/startup_ch32v10x.S:154
	la a1, _data_vma
     4d6:	20000597          	auipc	a1,0x20000
     4da:	b2a58593          	addi	a1,a1,-1238 # 20000000 <_data_vma>
D:\MounRiver\MounRiver_Studio\workspace\Seekfree_CH32V103R8T6_Opensource_Library\obj/../Libraries/wch_libraries/Startup/startup_ch32v10x.S:155
	la a2, _edata
     4de:	81018613          	addi	a2,gp,-2032 # 20000078 <_edata>
D:\MounRiver\MounRiver_Studio\workspace\Seekfree_CH32V103R8T6_Opensource_Library\obj/../Libraries/wch_libraries/Startup/startup_ch32v10x.S:156
	bgeu a1, a2, 2f
     4e2:	00c5fa63          	bgeu	a1,a2,4f6 <handle_reset+0x38>
D:\MounRiver\MounRiver_Studio\workspace\Seekfree_CH32V103R8T6_Opensource_Library\obj/../Libraries/wch_libraries/Startup/startup_ch32v10x.S:158
1:
	lw t0, (a0)
     4e6:	00052283          	lw	t0,0(a0)
D:\MounRiver\MounRiver_Studio\workspace\Seekfree_CH32V103R8T6_Opensource_Library\obj/../Libraries/wch_libraries/Startup/startup_ch32v10x.S:159
	sw t0, (a1)
     4ea:	0055a023          	sw	t0,0(a1)
D:\MounRiver\MounRiver_Studio\workspace\Seekfree_CH32V103R8T6_Opensource_Library\obj/../Libraries/wch_libraries/Startup/startup_ch32v10x.S:160
	addi a0, a0, 4
     4ee:	0511                	addi	a0,a0,4
D:\MounRiver\MounRiver_Studio\workspace\Seekfree_CH32V103R8T6_Opensource_Library\obj/../Libraries/wch_libraries/Startup/startup_ch32v10x.S:161
	addi a1, a1, 4
     4f0:	0591                	addi	a1,a1,4
D:\MounRiver\MounRiver_Studio\workspace\Seekfree_CH32V103R8T6_Opensource_Library\obj/../Libraries/wch_libraries/Startup/startup_ch32v10x.S:162
	bltu a1, a2, 1b
     4f2:	fec5eae3          	bltu	a1,a2,4e6 <handle_reset+0x28>
D:\MounRiver\MounRiver_Studio\workspace\Seekfree_CH32V103R8T6_Opensource_Library\obj/../Libraries/wch_libraries/Startup/startup_ch32v10x.S:165
2:
	/* clear bss section */
	la a0, _sbss
     4f6:	81018513          	addi	a0,gp,-2032 # 20000078 <_edata>
D:\MounRiver\MounRiver_Studio\workspace\Seekfree_CH32V103R8T6_Opensource_Library\obj/../Libraries/wch_libraries/Startup/startup_ch32v10x.S:166
	la a1, _ebss
     4fa:	85018593          	addi	a1,gp,-1968 # 200000b8 <_ebss>
D:\MounRiver\MounRiver_Studio\workspace\Seekfree_CH32V103R8T6_Opensource_Library\obj/../Libraries/wch_libraries/Startup/startup_ch32v10x.S:167
	bgeu a0, a1, 2f
     4fe:	00b57763          	bgeu	a0,a1,50c <handle_reset+0x4e>
D:\MounRiver\MounRiver_Studio\workspace\Seekfree_CH32V103R8T6_Opensource_Library\obj/../Libraries/wch_libraries/Startup/startup_ch32v10x.S:169
1:
	sw zero, (a0)
     502:	00052023          	sw	zero,0(a0)
D:\MounRiver\MounRiver_Studio\workspace\Seekfree_CH32V103R8T6_Opensource_Library\obj/../Libraries/wch_libraries/Startup/startup_ch32v10x.S:170
	addi a0, a0, 4
     506:	0511                	addi	a0,a0,4
D:\MounRiver\MounRiver_Studio\workspace\Seekfree_CH32V103R8T6_Opensource_Library\obj/../Libraries/wch_libraries/Startup/startup_ch32v10x.S:171
	bltu a0, a1, 1b
     508:	feb56de3          	bltu	a0,a1,502 <handle_reset+0x44>
D:\MounRiver\MounRiver_Studio\workspace\Seekfree_CH32V103R8T6_Opensource_Library\obj/../Libraries/wch_libraries/Startup/startup_ch32v10x.S:174
2:
	/* enable all interrupt */
  li t0, 0x88
     50c:	08800293          	li	t0,136
D:\MounRiver\MounRiver_Studio\workspace\Seekfree_CH32V103R8T6_Opensource_Library\obj/../Libraries/wch_libraries/Startup/startup_ch32v10x.S:175
  csrs mstatus, t0
     510:	3002a073          	csrs	mstatus,t0
D:\MounRiver\MounRiver_Studio\workspace\Seekfree_CH32V103R8T6_Opensource_Library\obj/../Libraries/wch_libraries/Startup/startup_ch32v10x.S:176
	la t0, _vector_base
     514:	00000297          	auipc	t0,0x0
     518:	b2428293          	addi	t0,t0,-1244 # 38 <_einit>
D:\MounRiver\MounRiver_Studio\workspace\Seekfree_CH32V103R8T6_Opensource_Library\obj/../Libraries/wch_libraries/Startup/startup_ch32v10x.S:177
  ori t0, t0, 1
     51c:	0012e293          	ori	t0,t0,1
D:\MounRiver\MounRiver_Studio\workspace\Seekfree_CH32V103R8T6_Opensource_Library\obj/../Libraries/wch_libraries/Startup/startup_ch32v10x.S:178
	csrw mtvec, t0
     520:	30529073          	csrw	mtvec,t0
D:\MounRiver\MounRiver_Studio\workspace\Seekfree_CH32V103R8T6_Opensource_Library\obj/../Libraries/wch_libraries/Startup/startup_ch32v10x.S:180

  jal  SystemInit
     524:	6ea010ef          	jal	ra,1c0e <SystemInit>
D:\MounRiver\MounRiver_Studio\workspace\Seekfree_CH32V103R8T6_Opensource_Library\obj/../Libraries/wch_libraries/Startup/startup_ch32v10x.S:181
	la t0, main
     528:	00000297          	auipc	t0,0x0
     52c:	f6e28293          	addi	t0,t0,-146 # 496 <main>
D:\MounRiver\MounRiver_Studio\workspace\Seekfree_CH32V103R8T6_Opensource_Library\obj/../Libraries/wch_libraries/Startup/startup_ch32v10x.S:182
	csrw mepc, t0
     530:	34129073          	csrw	mepc,t0
D:\MounRiver\MounRiver_Studio\workspace\Seekfree_CH32V103R8T6_Opensource_Library\obj/../Libraries/wch_libraries/Startup/startup_ch32v10x.S:183
	mret
     534:	30200073          	mret

00000538 <DMA_GetFlagStatus>:
DMA_GetFlagStatus():
D:\MounRiver\MounRiver_Studio\workspace\Seekfree_CH32V103R8T6_Opensource_Library\obj/../Libraries/wch_libraries/Peripheral/ch32v10x_dma.c:290
*                      DMA2_FLAG_HT5: DMA2 Channel5 half transfer flag.
*                      DMA2_FLAG_TE5: DMA2 Channel5 transfer error flag.
* Return         : The new state of DMAy_FLAG (SET or RESET). 
*********************************************************************************/
FlagStatus DMA_GetFlagStatus(uint32_t DMAy_FLAG)
{
     538:	7179                	addi	sp,sp,-48
     53a:	d622                	sw	s0,44(sp)
     53c:	1800                	addi	s0,sp,48
     53e:	fca42e23          	sw	a0,-36(s0)
D:\MounRiver\MounRiver_Studio\workspace\Seekfree_CH32V103R8T6_Opensource_Library\obj/../Libraries/wch_libraries/Peripheral/ch32v10x_dma.c:291
  FlagStatus bitstatus = RESET;
     542:	fe042623          	sw	zero,-20(s0)
D:\MounRiver\MounRiver_Studio\workspace\Seekfree_CH32V103R8T6_Opensource_Library\obj/../Libraries/wch_libraries/Peripheral/ch32v10x_dma.c:292
  uint32_t tmpreg = 0;
     546:	fe042423          	sw	zero,-24(s0)
D:\MounRiver\MounRiver_Studio\workspace\Seekfree_CH32V103R8T6_Opensource_Library\obj/../Libraries/wch_libraries/Peripheral/ch32v10x_dma.c:294
  
  if ((DMAy_FLAG & FLAG_Mask) != (uint32_t)RESET)
     54a:	fdc42703          	lw	a4,-36(s0)
     54e:	100007b7          	lui	a5,0x10000
     552:	8ff9                	and	a5,a5,a4
     554:	cb89                	beqz	a5,566 <DMA_GetFlagStatus+0x2e>
D:\MounRiver\MounRiver_Studio\workspace\Seekfree_CH32V103R8T6_Opensource_Library\obj/../Libraries/wch_libraries/Peripheral/ch32v10x_dma.c:296
  {
    tmpreg = DMA2->INTFR ;
     556:	400207b7          	lui	a5,0x40020
     55a:	40078793          	addi	a5,a5,1024 # 40020400 <_eusrstack+0x2001b400>
     55e:	439c                	lw	a5,0(a5)
     560:	fef42423          	sw	a5,-24(s0)
     564:	a031                	j	570 <DMA_GetFlagStatus+0x38>
D:\MounRiver\MounRiver_Studio\workspace\Seekfree_CH32V103R8T6_Opensource_Library\obj/../Libraries/wch_libraries/Peripheral/ch32v10x_dma.c:300
  }
  else
  {
    tmpreg = DMA1->INTFR ;
     566:	400207b7          	lui	a5,0x40020
     56a:	439c                	lw	a5,0(a5)
     56c:	fef42423          	sw	a5,-24(s0)
D:\MounRiver\MounRiver_Studio\workspace\Seekfree_CH32V103R8T6_Opensource_Library\obj/../Libraries/wch_libraries/Peripheral/ch32v10x_dma.c:303
  }

  if ((tmpreg & DMAy_FLAG) != (uint32_t)RESET)
     570:	fe842703          	lw	a4,-24(s0)
     574:	fdc42783          	lw	a5,-36(s0)
     578:	8ff9                	and	a5,a5,a4
     57a:	c789                	beqz	a5,584 <DMA_GetFlagStatus+0x4c>
D:\MounRiver\MounRiver_Studio\workspace\Seekfree_CH32V103R8T6_Opensource_Library\obj/../Libraries/wch_libraries/Peripheral/ch32v10x_dma.c:305
  {
    bitstatus = SET;
     57c:	4785                	li	a5,1
     57e:	fef42623          	sw	a5,-20(s0)
     582:	a019                	j	588 <DMA_GetFlagStatus+0x50>
D:\MounRiver\MounRiver_Studio\workspace\Seekfree_CH32V103R8T6_Opensource_Library\obj/../Libraries/wch_libraries/Peripheral/ch32v10x_dma.c:309
  }
  else
  {
    bitstatus = RESET;
     584:	fe042623          	sw	zero,-20(s0)
D:\MounRiver\MounRiver_Studio\workspace\Seekfree_CH32V103R8T6_Opensource_Library\obj/../Libraries/wch_libraries/Peripheral/ch32v10x_dma.c:312
  }
  
  return  bitstatus;
     588:	fec42783          	lw	a5,-20(s0)
D:\MounRiver\MounRiver_Studio\workspace\Seekfree_CH32V103R8T6_Opensource_Library\obj/../Libraries/wch_libraries/Peripheral/ch32v10x_dma.c:313
}
     58c:	853e                	mv	a0,a5
     58e:	5432                	lw	s0,44(sp)
     590:	6145                	addi	sp,sp,48
     592:	8082                	ret

00000594 <DMA_ClearFlag>:
DMA_ClearFlag():
D:\MounRiver\MounRiver_Studio\workspace\Seekfree_CH32V103R8T6_Opensource_Library\obj/../Libraries/wch_libraries/Peripheral/ch32v10x_dma.c:371
*                      DMA2_FLAG_HT5: DMA2 Channel5 half transfer flag.
*                      DMA2_FLAG_TE5: DMA2 Channel5 transfer error flag.
* Return         : None 
*********************************************************************************/
void DMA_ClearFlag(uint32_t DMAy_FLAG)
{
     594:	1101                	addi	sp,sp,-32
     596:	ce22                	sw	s0,28(sp)
     598:	1000                	addi	s0,sp,32
     59a:	fea42623          	sw	a0,-20(s0)
D:\MounRiver\MounRiver_Studio\workspace\Seekfree_CH32V103R8T6_Opensource_Library\obj/../Libraries/wch_libraries/Peripheral/ch32v10x_dma.c:372
  if ((DMAy_FLAG & FLAG_Mask) != (uint32_t)RESET)
     59e:	fec42703          	lw	a4,-20(s0)
     5a2:	100007b7          	lui	a5,0x10000
     5a6:	8ff9                	and	a5,a5,a4
     5a8:	cb89                	beqz	a5,5ba <DMA_ClearFlag+0x26>
D:\MounRiver\MounRiver_Studio\workspace\Seekfree_CH32V103R8T6_Opensource_Library\obj/../Libraries/wch_libraries/Peripheral/ch32v10x_dma.c:374
  {
    DMA2->INTFCR = DMAy_FLAG;
     5aa:	400207b7          	lui	a5,0x40020
     5ae:	40078793          	addi	a5,a5,1024 # 40020400 <_eusrstack+0x2001b400>
     5b2:	fec42703          	lw	a4,-20(s0)
     5b6:	c3d8                	sw	a4,4(a5)
D:\MounRiver\MounRiver_Studio\workspace\Seekfree_CH32V103R8T6_Opensource_Library\obj/../Libraries/wch_libraries/Peripheral/ch32v10x_dma.c:380
  }
  else
  {
    DMA1->INTFCR = DMAy_FLAG;
  }
}
     5b8:	a031                	j	5c4 <DMA_ClearFlag+0x30>
D:\MounRiver\MounRiver_Studio\workspace\Seekfree_CH32V103R8T6_Opensource_Library\obj/../Libraries/wch_libraries/Peripheral/ch32v10x_dma.c:378
    DMA1->INTFCR = DMAy_FLAG;
     5ba:	400207b7          	lui	a5,0x40020
     5be:	fec42703          	lw	a4,-20(s0)
     5c2:	c3d8                	sw	a4,4(a5)
D:\MounRiver\MounRiver_Studio\workspace\Seekfree_CH32V103R8T6_Opensource_Library\obj/../Libraries/wch_libraries/Peripheral/ch32v10x_dma.c:380
}
     5c4:	0001                	nop
     5c6:	4472                	lw	s0,28(sp)
     5c8:	6105                	addi	sp,sp,32
     5ca:	8082                	ret

000005cc <EXTI_GetITStatus>:
EXTI_GetITStatus():
D:\MounRiver\MounRiver_Studio\workspace\Seekfree_CH32V103R8T6_Opensource_Library\obj/../Libraries/wch_libraries/Peripheral/ch32v10x_exti.c:131
* Description    : Checks whether the specified EXTI line is asserted or not.
* Input          : EXTI_Line: specifies the EXTI lines to be enabled or disabled.
* Return         : The new state of EXTI_Line (SET or RESET).
*********************************************************************************/	
ITStatus EXTI_GetITStatus(uint32_t EXTI_Line)
{
     5cc:	7179                	addi	sp,sp,-48
     5ce:	d622                	sw	s0,44(sp)
     5d0:	1800                	addi	s0,sp,48
     5d2:	fca42e23          	sw	a0,-36(s0)
D:\MounRiver\MounRiver_Studio\workspace\Seekfree_CH32V103R8T6_Opensource_Library\obj/../Libraries/wch_libraries/Peripheral/ch32v10x_exti.c:132
  ITStatus bitstatus = RESET;
     5d6:	fe042623          	sw	zero,-20(s0)
D:\MounRiver\MounRiver_Studio\workspace\Seekfree_CH32V103R8T6_Opensource_Library\obj/../Libraries/wch_libraries/Peripheral/ch32v10x_exti.c:133
  uint32_t enablestatus = 0;
     5da:	fe042423          	sw	zero,-24(s0)
D:\MounRiver\MounRiver_Studio\workspace\Seekfree_CH32V103R8T6_Opensource_Library\obj/../Libraries/wch_libraries/Peripheral/ch32v10x_exti.c:135
  
  enablestatus =  EXTI->INTENR & EXTI_Line;
     5de:	400107b7          	lui	a5,0x40010
     5e2:	40078793          	addi	a5,a5,1024 # 40010400 <_eusrstack+0x2000b400>
     5e6:	439c                	lw	a5,0(a5)
     5e8:	fdc42703          	lw	a4,-36(s0)
     5ec:	8ff9                	and	a5,a5,a4
     5ee:	fef42423          	sw	a5,-24(s0)
D:\MounRiver\MounRiver_Studio\workspace\Seekfree_CH32V103R8T6_Opensource_Library\obj/../Libraries/wch_libraries/Peripheral/ch32v10x_exti.c:136
  if (((EXTI->INTFR & EXTI_Line) != (uint32_t)RESET) && (enablestatus != (uint32_t)RESET))
     5f2:	400107b7          	lui	a5,0x40010
     5f6:	40078793          	addi	a5,a5,1024 # 40010400 <_eusrstack+0x2000b400>
     5fa:	4bd8                	lw	a4,20(a5)
     5fc:	fdc42783          	lw	a5,-36(s0)
     600:	8ff9                	and	a5,a5,a4
     602:	cb81                	beqz	a5,612 <EXTI_GetITStatus+0x46>
D:\MounRiver\MounRiver_Studio\workspace\Seekfree_CH32V103R8T6_Opensource_Library\obj/../Libraries/wch_libraries/Peripheral/ch32v10x_exti.c:136 (discriminator 1)
     604:	fe842783          	lw	a5,-24(s0)
     608:	c789                	beqz	a5,612 <EXTI_GetITStatus+0x46>
D:\MounRiver\MounRiver_Studio\workspace\Seekfree_CH32V103R8T6_Opensource_Library\obj/../Libraries/wch_libraries/Peripheral/ch32v10x_exti.c:138
  {
    bitstatus = SET;
     60a:	4785                	li	a5,1
     60c:	fef42623          	sw	a5,-20(s0)
     610:	a019                	j	616 <EXTI_GetITStatus+0x4a>
D:\MounRiver\MounRiver_Studio\workspace\Seekfree_CH32V103R8T6_Opensource_Library\obj/../Libraries/wch_libraries/Peripheral/ch32v10x_exti.c:142
  }
  else
  {
    bitstatus = RESET;
     612:	fe042623          	sw	zero,-20(s0)
D:\MounRiver\MounRiver_Studio\workspace\Seekfree_CH32V103R8T6_Opensource_Library\obj/../Libraries/wch_libraries/Peripheral/ch32v10x_exti.c:144
  }
  return bitstatus;
     616:	fec42783          	lw	a5,-20(s0)
D:\MounRiver\MounRiver_Studio\workspace\Seekfree_CH32V103R8T6_Opensource_Library\obj/../Libraries/wch_libraries/Peripheral/ch32v10x_exti.c:145
}
     61a:	853e                	mv	a0,a5
     61c:	5432                	lw	s0,44(sp)
     61e:	6145                	addi	sp,sp,48
     620:	8082                	ret

00000622 <EXTI_ClearITPendingBit>:
EXTI_ClearITPendingBit():
D:\MounRiver\MounRiver_Studio\workspace\Seekfree_CH32V103R8T6_Opensource_Library\obj/../Libraries/wch_libraries/Peripheral/ch32v10x_exti.c:154
* Description    : Clears the EXTI's line pending bits.
* Input          : EXTI_Line: specifies the EXTI lines to be enabled or disabled.
* Return         : None
*********************************************************************************/
void EXTI_ClearITPendingBit(uint32_t EXTI_Line)
{  
     622:	1101                	addi	sp,sp,-32
     624:	ce22                	sw	s0,28(sp)
     626:	1000                	addi	s0,sp,32
     628:	fea42623          	sw	a0,-20(s0)
D:\MounRiver\MounRiver_Studio\workspace\Seekfree_CH32V103R8T6_Opensource_Library\obj/../Libraries/wch_libraries/Peripheral/ch32v10x_exti.c:155
  EXTI->INTFR = EXTI_Line;
     62c:	400107b7          	lui	a5,0x40010
     630:	40078793          	addi	a5,a5,1024 # 40010400 <_eusrstack+0x2000b400>
     634:	fec42703          	lw	a4,-20(s0)
     638:	cbd8                	sw	a4,20(a5)
D:\MounRiver\MounRiver_Studio\workspace\Seekfree_CH32V103R8T6_Opensource_Library\obj/../Libraries/wch_libraries/Peripheral/ch32v10x_exti.c:156
}
     63a:	0001                	nop
     63c:	4472                	lw	s0,28(sp)
     63e:	6105                	addi	sp,sp,32
     640:	8082                	ret

00000642 <GPIO_Init>:
GPIO_Init():
D:\MounRiver\MounRiver_Studio\workspace\Seekfree_CH32V103R8T6_Opensource_Library\obj/../Libraries/wch_libraries/Peripheral/ch32v10x_gpio.c:88
* Input          : GPIO_InitStruct: pointer to a GPIO_InitTypeDef structure that
*      contains the configuration information for the specified GPIO peripheral.
* Return         : None
*******************************************************************************/
void GPIO_Init(GPIO_TypeDef* GPIOx, GPIO_InitTypeDef* GPIO_InitStruct)
{
     642:	7139                	addi	sp,sp,-64
     644:	de22                	sw	s0,60(sp)
     646:	0080                	addi	s0,sp,64
     648:	fca42623          	sw	a0,-52(s0)
     64c:	fcb42423          	sw	a1,-56(s0)
D:\MounRiver\MounRiver_Studio\workspace\Seekfree_CH32V103R8T6_Opensource_Library\obj/../Libraries/wch_libraries/Peripheral/ch32v10x_gpio.c:89
  uint32_t currentmode = 0x00, currentpin = 0x00, pinpos = 0x00, pos = 0x00;
     650:	fe042623          	sw	zero,-20(s0)
     654:	fe042023          	sw	zero,-32(s0)
     658:	fe042423          	sw	zero,-24(s0)
     65c:	fc042e23          	sw	zero,-36(s0)
D:\MounRiver\MounRiver_Studio\workspace\Seekfree_CH32V103R8T6_Opensource_Library\obj/../Libraries/wch_libraries/Peripheral/ch32v10x_gpio.c:90
  uint32_t tmpreg = 0x00, pinmask = 0x00;
     660:	fe042223          	sw	zero,-28(s0)
     664:	fc042c23          	sw	zero,-40(s0)
D:\MounRiver\MounRiver_Studio\workspace\Seekfree_CH32V103R8T6_Opensource_Library\obj/../Libraries/wch_libraries/Peripheral/ch32v10x_gpio.c:92

  currentmode = ((uint32_t)GPIO_InitStruct->GPIO_Mode) & ((uint32_t)0x0F);
     668:	fc842783          	lw	a5,-56(s0)
     66c:	479c                	lw	a5,8(a5)
     66e:	8bbd                	andi	a5,a5,15
     670:	fef42623          	sw	a5,-20(s0)
D:\MounRiver\MounRiver_Studio\workspace\Seekfree_CH32V103R8T6_Opensource_Library\obj/../Libraries/wch_libraries/Peripheral/ch32v10x_gpio.c:94
	
  if ((((uint32_t)GPIO_InitStruct->GPIO_Mode) & ((uint32_t)0x10)) != 0x00)
     674:	fc842783          	lw	a5,-56(s0)
     678:	479c                	lw	a5,8(a5)
     67a:	8bc1                	andi	a5,a5,16
     67c:	cb89                	beqz	a5,68e <GPIO_Init+0x4c>
D:\MounRiver\MounRiver_Studio\workspace\Seekfree_CH32V103R8T6_Opensource_Library\obj/../Libraries/wch_libraries/Peripheral/ch32v10x_gpio.c:96
  { 
    currentmode |= (uint32_t)GPIO_InitStruct->GPIO_Speed;
     67e:	fc842783          	lw	a5,-56(s0)
     682:	43dc                	lw	a5,4(a5)
     684:	fec42703          	lw	a4,-20(s0)
     688:	8fd9                	or	a5,a5,a4
     68a:	fef42623          	sw	a5,-20(s0)
D:\MounRiver\MounRiver_Studio\workspace\Seekfree_CH32V103R8T6_Opensource_Library\obj/../Libraries/wch_libraries/Peripheral/ch32v10x_gpio.c:99
  }

  if (((uint32_t)GPIO_InitStruct->GPIO_Pin & ((uint32_t)0x00FF)) != 0x00)
     68e:	fc842783          	lw	a5,-56(s0)
     692:	0007d783          	lhu	a5,0(a5)
     696:	0ff7f793          	andi	a5,a5,255
     69a:	cff1                	beqz	a5,776 <GPIO_Init+0x134>
D:\MounRiver\MounRiver_Studio\workspace\Seekfree_CH32V103R8T6_Opensource_Library\obj/../Libraries/wch_libraries/Peripheral/ch32v10x_gpio.c:101
  {
    tmpreg = GPIOx->CFGLR;
     69c:	fcc42783          	lw	a5,-52(s0)
     6a0:	439c                	lw	a5,0(a5)
     6a2:	fef42223          	sw	a5,-28(s0)
D:\MounRiver\MounRiver_Studio\workspace\Seekfree_CH32V103R8T6_Opensource_Library\obj/../Libraries/wch_libraries/Peripheral/ch32v10x_gpio.c:103
		
    for (pinpos = 0x00; pinpos < 0x08; pinpos++)
     6a6:	fe042423          	sw	zero,-24(s0)
     6aa:	a865                	j	762 <GPIO_Init+0x120>
D:\MounRiver\MounRiver_Studio\workspace\Seekfree_CH32V103R8T6_Opensource_Library\obj/../Libraries/wch_libraries/Peripheral/ch32v10x_gpio.c:105
    {
      pos = ((uint32_t)0x01) << pinpos;
     6ac:	fe842783          	lw	a5,-24(s0)
     6b0:	4705                	li	a4,1
     6b2:	00f717b3          	sll	a5,a4,a5
     6b6:	fcf42e23          	sw	a5,-36(s0)
D:\MounRiver\MounRiver_Studio\workspace\Seekfree_CH32V103R8T6_Opensource_Library\obj/../Libraries/wch_libraries/Peripheral/ch32v10x_gpio.c:106
      currentpin = (GPIO_InitStruct->GPIO_Pin) & pos;
     6ba:	fc842783          	lw	a5,-56(s0)
     6be:	0007d783          	lhu	a5,0(a5)
     6c2:	873e                	mv	a4,a5
     6c4:	fdc42783          	lw	a5,-36(s0)
     6c8:	8ff9                	and	a5,a5,a4
     6ca:	fef42023          	sw	a5,-32(s0)
D:\MounRiver\MounRiver_Studio\workspace\Seekfree_CH32V103R8T6_Opensource_Library\obj/../Libraries/wch_libraries/Peripheral/ch32v10x_gpio.c:108
			
      if (currentpin == pos)
     6ce:	fe042703          	lw	a4,-32(s0)
     6d2:	fdc42783          	lw	a5,-36(s0)
     6d6:	08f71163          	bne	a4,a5,758 <GPIO_Init+0x116>
D:\MounRiver\MounRiver_Studio\workspace\Seekfree_CH32V103R8T6_Opensource_Library\obj/../Libraries/wch_libraries/Peripheral/ch32v10x_gpio.c:110
      {
        pos = pinpos << 2;
     6da:	fe842783          	lw	a5,-24(s0)
     6de:	078a                	slli	a5,a5,0x2
     6e0:	fcf42e23          	sw	a5,-36(s0)
D:\MounRiver\MounRiver_Studio\workspace\Seekfree_CH32V103R8T6_Opensource_Library\obj/../Libraries/wch_libraries/Peripheral/ch32v10x_gpio.c:111
        pinmask = ((uint32_t)0x0F) << pos;
     6e4:	fdc42783          	lw	a5,-36(s0)
     6e8:	473d                	li	a4,15
     6ea:	00f717b3          	sll	a5,a4,a5
     6ee:	fcf42c23          	sw	a5,-40(s0)
D:\MounRiver\MounRiver_Studio\workspace\Seekfree_CH32V103R8T6_Opensource_Library\obj/../Libraries/wch_libraries/Peripheral/ch32v10x_gpio.c:112
        tmpreg &= ~pinmask;
     6f2:	fd842783          	lw	a5,-40(s0)
     6f6:	fff7c793          	not	a5,a5
     6fa:	fe442703          	lw	a4,-28(s0)
     6fe:	8ff9                	and	a5,a5,a4
     700:	fef42223          	sw	a5,-28(s0)
D:\MounRiver\MounRiver_Studio\workspace\Seekfree_CH32V103R8T6_Opensource_Library\obj/../Libraries/wch_libraries/Peripheral/ch32v10x_gpio.c:113
        tmpreg |= (currentmode << pos);
     704:	fdc42783          	lw	a5,-36(s0)
     708:	fec42703          	lw	a4,-20(s0)
     70c:	00f717b3          	sll	a5,a4,a5
     710:	fe442703          	lw	a4,-28(s0)
     714:	8fd9                	or	a5,a5,a4
     716:	fef42223          	sw	a5,-28(s0)
D:\MounRiver\MounRiver_Studio\workspace\Seekfree_CH32V103R8T6_Opensource_Library\obj/../Libraries/wch_libraries/Peripheral/ch32v10x_gpio.c:115

        if (GPIO_InitStruct->GPIO_Mode == GPIO_Mode_IPD)
     71a:	fc842783          	lw	a5,-56(s0)
     71e:	4798                	lw	a4,8(a5)
     720:	02800793          	li	a5,40
     724:	00f71b63          	bne	a4,a5,73a <GPIO_Init+0xf8>
D:\MounRiver\MounRiver_Studio\workspace\Seekfree_CH32V103R8T6_Opensource_Library\obj/../Libraries/wch_libraries/Peripheral/ch32v10x_gpio.c:117
        {
          GPIOx->BCR = (((uint32_t)0x01) << pinpos);
     728:	fe842783          	lw	a5,-24(s0)
     72c:	4705                	li	a4,1
     72e:	00f71733          	sll	a4,a4,a5
     732:	fcc42783          	lw	a5,-52(s0)
     736:	cbd8                	sw	a4,20(a5)
     738:	a005                	j	758 <GPIO_Init+0x116>
D:\MounRiver\MounRiver_Studio\workspace\Seekfree_CH32V103R8T6_Opensource_Library\obj/../Libraries/wch_libraries/Peripheral/ch32v10x_gpio.c:121
        }
        else
        {
          if (GPIO_InitStruct->GPIO_Mode == GPIO_Mode_IPU)
     73a:	fc842783          	lw	a5,-56(s0)
     73e:	4798                	lw	a4,8(a5)
     740:	04800793          	li	a5,72
     744:	00f71a63          	bne	a4,a5,758 <GPIO_Init+0x116>
D:\MounRiver\MounRiver_Studio\workspace\Seekfree_CH32V103R8T6_Opensource_Library\obj/../Libraries/wch_libraries/Peripheral/ch32v10x_gpio.c:123
          {
            GPIOx->BSHR = (((uint32_t)0x01) << pinpos);
     748:	fe842783          	lw	a5,-24(s0)
     74c:	4705                	li	a4,1
     74e:	00f71733          	sll	a4,a4,a5
     752:	fcc42783          	lw	a5,-52(s0)
     756:	cb98                	sw	a4,16(a5)
D:\MounRiver\MounRiver_Studio\workspace\Seekfree_CH32V103R8T6_Opensource_Library\obj/../Libraries/wch_libraries/Peripheral/ch32v10x_gpio.c:103 (discriminator 2)
    for (pinpos = 0x00; pinpos < 0x08; pinpos++)
     758:	fe842783          	lw	a5,-24(s0)
     75c:	0785                	addi	a5,a5,1
     75e:	fef42423          	sw	a5,-24(s0)
D:\MounRiver\MounRiver_Studio\workspace\Seekfree_CH32V103R8T6_Opensource_Library\obj/../Libraries/wch_libraries/Peripheral/ch32v10x_gpio.c:103 (discriminator 1)
     762:	fe842703          	lw	a4,-24(s0)
     766:	479d                	li	a5,7
     768:	f4e7f2e3          	bgeu	a5,a4,6ac <GPIO_Init+0x6a>
D:\MounRiver\MounRiver_Studio\workspace\Seekfree_CH32V103R8T6_Opensource_Library\obj/../Libraries/wch_libraries/Peripheral/ch32v10x_gpio.c:128
          }
        }
      }
    }
    GPIOx->CFGLR = tmpreg;
     76c:	fcc42783          	lw	a5,-52(s0)
     770:	fe442703          	lw	a4,-28(s0)
     774:	c398                	sw	a4,0(a5)
D:\MounRiver\MounRiver_Studio\workspace\Seekfree_CH32V103R8T6_Opensource_Library\obj/../Libraries/wch_libraries/Peripheral/ch32v10x_gpio.c:131
  }

  if (GPIO_InitStruct->GPIO_Pin > 0x00FF)
     776:	fc842783          	lw	a5,-56(s0)
     77a:	0007d703          	lhu	a4,0(a5)
     77e:	0ff00793          	li	a5,255
     782:	0ee7f163          	bgeu	a5,a4,864 <__stack_size+0x64>
D:\MounRiver\MounRiver_Studio\workspace\Seekfree_CH32V103R8T6_Opensource_Library\obj/../Libraries/wch_libraries/Peripheral/ch32v10x_gpio.c:133
  {
    tmpreg = GPIOx->CFGHR;
     786:	fcc42783          	lw	a5,-52(s0)
     78a:	43dc                	lw	a5,4(a5)
     78c:	fef42223          	sw	a5,-28(s0)
D:\MounRiver\MounRiver_Studio\workspace\Seekfree_CH32V103R8T6_Opensource_Library\obj/../Libraries/wch_libraries/Peripheral/ch32v10x_gpio.c:135
		
    for (pinpos = 0x00; pinpos < 0x08; pinpos++)
     790:	fe042423          	sw	zero,-24(s0)
     794:	a875                	j	850 <__stack_size+0x50>
D:\MounRiver\MounRiver_Studio\workspace\Seekfree_CH32V103R8T6_Opensource_Library\obj/../Libraries/wch_libraries/Peripheral/ch32v10x_gpio.c:137
    {
      pos = (((uint32_t)0x01) << (pinpos + 0x08));
     796:	fe842783          	lw	a5,-24(s0)
     79a:	07a1                	addi	a5,a5,8
     79c:	4705                	li	a4,1
     79e:	00f717b3          	sll	a5,a4,a5
     7a2:	fcf42e23          	sw	a5,-36(s0)
D:\MounRiver\MounRiver_Studio\workspace\Seekfree_CH32V103R8T6_Opensource_Library\obj/../Libraries/wch_libraries/Peripheral/ch32v10x_gpio.c:138
      currentpin = ((GPIO_InitStruct->GPIO_Pin) & pos);
     7a6:	fc842783          	lw	a5,-56(s0)
     7aa:	0007d783          	lhu	a5,0(a5)
     7ae:	873e                	mv	a4,a5
     7b0:	fdc42783          	lw	a5,-36(s0)
     7b4:	8ff9                	and	a5,a5,a4
     7b6:	fef42023          	sw	a5,-32(s0)
D:\MounRiver\MounRiver_Studio\workspace\Seekfree_CH32V103R8T6_Opensource_Library\obj/../Libraries/wch_libraries/Peripheral/ch32v10x_gpio.c:140
			
      if (currentpin == pos)
     7ba:	fe042703          	lw	a4,-32(s0)
     7be:	fdc42783          	lw	a5,-36(s0)
     7c2:	08f71263          	bne	a4,a5,846 <__stack_size+0x46>
D:\MounRiver\MounRiver_Studio\workspace\Seekfree_CH32V103R8T6_Opensource_Library\obj/../Libraries/wch_libraries/Peripheral/ch32v10x_gpio.c:142
      {
        pos = pinpos << 2;
     7c6:	fe842783          	lw	a5,-24(s0)
     7ca:	078a                	slli	a5,a5,0x2
     7cc:	fcf42e23          	sw	a5,-36(s0)
D:\MounRiver\MounRiver_Studio\workspace\Seekfree_CH32V103R8T6_Opensource_Library\obj/../Libraries/wch_libraries/Peripheral/ch32v10x_gpio.c:143
        pinmask = ((uint32_t)0x0F) << pos;
     7d0:	fdc42783          	lw	a5,-36(s0)
     7d4:	473d                	li	a4,15
     7d6:	00f717b3          	sll	a5,a4,a5
     7da:	fcf42c23          	sw	a5,-40(s0)
D:\MounRiver\MounRiver_Studio\workspace\Seekfree_CH32V103R8T6_Opensource_Library\obj/../Libraries/wch_libraries/Peripheral/ch32v10x_gpio.c:144
        tmpreg &= ~pinmask;
     7de:	fd842783          	lw	a5,-40(s0)
     7e2:	fff7c793          	not	a5,a5
     7e6:	fe442703          	lw	a4,-28(s0)
     7ea:	8ff9                	and	a5,a5,a4
     7ec:	fef42223          	sw	a5,-28(s0)
D:\MounRiver\MounRiver_Studio\workspace\Seekfree_CH32V103R8T6_Opensource_Library\obj/../Libraries/wch_libraries/Peripheral/ch32v10x_gpio.c:145
        tmpreg |= (currentmode << pos);
     7f0:	fdc42783          	lw	a5,-36(s0)
     7f4:	fec42703          	lw	a4,-20(s0)
     7f8:	00f717b3          	sll	a5,a4,a5
     7fc:	fe442703          	lw	a4,-28(s0)
     800:	8fd9                	or	a5,a5,a4
     802:	fef42223          	sw	a5,-28(s0)
D:\MounRiver\MounRiver_Studio\workspace\Seekfree_CH32V103R8T6_Opensource_Library\obj/../Libraries/wch_libraries/Peripheral/ch32v10x_gpio.c:147

        if (GPIO_InitStruct->GPIO_Mode == GPIO_Mode_IPD)
     806:	fc842783          	lw	a5,-56(s0)
     80a:	4798                	lw	a4,8(a5)
     80c:	02800793          	li	a5,40
     810:	00f71b63          	bne	a4,a5,826 <__stack_size+0x26>
D:\MounRiver\MounRiver_Studio\workspace\Seekfree_CH32V103R8T6_Opensource_Library\obj/../Libraries/wch_libraries/Peripheral/ch32v10x_gpio.c:149
        {
          GPIOx->BCR = (((uint32_t)0x01) << (pinpos + 0x08));
     814:	fe842783          	lw	a5,-24(s0)
     818:	07a1                	addi	a5,a5,8
     81a:	4705                	li	a4,1
     81c:	00f71733          	sll	a4,a4,a5
     820:	fcc42783          	lw	a5,-52(s0)
     824:	cbd8                	sw	a4,20(a5)
D:\MounRiver\MounRiver_Studio\workspace\Seekfree_CH32V103R8T6_Opensource_Library\obj/../Libraries/wch_libraries/Peripheral/ch32v10x_gpio.c:152
        }

        if (GPIO_InitStruct->GPIO_Mode == GPIO_Mode_IPU)
     826:	fc842783          	lw	a5,-56(s0)
     82a:	4798                	lw	a4,8(a5)
     82c:	04800793          	li	a5,72
     830:	00f71b63          	bne	a4,a5,846 <__stack_size+0x46>
D:\MounRiver\MounRiver_Studio\workspace\Seekfree_CH32V103R8T6_Opensource_Library\obj/../Libraries/wch_libraries/Peripheral/ch32v10x_gpio.c:154
        {
          GPIOx->BSHR = (((uint32_t)0x01) << (pinpos + 0x08));
     834:	fe842783          	lw	a5,-24(s0)
     838:	07a1                	addi	a5,a5,8
     83a:	4705                	li	a4,1
     83c:	00f71733          	sll	a4,a4,a5
     840:	fcc42783          	lw	a5,-52(s0)
     844:	cb98                	sw	a4,16(a5)
D:\MounRiver\MounRiver_Studio\workspace\Seekfree_CH32V103R8T6_Opensource_Library\obj/../Libraries/wch_libraries/Peripheral/ch32v10x_gpio.c:135 (discriminator 2)
    for (pinpos = 0x00; pinpos < 0x08; pinpos++)
     846:	fe842783          	lw	a5,-24(s0)
     84a:	0785                	addi	a5,a5,1
     84c:	fef42423          	sw	a5,-24(s0)
D:\MounRiver\MounRiver_Studio\workspace\Seekfree_CH32V103R8T6_Opensource_Library\obj/../Libraries/wch_libraries/Peripheral/ch32v10x_gpio.c:135 (discriminator 1)
     850:	fe842703          	lw	a4,-24(s0)
     854:	479d                	li	a5,7
     856:	f4e7f0e3          	bgeu	a5,a4,796 <GPIO_Init+0x154>
D:\MounRiver\MounRiver_Studio\workspace\Seekfree_CH32V103R8T6_Opensource_Library\obj/../Libraries/wch_libraries/Peripheral/ch32v10x_gpio.c:158
        }
      }
    }
    GPIOx->CFGHR = tmpreg;
     85a:	fcc42783          	lw	a5,-52(s0)
     85e:	fe442703          	lw	a4,-28(s0)
     862:	c3d8                	sw	a4,4(a5)
D:\MounRiver\MounRiver_Studio\workspace\Seekfree_CH32V103R8T6_Opensource_Library\obj/../Libraries/wch_libraries/Peripheral/ch32v10x_gpio.c:160
  }
}
     864:	0001                	nop
     866:	5472                	lw	s0,60(sp)
     868:	6121                	addi	sp,sp,64
     86a:	8082                	ret

0000086c <GPIO_WriteBit>:
GPIO_WriteBit():
D:\MounRiver\MounRiver_Studio\workspace\Seekfree_CH32V103R8T6_Opensource_Library\obj/../Libraries/wch_libraries/Peripheral/ch32v10x_gpio.c:282
*                    Bit_SetL: to clear the port pin.
*                    Bit_SetH: to set the port pin.                  
* Return         : None
*******************************************************************************/
void GPIO_WriteBit(GPIO_TypeDef* GPIOx, uint16_t GPIO_Pin, BitAction BitVal)
{
     86c:	1101                	addi	sp,sp,-32
     86e:	ce22                	sw	s0,28(sp)
     870:	1000                	addi	s0,sp,32
     872:	fea42623          	sw	a0,-20(s0)
     876:	87ae                	mv	a5,a1
     878:	fec42223          	sw	a2,-28(s0)
     87c:	fef41523          	sh	a5,-22(s0)
D:\MounRiver\MounRiver_Studio\workspace\Seekfree_CH32V103R8T6_Opensource_Library\obj/../Libraries/wch_libraries/Peripheral/ch32v10x_gpio.c:283
  if (BitVal != Bit_RESET)
     880:	fe442783          	lw	a5,-28(s0)
     884:	c799                	beqz	a5,892 <GPIO_WriteBit+0x26>
D:\MounRiver\MounRiver_Studio\workspace\Seekfree_CH32V103R8T6_Opensource_Library\obj/../Libraries/wch_libraries/Peripheral/ch32v10x_gpio.c:285
  {
    GPIOx->BSHR = GPIO_Pin;
     886:	fea45703          	lhu	a4,-22(s0)
     88a:	fec42783          	lw	a5,-20(s0)
     88e:	cb98                	sw	a4,16(a5)
D:\MounRiver\MounRiver_Studio\workspace\Seekfree_CH32V103R8T6_Opensource_Library\obj/../Libraries/wch_libraries/Peripheral/ch32v10x_gpio.c:291
  }
  else
  {
    GPIOx->BCR = GPIO_Pin;
  }
}
     890:	a031                	j	89c <GPIO_WriteBit+0x30>
D:\MounRiver\MounRiver_Studio\workspace\Seekfree_CH32V103R8T6_Opensource_Library\obj/../Libraries/wch_libraries/Peripheral/ch32v10x_gpio.c:289
    GPIOx->BCR = GPIO_Pin;
     892:	fea45703          	lhu	a4,-22(s0)
     896:	fec42783          	lw	a5,-20(s0)
     89a:	cbd8                	sw	a4,20(a5)
D:\MounRiver\MounRiver_Studio\workspace\Seekfree_CH32V103R8T6_Opensource_Library\obj/../Libraries/wch_libraries/Peripheral/ch32v10x_gpio.c:291
}
     89c:	0001                	nop
     89e:	4472                	lw	s0,28(sp)
     8a0:	6105                	addi	sp,sp,32
     8a2:	8082                	ret

000008a4 <GPIO_PinRemapConfig>:
GPIO_PinRemapConfig():
D:\MounRiver\MounRiver_Studio\workspace\Seekfree_CH32V103R8T6_Opensource_Library\obj/../Libraries/wch_libraries/Peripheral/ch32v10x_gpio.c:402
*      only for High density Value line devices)     
*                  NewState: ENABLE or DISABLE.             
* Return         : None
*******************************************************************************/
void GPIO_PinRemapConfig(uint32_t GPIO_Remap, FunctionalState NewState)
{
     8a4:	7179                	addi	sp,sp,-48
     8a6:	d622                	sw	s0,44(sp)
     8a8:	1800                	addi	s0,sp,48
     8aa:	fca42e23          	sw	a0,-36(s0)
     8ae:	fcb42c23          	sw	a1,-40(s0)
D:\MounRiver\MounRiver_Studio\workspace\Seekfree_CH32V103R8T6_Opensource_Library\obj/../Libraries/wch_libraries/Peripheral/ch32v10x_gpio.c:403
  uint32_t tmp = 0x00, tmp1 = 0x00, tmpreg = 0x00, tmpmask = 0x00;
     8b2:	fe042423          	sw	zero,-24(s0)
     8b6:	fe042223          	sw	zero,-28(s0)
     8ba:	fe042623          	sw	zero,-20(s0)
     8be:	fe042023          	sw	zero,-32(s0)
D:\MounRiver\MounRiver_Studio\workspace\Seekfree_CH32V103R8T6_Opensource_Library\obj/../Libraries/wch_libraries/Peripheral/ch32v10x_gpio.c:405

  if((GPIO_Remap & 0x80000000) == 0x80000000)
     8c2:	fdc42783          	lw	a5,-36(s0)
     8c6:	0007d863          	bgez	a5,8d6 <GPIO_PinRemapConfig+0x32>
D:\MounRiver\MounRiver_Studio\workspace\Seekfree_CH32V103R8T6_Opensource_Library\obj/../Libraries/wch_libraries/Peripheral/ch32v10x_gpio.c:407
  {
    tmpreg = AFIO->PCFR2;
     8ca:	400107b7          	lui	a5,0x40010
     8ce:	4fdc                	lw	a5,28(a5)
     8d0:	fef42623          	sw	a5,-20(s0)
     8d4:	a031                	j	8e0 <GPIO_PinRemapConfig+0x3c>
D:\MounRiver\MounRiver_Studio\workspace\Seekfree_CH32V103R8T6_Opensource_Library\obj/../Libraries/wch_libraries/Peripheral/ch32v10x_gpio.c:411
  }
  else
  {
    tmpreg = AFIO->PCFR1;
     8d6:	400107b7          	lui	a5,0x40010
     8da:	43dc                	lw	a5,4(a5)
     8dc:	fef42623          	sw	a5,-20(s0)
D:\MounRiver\MounRiver_Studio\workspace\Seekfree_CH32V103R8T6_Opensource_Library\obj/../Libraries/wch_libraries/Peripheral/ch32v10x_gpio.c:414
  }

  tmpmask = (GPIO_Remap & DBGAFR_POSITION_MASK) >> 0x10;
     8e0:	fdc42783          	lw	a5,-36(s0)
     8e4:	83c1                	srli	a5,a5,0x10
     8e6:	8bbd                	andi	a5,a5,15
     8e8:	fef42023          	sw	a5,-32(s0)
D:\MounRiver\MounRiver_Studio\workspace\Seekfree_CH32V103R8T6_Opensource_Library\obj/../Libraries/wch_libraries/Peripheral/ch32v10x_gpio.c:415
  tmp = GPIO_Remap & LSB_MASK;
     8ec:	fdc42703          	lw	a4,-36(s0)
     8f0:	67c1                	lui	a5,0x10
     8f2:	17fd                	addi	a5,a5,-1
     8f4:	8ff9                	and	a5,a5,a4
     8f6:	fef42423          	sw	a5,-24(s0)
D:\MounRiver\MounRiver_Studio\workspace\Seekfree_CH32V103R8T6_Opensource_Library\obj/../Libraries/wch_libraries/Peripheral/ch32v10x_gpio.c:417

  if ((GPIO_Remap & (DBGAFR_LOCATION_MASK | DBGAFR_NUMBITS_MASK)) == (DBGAFR_LOCATION_MASK | DBGAFR_NUMBITS_MASK))
     8fa:	fdc42703          	lw	a4,-36(s0)
     8fe:	003007b7          	lui	a5,0x300
     902:	8f7d                	and	a4,a4,a5
     904:	003007b7          	lui	a5,0x300
     908:	02f71563          	bne	a4,a5,932 <GPIO_PinRemapConfig+0x8e>
D:\MounRiver\MounRiver_Studio\workspace\Seekfree_CH32V103R8T6_Opensource_Library\obj/../Libraries/wch_libraries/Peripheral/ch32v10x_gpio.c:419
  {
    tmpreg &= DBGAFR_SWJCFG_MASK;
     90c:	fec42703          	lw	a4,-20(s0)
     910:	f10007b7          	lui	a5,0xf1000
     914:	17fd                	addi	a5,a5,-1
     916:	8ff9                	and	a5,a5,a4
     918:	fef42623          	sw	a5,-20(s0)
D:\MounRiver\MounRiver_Studio\workspace\Seekfree_CH32V103R8T6_Opensource_Library\obj/../Libraries/wch_libraries/Peripheral/ch32v10x_gpio.c:420
    AFIO->PCFR1 &= DBGAFR_SWJCFG_MASK;
     91c:	400107b7          	lui	a5,0x40010
     920:	43d4                	lw	a3,4(a5)
     922:	400107b7          	lui	a5,0x40010
     926:	f1000737          	lui	a4,0xf1000
     92a:	177d                	addi	a4,a4,-1
     92c:	8f75                	and	a4,a4,a3
     92e:	c3d8                	sw	a4,4(a5)
     930:	a0ad                	j	99a <GPIO_PinRemapConfig+0xf6>
D:\MounRiver\MounRiver_Studio\workspace\Seekfree_CH32V103R8T6_Opensource_Library\obj/../Libraries/wch_libraries/Peripheral/ch32v10x_gpio.c:422
  }
  else if ((GPIO_Remap & DBGAFR_NUMBITS_MASK) == DBGAFR_NUMBITS_MASK)
     932:	fdc42703          	lw	a4,-36(s0)
     936:	001007b7          	lui	a5,0x100
     93a:	8ff9                	and	a5,a5,a4
     93c:	cb8d                	beqz	a5,96e <GPIO_PinRemapConfig+0xca>
D:\MounRiver\MounRiver_Studio\workspace\Seekfree_CH32V103R8T6_Opensource_Library\obj/../Libraries/wch_libraries/Peripheral/ch32v10x_gpio.c:424
  {
    tmp1 = ((uint32_t)0x03) << tmpmask;
     93e:	fe042783          	lw	a5,-32(s0)
     942:	470d                	li	a4,3
     944:	00f717b3          	sll	a5,a4,a5
     948:	fef42223          	sw	a5,-28(s0)
D:\MounRiver\MounRiver_Studio\workspace\Seekfree_CH32V103R8T6_Opensource_Library\obj/../Libraries/wch_libraries/Peripheral/ch32v10x_gpio.c:425
    tmpreg &= ~tmp1;
     94c:	fe442783          	lw	a5,-28(s0)
     950:	fff7c793          	not	a5,a5
     954:	fec42703          	lw	a4,-20(s0)
     958:	8ff9                	and	a5,a5,a4
     95a:	fef42623          	sw	a5,-20(s0)
D:\MounRiver\MounRiver_Studio\workspace\Seekfree_CH32V103R8T6_Opensource_Library\obj/../Libraries/wch_libraries/Peripheral/ch32v10x_gpio.c:426
    tmpreg |= ~DBGAFR_SWJCFG_MASK;
     95e:	fec42703          	lw	a4,-20(s0)
     962:	0f0007b7          	lui	a5,0xf000
     966:	8fd9                	or	a5,a5,a4
     968:	fef42623          	sw	a5,-20(s0)
     96c:	a03d                	j	99a <GPIO_PinRemapConfig+0xf6>
D:\MounRiver\MounRiver_Studio\workspace\Seekfree_CH32V103R8T6_Opensource_Library\obj/../Libraries/wch_libraries/Peripheral/ch32v10x_gpio.c:430
  }
  else
  {
    tmpreg &= ~(tmp << ((GPIO_Remap >> 0x15)*0x10));
     96e:	fdc42783          	lw	a5,-36(s0)
     972:	83d5                	srli	a5,a5,0x15
     974:	0792                	slli	a5,a5,0x4
     976:	fe842703          	lw	a4,-24(s0)
     97a:	00f717b3          	sll	a5,a4,a5
     97e:	fff7c793          	not	a5,a5
     982:	fec42703          	lw	a4,-20(s0)
     986:	8ff9                	and	a5,a5,a4
     988:	fef42623          	sw	a5,-20(s0)
D:\MounRiver\MounRiver_Studio\workspace\Seekfree_CH32V103R8T6_Opensource_Library\obj/../Libraries/wch_libraries/Peripheral/ch32v10x_gpio.c:431
    tmpreg |= ~DBGAFR_SWJCFG_MASK;
     98c:	fec42703          	lw	a4,-20(s0)
     990:	0f0007b7          	lui	a5,0xf000
     994:	8fd9                	or	a5,a5,a4
     996:	fef42623          	sw	a5,-20(s0)
D:\MounRiver\MounRiver_Studio\workspace\Seekfree_CH32V103R8T6_Opensource_Library\obj/../Libraries/wch_libraries/Peripheral/ch32v10x_gpio.c:434
  }

  if (NewState != DISABLE)
     99a:	fd842783          	lw	a5,-40(s0)
     99e:	cf91                	beqz	a5,9ba <GPIO_PinRemapConfig+0x116>
D:\MounRiver\MounRiver_Studio\workspace\Seekfree_CH32V103R8T6_Opensource_Library\obj/../Libraries/wch_libraries/Peripheral/ch32v10x_gpio.c:436
  {
    tmpreg |= (tmp << ((GPIO_Remap >> 0x15)*0x10));
     9a0:	fdc42783          	lw	a5,-36(s0)
     9a4:	83d5                	srli	a5,a5,0x15
     9a6:	0792                	slli	a5,a5,0x4
     9a8:	fe842703          	lw	a4,-24(s0)
     9ac:	00f717b3          	sll	a5,a4,a5
     9b0:	fec42703          	lw	a4,-20(s0)
     9b4:	8fd9                	or	a5,a5,a4
     9b6:	fef42623          	sw	a5,-20(s0)
D:\MounRiver\MounRiver_Studio\workspace\Seekfree_CH32V103R8T6_Opensource_Library\obj/../Libraries/wch_libraries/Peripheral/ch32v10x_gpio.c:439
  }

  if((GPIO_Remap & 0x80000000) == 0x80000000)
     9ba:	fdc42783          	lw	a5,-36(s0)
     9be:	0007d863          	bgez	a5,9ce <GPIO_PinRemapConfig+0x12a>
D:\MounRiver\MounRiver_Studio\workspace\Seekfree_CH32V103R8T6_Opensource_Library\obj/../Libraries/wch_libraries/Peripheral/ch32v10x_gpio.c:441
  {
    AFIO->PCFR2 = tmpreg;
     9c2:	400107b7          	lui	a5,0x40010
     9c6:	fec42703          	lw	a4,-20(s0)
     9ca:	cfd8                	sw	a4,28(a5)
D:\MounRiver\MounRiver_Studio\workspace\Seekfree_CH32V103R8T6_Opensource_Library\obj/../Libraries/wch_libraries/Peripheral/ch32v10x_gpio.c:447
  }
  else
  {
    AFIO->PCFR1 = tmpreg;
  }  
}
     9cc:	a031                	j	9d8 <GPIO_PinRemapConfig+0x134>
D:\MounRiver\MounRiver_Studio\workspace\Seekfree_CH32V103R8T6_Opensource_Library\obj/../Libraries/wch_libraries/Peripheral/ch32v10x_gpio.c:445
    AFIO->PCFR1 = tmpreg;
     9ce:	400107b7          	lui	a5,0x40010
     9d2:	fec42703          	lw	a4,-20(s0)
     9d6:	c3d8                	sw	a4,4(a5)
D:\MounRiver\MounRiver_Studio\workspace\Seekfree_CH32V103R8T6_Opensource_Library\obj/../Libraries/wch_libraries/Peripheral/ch32v10x_gpio.c:447
}
     9d8:	0001                	nop
     9da:	5432                	lw	s0,44(sp)
     9dc:	6145                	addi	sp,sp,48
     9de:	8082                	ret

000009e0 <NVIC_EnableIRQ>:
NVIC_EnableIRQ():
D:\MounRiver\MounRiver_Studio\workspace\Seekfree_CH32V103R8T6_Opensource_Library\obj/../Libraries/wch_libraries/Core/core_riscv.h:126
* Function Name  : NVIC_EnableIRQ
* Description    : Enable Interrupt
* Input          : IRQn: Interrupt Numbers
* Return         : None
*******************************************************************************/
RV_STATIC_INLINE void NVIC_EnableIRQ(IRQn_Type IRQn){
     9e0:	1101                	addi	sp,sp,-32
     9e2:	ce22                	sw	s0,28(sp)
     9e4:	1000                	addi	s0,sp,32
     9e6:	fea42623          	sw	a0,-20(s0)
D:\MounRiver\MounRiver_Studio\workspace\Seekfree_CH32V103R8T6_Opensource_Library\obj/../Libraries/wch_libraries/Core/core_riscv.h:127
  NVIC->IENR[((uint32_t)(IRQn) >> 5)] = (1 << ((uint32_t)(IRQn) & 0x1F));
     9ea:	fec42783          	lw	a5,-20(s0)
     9ee:	8bfd                	andi	a5,a5,31
     9f0:	4705                	li	a4,1
     9f2:	00f716b3          	sll	a3,a4,a5
     9f6:	e000e737          	lui	a4,0xe000e
     9fa:	fec42783          	lw	a5,-20(s0)
     9fe:	8395                	srli	a5,a5,0x5
     a00:	04078793          	addi	a5,a5,64 # 40010040 <_eusrstack+0x2000b040>
     a04:	078a                	slli	a5,a5,0x2
     a06:	97ba                	add	a5,a5,a4
     a08:	c394                	sw	a3,0(a5)
D:\MounRiver\MounRiver_Studio\workspace\Seekfree_CH32V103R8T6_Opensource_Library\obj/../Libraries/wch_libraries/Core/core_riscv.h:128
}
     a0a:	0001                	nop
     a0c:	4472                	lw	s0,28(sp)
     a0e:	6105                	addi	sp,sp,32
     a10:	8082                	ret

00000a12 <NVIC_DisableIRQ>:
NVIC_DisableIRQ():
D:\MounRiver\MounRiver_Studio\workspace\Seekfree_CH32V103R8T6_Opensource_Library\obj/../Libraries/wch_libraries/Core/core_riscv.h:137
* Description    : Disable Interrupt
* Input          : IRQn: Interrupt Numbers
* Return         : None
*******************************************************************************/
RV_STATIC_INLINE void NVIC_DisableIRQ(IRQn_Type IRQn)
{
     a12:	1101                	addi	sp,sp,-32
     a14:	ce22                	sw	s0,28(sp)
     a16:	1000                	addi	s0,sp,32
     a18:	fea42623          	sw	a0,-20(s0)
D:\MounRiver\MounRiver_Studio\workspace\Seekfree_CH32V103R8T6_Opensource_Library\obj/../Libraries/wch_libraries/Core/core_riscv.h:138
  NVIC->IRER[((uint32_t)(IRQn) >> 5)] = (1 << ((uint32_t)(IRQn) & 0x1F));
     a1c:	fec42783          	lw	a5,-20(s0)
     a20:	8bfd                	andi	a5,a5,31
     a22:	4705                	li	a4,1
     a24:	00f716b3          	sll	a3,a4,a5
     a28:	e000e737          	lui	a4,0xe000e
     a2c:	fec42783          	lw	a5,-20(s0)
     a30:	8395                	srli	a5,a5,0x5
     a32:	06078793          	addi	a5,a5,96
     a36:	078a                	slli	a5,a5,0x2
     a38:	97ba                	add	a5,a5,a4
     a3a:	c394                	sw	a3,0(a5)
D:\MounRiver\MounRiver_Studio\workspace\Seekfree_CH32V103R8T6_Opensource_Library\obj/../Libraries/wch_libraries/Core/core_riscv.h:139
}
     a3c:	0001                	nop
     a3e:	4472                	lw	s0,28(sp)
     a40:	6105                	addi	sp,sp,32
     a42:	8082                	ret

00000a44 <NVIC_SetPriority>:
NVIC_SetPriority():
D:\MounRiver\MounRiver_Studio\workspace\Seekfree_CH32V103R8T6_Opensource_Library\obj/../Libraries/wch_libraries/Core/core_riscv.h:208
*                  priority: bit7:pre-emption priority
*                            bit6-bit4: subpriority
* Return         : None
*******************************************************************************/
RV_STATIC_INLINE void NVIC_SetPriority(IRQn_Type IRQn, uint8_t priority)
{
     a44:	1101                	addi	sp,sp,-32
     a46:	ce22                	sw	s0,28(sp)
     a48:	1000                	addi	s0,sp,32
     a4a:	fea42623          	sw	a0,-20(s0)
     a4e:	87ae                	mv	a5,a1
     a50:	fef405a3          	sb	a5,-21(s0)
D:\MounRiver\MounRiver_Studio\workspace\Seekfree_CH32V103R8T6_Opensource_Library\obj/../Libraries/wch_libraries/Core/core_riscv.h:209
  NVIC->IPRIOR[(uint32_t)(IRQn)] = priority;
     a54:	e000e737          	lui	a4,0xe000e
     a58:	fec42783          	lw	a5,-20(s0)
     a5c:	97ba                	add	a5,a5,a4
     a5e:	feb44703          	lbu	a4,-21(s0)
     a62:	40e78023          	sb	a4,1024(a5)
D:\MounRiver\MounRiver_Studio\workspace\Seekfree_CH32V103R8T6_Opensource_Library\obj/../Libraries/wch_libraries/Core/core_riscv.h:210
}
     a66:	0001                	nop
     a68:	4472                	lw	s0,28(sp)
     a6a:	6105                	addi	sp,sp,32
     a6c:	8082                	ret

00000a6e <NVIC_Init>:
NVIC_Init():
D:\MounRiver\MounRiver_Studio\workspace\Seekfree_CH32V103R8T6_Opensource_Library\obj/../Libraries/wch_libraries/Peripheral/ch32v10x_misc.c:44
* Input          : NVIC_InitStruct: pointer to a NVIC_InitTypeDef structure that contains the
*                                   configuration information for the specified NVIC peripheral.                 
* Return         : None
*******************************************************************************************/
void NVIC_Init(NVIC_InitTypeDef* NVIC_InitStruct)
{
     a6e:	1101                	addi	sp,sp,-32
     a70:	ce06                	sw	ra,28(sp)
     a72:	cc22                	sw	s0,24(sp)
     a74:	1000                	addi	s0,sp,32
     a76:	fea42623          	sw	a0,-20(s0)
D:\MounRiver\MounRiver_Studio\workspace\Seekfree_CH32V103R8T6_Opensource_Library\obj/../Libraries/wch_libraries/Peripheral/ch32v10x_misc.c:47
	//uint8_t tmppre = 0;

	if((PFIC->CFGR&(1<<1)) != 0)                    //中断嵌套标志位：1为关闭
     a7a:	e000e7b7          	lui	a5,0xe000e
     a7e:	47bc                	lw	a5,72(a5)
     a80:	8b89                	andi	a5,a5,2
     a82:	c38d                	beqz	a5,aa4 <NVIC_Init+0x36>
D:\MounRiver\MounRiver_Studio\workspace\Seekfree_CH32V103R8T6_Opensource_Library\obj/../Libraries/wch_libraries/Peripheral/ch32v10x_misc.c:49
	{
		NVIC_SetPriority( NVIC_InitStruct->NVIC_IRQChannel, NVIC_InitStruct->NVIC_IRQChannelSubPriority<<4);
     a84:	fec42783          	lw	a5,-20(s0)
     a88:	0007c783          	lbu	a5,0(a5) # e000e000 <_eusrstack+0xc0009000>
     a8c:	873e                	mv	a4,a5
     a8e:	fec42783          	lw	a5,-20(s0)
     a92:	0027c783          	lbu	a5,2(a5)
     a96:	0792                	slli	a5,a5,0x4
     a98:	0ff7f793          	andi	a5,a5,255
     a9c:	85be                	mv	a1,a5
     a9e:	853a                	mv	a0,a4
     aa0:	3755                	jal	a44 <NVIC_SetPriority>
     aa2:	a095                	j	b06 <NVIC_Init+0x98>
D:\MounRiver\MounRiver_Studio\workspace\Seekfree_CH32V103R8T6_Opensource_Library\obj/../Libraries/wch_libraries/Peripheral/ch32v10x_misc.c:51
	}
	else if((PFIC->CFGR&(1<<1)) == 0)               //中断嵌套标志位：0为打开
     aa4:	e000e7b7          	lui	a5,0xe000e
     aa8:	47bc                	lw	a5,72(a5)
     aaa:	8b89                	andi	a5,a5,2
     aac:	efa9                	bnez	a5,b06 <NVIC_Init+0x98>
D:\MounRiver\MounRiver_Studio\workspace\Seekfree_CH32V103R8T6_Opensource_Library\obj/../Libraries/wch_libraries/Peripheral/ch32v10x_misc.c:53
	{
        if(NVIC_InitStruct->NVIC_IRQChannelPreemptionPriority == 1)
     aae:	fec42783          	lw	a5,-20(s0)
     ab2:	0017c703          	lbu	a4,1(a5) # e000e001 <_eusrstack+0xc0009001>
     ab6:	4785                	li	a5,1
     ab8:	02f71863          	bne	a4,a5,ae8 <NVIC_Init+0x7a>
D:\MounRiver\MounRiver_Studio\workspace\Seekfree_CH32V103R8T6_Opensource_Library\obj/../Libraries/wch_libraries/Peripheral/ch32v10x_misc.c:55
        {
            NVIC_SetPriority( NVIC_InitStruct->NVIC_IRQChannel, (1<<7)|(NVIC_InitStruct->NVIC_IRQChannelSubPriority<<4));
     abc:	fec42783          	lw	a5,-20(s0)
     ac0:	0007c783          	lbu	a5,0(a5)
     ac4:	873e                	mv	a4,a5
     ac6:	fec42783          	lw	a5,-20(s0)
     aca:	0027c783          	lbu	a5,2(a5)
     ace:	0792                	slli	a5,a5,0x4
     ad0:	07e2                	slli	a5,a5,0x18
     ad2:	87e1                	srai	a5,a5,0x18
     ad4:	f807e793          	ori	a5,a5,-128
     ad8:	07e2                	slli	a5,a5,0x18
     ada:	87e1                	srai	a5,a5,0x18
     adc:	0ff7f793          	andi	a5,a5,255
     ae0:	85be                	mv	a1,a5
     ae2:	853a                	mv	a0,a4
     ae4:	3785                	jal	a44 <NVIC_SetPriority>
     ae6:	a005                	j	b06 <NVIC_Init+0x98>
D:\MounRiver\MounRiver_Studio\workspace\Seekfree_CH32V103R8T6_Opensource_Library\obj/../Libraries/wch_libraries/Peripheral/ch32v10x_misc.c:59
        }
        else
        {
            NVIC_SetPriority( NVIC_InitStruct->NVIC_IRQChannel, (0<<7)|(NVIC_InitStruct->NVIC_IRQChannelSubPriority<<4));
     ae8:	fec42783          	lw	a5,-20(s0)
     aec:	0007c783          	lbu	a5,0(a5)
     af0:	873e                	mv	a4,a5
     af2:	fec42783          	lw	a5,-20(s0)
     af6:	0027c783          	lbu	a5,2(a5)
     afa:	0792                	slli	a5,a5,0x4
     afc:	0ff7f793          	andi	a5,a5,255
     b00:	85be                	mv	a1,a5
     b02:	853a                	mv	a0,a4
     b04:	3781                	jal	a44 <NVIC_SetPriority>
D:\MounRiver\MounRiver_Studio\workspace\Seekfree_CH32V103R8T6_Opensource_Library\obj/../Libraries/wch_libraries/Peripheral/ch32v10x_misc.c:93
//	else if(NVIC_Priority_Group == NVIC_PriorityGroup_4)
//	{
//		NVIC_SetPriority( NVIC_InitStruct->NVIC_IRQChannel, NVIC_InitStruct->NVIC_IRQChannelPreemptionPriority<<4);
//	}

  if (NVIC_InitStruct->NVIC_IRQChannelCmd != DISABLE)
     b06:	fec42783          	lw	a5,-20(s0)
     b0a:	43dc                	lw	a5,4(a5)
     b0c:	cb81                	beqz	a5,b1c <NVIC_Init+0xae>
D:\MounRiver\MounRiver_Studio\workspace\Seekfree_CH32V103R8T6_Opensource_Library\obj/../Libraries/wch_libraries/Peripheral/ch32v10x_misc.c:95
  {
  	NVIC_EnableIRQ(NVIC_InitStruct->NVIC_IRQChannel);
     b0e:	fec42783          	lw	a5,-20(s0)
     b12:	0007c783          	lbu	a5,0(a5)
     b16:	853e                	mv	a0,a5
     b18:	35e1                	jal	9e0 <NVIC_EnableIRQ>
D:\MounRiver\MounRiver_Studio\workspace\Seekfree_CH32V103R8T6_Opensource_Library\obj/../Libraries/wch_libraries/Peripheral/ch32v10x_misc.c:101
  }
  else
  {
  	NVIC_DisableIRQ(NVIC_InitStruct->NVIC_IRQChannel);
  }
}
     b1a:	a039                	j	b28 <NVIC_Init+0xba>
D:\MounRiver\MounRiver_Studio\workspace\Seekfree_CH32V103R8T6_Opensource_Library\obj/../Libraries/wch_libraries/Peripheral/ch32v10x_misc.c:99
  	NVIC_DisableIRQ(NVIC_InitStruct->NVIC_IRQChannel);
     b1c:	fec42783          	lw	a5,-20(s0)
     b20:	0007c783          	lbu	a5,0(a5)
     b24:	853e                	mv	a0,a5
     b26:	35f5                	jal	a12 <NVIC_DisableIRQ>
D:\MounRiver\MounRiver_Studio\workspace\Seekfree_CH32V103R8T6_Opensource_Library\obj/../Libraries/wch_libraries/Peripheral/ch32v10x_misc.c:101
}
     b28:	0001                	nop
     b2a:	40f2                	lw	ra,28(sp)
     b2c:	4462                	lw	s0,24(sp)
     b2e:	6105                	addi	sp,sp,32
     b30:	8082                	ret

00000b32 <RCC_GetClocksFreq>:
RCC_GetClocksFreq():
D:\MounRiver\MounRiver_Studio\workspace\Seekfree_CH32V103R8T6_Opensource_Library\obj/../Libraries/wch_libraries/Peripheral/ch32v10x_rcc.c:469
* Input          : The result of this function could be not correct when using
*      fractional value for HSE crystal.
* Return         : None
********************************************************************************/
void RCC_GetClocksFreq(RCC_ClocksTypeDef* RCC_Clocks)
{
     b32:	7179                	addi	sp,sp,-48
     b34:	d622                	sw	s0,44(sp)
     b36:	1800                	addi	s0,sp,48
     b38:	fca42e23          	sw	a0,-36(s0)
D:\MounRiver\MounRiver_Studio\workspace\Seekfree_CH32V103R8T6_Opensource_Library\obj/../Libraries/wch_libraries/Peripheral/ch32v10x_rcc.c:470
  uint32_t tmp = 0, pllmull = 0, pllsource = 0, presc = 0;
     b3c:	fe042623          	sw	zero,-20(s0)
     b40:	fe042423          	sw	zero,-24(s0)
     b44:	fe042223          	sw	zero,-28(s0)
     b48:	fe042023          	sw	zero,-32(s0)
D:\MounRiver\MounRiver_Studio\workspace\Seekfree_CH32V103R8T6_Opensource_Library\obj/../Libraries/wch_libraries/Peripheral/ch32v10x_rcc.c:472
  
  tmp = RCC->CFGR0 & CFGR0_SWS_Mask;
     b4c:	400217b7          	lui	a5,0x40021
     b50:	43dc                	lw	a5,4(a5)
     b52:	8bb1                	andi	a5,a5,12
     b54:	fef42623          	sw	a5,-20(s0)
     b58:	fec42703          	lw	a4,-20(s0)
     b5c:	4791                	li	a5,4
     b5e:	02f70263          	beq	a4,a5,b82 <RCC_GetClocksFreq+0x50>
     b62:	fec42703          	lw	a4,-20(s0)
     b66:	47a1                	li	a5,8
     b68:	02f70563          	beq	a4,a5,b92 <RCC_GetClocksFreq+0x60>
     b6c:	fec42783          	lw	a5,-20(s0)
     b70:	e7c5                	bnez	a5,c18 <RCC_GetClocksFreq+0xe6>
D:\MounRiver\MounRiver_Studio\workspace\Seekfree_CH32V103R8T6_Opensource_Library\obj/../Libraries/wch_libraries/Peripheral/ch32v10x_rcc.c:477
  
  switch (tmp)
  {
    case 0x00: 
      RCC_Clocks->SYSCLK_Frequency = HSI_VALUE;
     b72:	fdc42783          	lw	a5,-36(s0)
     b76:	007a1737          	lui	a4,0x7a1
     b7a:	20070713          	addi	a4,a4,512 # 7a1200 <_data_lma+0x79f118>
     b7e:	c398                	sw	a4,0(a5)
D:\MounRiver\MounRiver_Studio\workspace\Seekfree_CH32V103R8T6_Opensource_Library\obj/../Libraries/wch_libraries/Peripheral/ch32v10x_rcc.c:478
      break;
     b80:	a065                	j	c28 <RCC_GetClocksFreq+0xf6>
D:\MounRiver\MounRiver_Studio\workspace\Seekfree_CH32V103R8T6_Opensource_Library\obj/../Libraries/wch_libraries/Peripheral/ch32v10x_rcc.c:481
		
    case 0x04:
      RCC_Clocks->SYSCLK_Frequency = HSE_VALUE;
     b82:	fdc42783          	lw	a5,-36(s0)
     b86:	007a1737          	lui	a4,0x7a1
     b8a:	20070713          	addi	a4,a4,512 # 7a1200 <_data_lma+0x79f118>
     b8e:	c398                	sw	a4,0(a5)
D:\MounRiver\MounRiver_Studio\workspace\Seekfree_CH32V103R8T6_Opensource_Library\obj/../Libraries/wch_libraries/Peripheral/ch32v10x_rcc.c:482
      break;
     b90:	a861                	j	c28 <RCC_GetClocksFreq+0xf6>
D:\MounRiver\MounRiver_Studio\workspace\Seekfree_CH32V103R8T6_Opensource_Library\obj/../Libraries/wch_libraries/Peripheral/ch32v10x_rcc.c:485
		
    case 0x08:
      pllmull = RCC->CFGR0 & CFGR0_PLLMull_Mask;
     b92:	400217b7          	lui	a5,0x40021
     b96:	43d8                	lw	a4,4(a5)
     b98:	003c07b7          	lui	a5,0x3c0
     b9c:	8ff9                	and	a5,a5,a4
     b9e:	fef42423          	sw	a5,-24(s0)
D:\MounRiver\MounRiver_Studio\workspace\Seekfree_CH32V103R8T6_Opensource_Library\obj/../Libraries/wch_libraries/Peripheral/ch32v10x_rcc.c:486
      pllsource = RCC->CFGR0 & CFGR0_PLLSRC_Mask;    
     ba2:	400217b7          	lui	a5,0x40021
     ba6:	43d8                	lw	a4,4(a5)
     ba8:	67c1                	lui	a5,0x10
     baa:	8ff9                	and	a5,a5,a4
     bac:	fef42223          	sw	a5,-28(s0)
D:\MounRiver\MounRiver_Studio\workspace\Seekfree_CH32V103R8T6_Opensource_Library\obj/../Libraries/wch_libraries/Peripheral/ch32v10x_rcc.c:487
      pllmull = ( pllmull >> 18) + 2;
     bb0:	fe842783          	lw	a5,-24(s0)
     bb4:	83c9                	srli	a5,a5,0x12
     bb6:	0789                	addi	a5,a5,2
     bb8:	fef42423          	sw	a5,-24(s0)
D:\MounRiver\MounRiver_Studio\workspace\Seekfree_CH32V103R8T6_Opensource_Library\obj/../Libraries/wch_libraries/Peripheral/ch32v10x_rcc.c:489
      
      if (pllsource == 0x00)
     bbc:	fe442783          	lw	a5,-28(s0)
     bc0:	ef89                	bnez	a5,bda <RCC_GetClocksFreq+0xa8>
D:\MounRiver\MounRiver_Studio\workspace\Seekfree_CH32V103R8T6_Opensource_Library\obj/../Libraries/wch_libraries/Peripheral/ch32v10x_rcc.c:491
      {
        RCC_Clocks->SYSCLK_Frequency = (HSI_VALUE >> 1) * pllmull;
     bc2:	fe842703          	lw	a4,-24(s0)
     bc6:	003d17b7          	lui	a5,0x3d1
     bca:	90078793          	addi	a5,a5,-1792 # 3d0900 <_data_lma+0x3ce818>
     bce:	02f70733          	mul	a4,a4,a5
     bd2:	fdc42783          	lw	a5,-36(s0)
     bd6:	c398                	sw	a4,0(a5)
D:\MounRiver\MounRiver_Studio\workspace\Seekfree_CH32V103R8T6_Opensource_Library\obj/../Libraries/wch_libraries/Peripheral/ch32v10x_rcc.c:504
        else
        {
          RCC_Clocks->SYSCLK_Frequency = HSE_VALUE * pllmull;
        }
      } 
      break;
     bd8:	a881                	j	c28 <RCC_GetClocksFreq+0xf6>
D:\MounRiver\MounRiver_Studio\workspace\Seekfree_CH32V103R8T6_Opensource_Library\obj/../Libraries/wch_libraries/Peripheral/ch32v10x_rcc.c:495
        if ((RCC->CFGR0 & CFGR0_PLLXTPRE_Mask) != (uint32_t)RESET)
     bda:	400217b7          	lui	a5,0x40021
     bde:	43d8                	lw	a4,4(a5)
     be0:	000207b7          	lui	a5,0x20
     be4:	8ff9                	and	a5,a5,a4
     be6:	cf89                	beqz	a5,c00 <RCC_GetClocksFreq+0xce>
D:\MounRiver\MounRiver_Studio\workspace\Seekfree_CH32V103R8T6_Opensource_Library\obj/../Libraries/wch_libraries/Peripheral/ch32v10x_rcc.c:497
          RCC_Clocks->SYSCLK_Frequency = (HSE_VALUE >> 1) * pllmull;
     be8:	fe842703          	lw	a4,-24(s0)
     bec:	003d17b7          	lui	a5,0x3d1
     bf0:	90078793          	addi	a5,a5,-1792 # 3d0900 <_data_lma+0x3ce818>
     bf4:	02f70733          	mul	a4,a4,a5
     bf8:	fdc42783          	lw	a5,-36(s0)
     bfc:	c398                	sw	a4,0(a5)
D:\MounRiver\MounRiver_Studio\workspace\Seekfree_CH32V103R8T6_Opensource_Library\obj/../Libraries/wch_libraries/Peripheral/ch32v10x_rcc.c:504
      break;
     bfe:	a02d                	j	c28 <RCC_GetClocksFreq+0xf6>
D:\MounRiver\MounRiver_Studio\workspace\Seekfree_CH32V103R8T6_Opensource_Library\obj/../Libraries/wch_libraries/Peripheral/ch32v10x_rcc.c:501
          RCC_Clocks->SYSCLK_Frequency = HSE_VALUE * pllmull;
     c00:	fe842703          	lw	a4,-24(s0)
     c04:	007a17b7          	lui	a5,0x7a1
     c08:	20078793          	addi	a5,a5,512 # 7a1200 <_data_lma+0x79f118>
     c0c:	02f70733          	mul	a4,a4,a5
     c10:	fdc42783          	lw	a5,-36(s0)
     c14:	c398                	sw	a4,0(a5)
D:\MounRiver\MounRiver_Studio\workspace\Seekfree_CH32V103R8T6_Opensource_Library\obj/../Libraries/wch_libraries/Peripheral/ch32v10x_rcc.c:504
      break;
     c16:	a809                	j	c28 <RCC_GetClocksFreq+0xf6>
D:\MounRiver\MounRiver_Studio\workspace\Seekfree_CH32V103R8T6_Opensource_Library\obj/../Libraries/wch_libraries/Peripheral/ch32v10x_rcc.c:507

    default:
      RCC_Clocks->SYSCLK_Frequency = HSI_VALUE;
     c18:	fdc42783          	lw	a5,-36(s0)
     c1c:	007a1737          	lui	a4,0x7a1
     c20:	20070713          	addi	a4,a4,512 # 7a1200 <_data_lma+0x79f118>
     c24:	c398                	sw	a4,0(a5)
D:\MounRiver\MounRiver_Studio\workspace\Seekfree_CH32V103R8T6_Opensource_Library\obj/../Libraries/wch_libraries/Peripheral/ch32v10x_rcc.c:508
      break;
     c26:	0001                	nop
D:\MounRiver\MounRiver_Studio\workspace\Seekfree_CH32V103R8T6_Opensource_Library\obj/../Libraries/wch_libraries/Peripheral/ch32v10x_rcc.c:511
  }

  tmp = RCC->CFGR0 & CFGR0_HPRE_Set_Mask;
     c28:	400217b7          	lui	a5,0x40021
     c2c:	43dc                	lw	a5,4(a5)
     c2e:	0f07f793          	andi	a5,a5,240
     c32:	fef42623          	sw	a5,-20(s0)
D:\MounRiver\MounRiver_Studio\workspace\Seekfree_CH32V103R8T6_Opensource_Library\obj/../Libraries/wch_libraries/Peripheral/ch32v10x_rcc.c:512
  tmp = tmp >> 4;
     c36:	fec42783          	lw	a5,-20(s0)
     c3a:	8391                	srli	a5,a5,0x4
     c3c:	fef42623          	sw	a5,-20(s0)
D:\MounRiver\MounRiver_Studio\workspace\Seekfree_CH32V103R8T6_Opensource_Library\obj/../Libraries/wch_libraries/Peripheral/ch32v10x_rcc.c:513
  presc = APBAHBPrescTable[tmp];
     c40:	200007b7          	lui	a5,0x20000
     c44:	00078713          	mv	a4,a5
     c48:	fec42783          	lw	a5,-20(s0)
     c4c:	97ba                	add	a5,a5,a4
     c4e:	0007c783          	lbu	a5,0(a5) # 20000000 <_data_vma>
     c52:	0ff7f793          	andi	a5,a5,255
     c56:	fef42023          	sw	a5,-32(s0)
D:\MounRiver\MounRiver_Studio\workspace\Seekfree_CH32V103R8T6_Opensource_Library\obj/../Libraries/wch_libraries/Peripheral/ch32v10x_rcc.c:514
  RCC_Clocks->HCLK_Frequency = RCC_Clocks->SYSCLK_Frequency >> presc;
     c5a:	fdc42783          	lw	a5,-36(s0)
     c5e:	4398                	lw	a4,0(a5)
     c60:	fe042783          	lw	a5,-32(s0)
     c64:	00f75733          	srl	a4,a4,a5
     c68:	fdc42783          	lw	a5,-36(s0)
     c6c:	c3d8                	sw	a4,4(a5)
D:\MounRiver\MounRiver_Studio\workspace\Seekfree_CH32V103R8T6_Opensource_Library\obj/../Libraries/wch_libraries/Peripheral/ch32v10x_rcc.c:515
  tmp = RCC->CFGR0 & CFGR0_PPRE1_Set_Mask;
     c6e:	400217b7          	lui	a5,0x40021
     c72:	43dc                	lw	a5,4(a5)
     c74:	7007f793          	andi	a5,a5,1792
     c78:	fef42623          	sw	a5,-20(s0)
D:\MounRiver\MounRiver_Studio\workspace\Seekfree_CH32V103R8T6_Opensource_Library\obj/../Libraries/wch_libraries/Peripheral/ch32v10x_rcc.c:516
  tmp = tmp >> 8;
     c7c:	fec42783          	lw	a5,-20(s0)
     c80:	83a1                	srli	a5,a5,0x8
     c82:	fef42623          	sw	a5,-20(s0)
D:\MounRiver\MounRiver_Studio\workspace\Seekfree_CH32V103R8T6_Opensource_Library\obj/../Libraries/wch_libraries/Peripheral/ch32v10x_rcc.c:517
  presc = APBAHBPrescTable[tmp];
     c86:	200007b7          	lui	a5,0x20000
     c8a:	00078713          	mv	a4,a5
     c8e:	fec42783          	lw	a5,-20(s0)
     c92:	97ba                	add	a5,a5,a4
     c94:	0007c783          	lbu	a5,0(a5) # 20000000 <_data_vma>
     c98:	0ff7f793          	andi	a5,a5,255
     c9c:	fef42023          	sw	a5,-32(s0)
D:\MounRiver\MounRiver_Studio\workspace\Seekfree_CH32V103R8T6_Opensource_Library\obj/../Libraries/wch_libraries/Peripheral/ch32v10x_rcc.c:518
  RCC_Clocks->PCLK1_Frequency = RCC_Clocks->HCLK_Frequency >> presc;
     ca0:	fdc42783          	lw	a5,-36(s0)
     ca4:	43d8                	lw	a4,4(a5)
     ca6:	fe042783          	lw	a5,-32(s0)
     caa:	00f75733          	srl	a4,a4,a5
     cae:	fdc42783          	lw	a5,-36(s0)
     cb2:	c798                	sw	a4,8(a5)
D:\MounRiver\MounRiver_Studio\workspace\Seekfree_CH32V103R8T6_Opensource_Library\obj/../Libraries/wch_libraries/Peripheral/ch32v10x_rcc.c:519
  tmp = RCC->CFGR0 & CFGR0_PPRE2_Set_Mask;
     cb4:	400217b7          	lui	a5,0x40021
     cb8:	43d8                	lw	a4,4(a5)
     cba:	6791                	lui	a5,0x4
     cbc:	80078793          	addi	a5,a5,-2048 # 3800 <_data_lma+0x1718>
     cc0:	8ff9                	and	a5,a5,a4
     cc2:	fef42623          	sw	a5,-20(s0)
D:\MounRiver\MounRiver_Studio\workspace\Seekfree_CH32V103R8T6_Opensource_Library\obj/../Libraries/wch_libraries/Peripheral/ch32v10x_rcc.c:520
  tmp = tmp >> 11;
     cc6:	fec42783          	lw	a5,-20(s0)
     cca:	83ad                	srli	a5,a5,0xb
     ccc:	fef42623          	sw	a5,-20(s0)
D:\MounRiver\MounRiver_Studio\workspace\Seekfree_CH32V103R8T6_Opensource_Library\obj/../Libraries/wch_libraries/Peripheral/ch32v10x_rcc.c:521
  presc = APBAHBPrescTable[tmp];
     cd0:	200007b7          	lui	a5,0x20000
     cd4:	00078713          	mv	a4,a5
     cd8:	fec42783          	lw	a5,-20(s0)
     cdc:	97ba                	add	a5,a5,a4
     cde:	0007c783          	lbu	a5,0(a5) # 20000000 <_data_vma>
     ce2:	0ff7f793          	andi	a5,a5,255
     ce6:	fef42023          	sw	a5,-32(s0)
D:\MounRiver\MounRiver_Studio\workspace\Seekfree_CH32V103R8T6_Opensource_Library\obj/../Libraries/wch_libraries/Peripheral/ch32v10x_rcc.c:522
  RCC_Clocks->PCLK2_Frequency = RCC_Clocks->HCLK_Frequency >> presc;
     cea:	fdc42783          	lw	a5,-36(s0)
     cee:	43d8                	lw	a4,4(a5)
     cf0:	fe042783          	lw	a5,-32(s0)
     cf4:	00f75733          	srl	a4,a4,a5
     cf8:	fdc42783          	lw	a5,-36(s0)
     cfc:	c7d8                	sw	a4,12(a5)
D:\MounRiver\MounRiver_Studio\workspace\Seekfree_CH32V103R8T6_Opensource_Library\obj/../Libraries/wch_libraries/Peripheral/ch32v10x_rcc.c:523
  tmp = RCC->CFGR0 & CFGR0_ADCPRE_Set_Mask;
     cfe:	400217b7          	lui	a5,0x40021
     d02:	43d8                	lw	a4,4(a5)
     d04:	67b1                	lui	a5,0xc
     d06:	8ff9                	and	a5,a5,a4
     d08:	fef42623          	sw	a5,-20(s0)
D:\MounRiver\MounRiver_Studio\workspace\Seekfree_CH32V103R8T6_Opensource_Library\obj/../Libraries/wch_libraries/Peripheral/ch32v10x_rcc.c:524
  tmp = tmp >> 14;
     d0c:	fec42783          	lw	a5,-20(s0)
     d10:	83b9                	srli	a5,a5,0xe
     d12:	fef42623          	sw	a5,-20(s0)
D:\MounRiver\MounRiver_Studio\workspace\Seekfree_CH32V103R8T6_Opensource_Library\obj/../Libraries/wch_libraries/Peripheral/ch32v10x_rcc.c:525
  presc = ADCPrescTable[tmp];
     d16:	200007b7          	lui	a5,0x20000
     d1a:	06878713          	addi	a4,a5,104 # 20000068 <ADCPrescTable>
     d1e:	fec42783          	lw	a5,-20(s0)
     d22:	97ba                	add	a5,a5,a4
     d24:	0007c783          	lbu	a5,0(a5)
     d28:	0ff7f793          	andi	a5,a5,255
     d2c:	fef42023          	sw	a5,-32(s0)
D:\MounRiver\MounRiver_Studio\workspace\Seekfree_CH32V103R8T6_Opensource_Library\obj/../Libraries/wch_libraries/Peripheral/ch32v10x_rcc.c:526
  RCC_Clocks->ADCCLK_Frequency = RCC_Clocks->PCLK2_Frequency / presc;
     d30:	fdc42783          	lw	a5,-36(s0)
     d34:	47d8                	lw	a4,12(a5)
     d36:	fe042783          	lw	a5,-32(s0)
     d3a:	02f75733          	divu	a4,a4,a5
     d3e:	fdc42783          	lw	a5,-36(s0)
     d42:	cb98                	sw	a4,16(a5)
D:\MounRiver\MounRiver_Studio\workspace\Seekfree_CH32V103R8T6_Opensource_Library\obj/../Libraries/wch_libraries/Peripheral/ch32v10x_rcc.c:527
}
     d44:	0001                	nop
     d46:	5432                	lw	s0,44(sp)
     d48:	6145                	addi	sp,sp,48
     d4a:	8082                	ret

00000d4c <RCC_APB2PeriphClockCmd>:
RCC_APB2PeriphClockCmd():
D:\MounRiver\MounRiver_Studio\workspace\Seekfree_CH32V103R8T6_Opensource_Library\obj/../Libraries/wch_libraries/Peripheral/ch32v10x_rcc.c:570
*                    RCC_APB2Periph_USART1.
*                  NewState: ENABLE or DISABLE
* Return         : None
*******************************************************************************/	
void RCC_APB2PeriphClockCmd(uint32_t RCC_APB2Periph, FunctionalState NewState)
{
     d4c:	1101                	addi	sp,sp,-32
     d4e:	ce22                	sw	s0,28(sp)
     d50:	1000                	addi	s0,sp,32
     d52:	fea42623          	sw	a0,-20(s0)
     d56:	feb42423          	sw	a1,-24(s0)
D:\MounRiver\MounRiver_Studio\workspace\Seekfree_CH32V103R8T6_Opensource_Library\obj/../Libraries/wch_libraries/Peripheral/ch32v10x_rcc.c:571
  if (NewState != DISABLE)
     d5a:	fe842783          	lw	a5,-24(s0)
     d5e:	cb99                	beqz	a5,d74 <RCC_APB2PeriphClockCmd+0x28>
D:\MounRiver\MounRiver_Studio\workspace\Seekfree_CH32V103R8T6_Opensource_Library\obj/../Libraries/wch_libraries/Peripheral/ch32v10x_rcc.c:573
  {
    RCC->APB2PCENR |= RCC_APB2Periph;
     d60:	400217b7          	lui	a5,0x40021
     d64:	4f94                	lw	a3,24(a5)
     d66:	400217b7          	lui	a5,0x40021
     d6a:	fec42703          	lw	a4,-20(s0)
     d6e:	8f55                	or	a4,a4,a3
     d70:	cf98                	sw	a4,24(a5)
D:\MounRiver\MounRiver_Studio\workspace\Seekfree_CH32V103R8T6_Opensource_Library\obj/../Libraries/wch_libraries/Peripheral/ch32v10x_rcc.c:579
  }
  else
  {
    RCC->APB2PCENR &= ~RCC_APB2Periph;
  }
}
     d72:	a821                	j	d8a <RCC_APB2PeriphClockCmd+0x3e>
D:\MounRiver\MounRiver_Studio\workspace\Seekfree_CH32V103R8T6_Opensource_Library\obj/../Libraries/wch_libraries/Peripheral/ch32v10x_rcc.c:577
    RCC->APB2PCENR &= ~RCC_APB2Periph;
     d74:	400217b7          	lui	a5,0x40021
     d78:	4f94                	lw	a3,24(a5)
     d7a:	fec42783          	lw	a5,-20(s0)
     d7e:	fff7c713          	not	a4,a5
     d82:	400217b7          	lui	a5,0x40021
     d86:	8f75                	and	a4,a4,a3
     d88:	cf98                	sw	a4,24(a5)
D:\MounRiver\MounRiver_Studio\workspace\Seekfree_CH32V103R8T6_Opensource_Library\obj/../Libraries/wch_libraries/Peripheral/ch32v10x_rcc.c:579
}
     d8a:	0001                	nop
     d8c:	4472                	lw	s0,28(sp)
     d8e:	6105                	addi	sp,sp,32
     d90:	8082                	ret

00000d92 <RCC_APB1PeriphClockCmd>:
RCC_APB1PeriphClockCmd():
D:\MounRiver\MounRiver_Studio\workspace\Seekfree_CH32V103R8T6_Opensource_Library\obj/../Libraries/wch_libraries/Peripheral/ch32v10x_rcc.c:603
*                    RCC_APB1Periph_DAC.                
*                  NewState: ENABLE or DISABLE.
* Return         : None
*******************************************************************************/	
void RCC_APB1PeriphClockCmd(uint32_t RCC_APB1Periph, FunctionalState NewState)
{
     d92:	1101                	addi	sp,sp,-32
     d94:	ce22                	sw	s0,28(sp)
     d96:	1000                	addi	s0,sp,32
     d98:	fea42623          	sw	a0,-20(s0)
     d9c:	feb42423          	sw	a1,-24(s0)
D:\MounRiver\MounRiver_Studio\workspace\Seekfree_CH32V103R8T6_Opensource_Library\obj/../Libraries/wch_libraries/Peripheral/ch32v10x_rcc.c:604
  if (NewState != DISABLE)
     da0:	fe842783          	lw	a5,-24(s0)
     da4:	cb99                	beqz	a5,dba <RCC_APB1PeriphClockCmd+0x28>
D:\MounRiver\MounRiver_Studio\workspace\Seekfree_CH32V103R8T6_Opensource_Library\obj/../Libraries/wch_libraries/Peripheral/ch32v10x_rcc.c:606
  {
    RCC->APB1PCENR |= RCC_APB1Periph;
     da6:	400217b7          	lui	a5,0x40021
     daa:	4fd4                	lw	a3,28(a5)
     dac:	400217b7          	lui	a5,0x40021
     db0:	fec42703          	lw	a4,-20(s0)
     db4:	8f55                	or	a4,a4,a3
     db6:	cfd8                	sw	a4,28(a5)
D:\MounRiver\MounRiver_Studio\workspace\Seekfree_CH32V103R8T6_Opensource_Library\obj/../Libraries/wch_libraries/Peripheral/ch32v10x_rcc.c:612
  }
  else
  {
    RCC->APB1PCENR &= ~RCC_APB1Periph;
  }
}
     db8:	a821                	j	dd0 <RCC_APB1PeriphClockCmd+0x3e>
D:\MounRiver\MounRiver_Studio\workspace\Seekfree_CH32V103R8T6_Opensource_Library\obj/../Libraries/wch_libraries/Peripheral/ch32v10x_rcc.c:610
    RCC->APB1PCENR &= ~RCC_APB1Periph;
     dba:	400217b7          	lui	a5,0x40021
     dbe:	4fd4                	lw	a3,28(a5)
     dc0:	fec42783          	lw	a5,-20(s0)
     dc4:	fff7c713          	not	a4,a5
     dc8:	400217b7          	lui	a5,0x40021
     dcc:	8f75                	and	a4,a4,a3
     dce:	cfd8                	sw	a4,28(a5)
D:\MounRiver\MounRiver_Studio\workspace\Seekfree_CH32V103R8T6_Opensource_Library\obj/../Libraries/wch_libraries/Peripheral/ch32v10x_rcc.c:612
}
     dd0:	0001                	nop
     dd2:	4472                	lw	s0,28(sp)
     dd4:	6105                	addi	sp,sp,32
     dd6:	8082                	ret

00000dd8 <TIM_GetITStatus>:
TIM_GetITStatus():
D:\MounRiver\MounRiver_Studio\workspace\Seekfree_CH32V103R8T6_Opensource_Library\obj/../Libraries/wch_libraries/Peripheral/ch32v10x_tim.c:1853
*                    TIM_IT_Trigger: TIM Trigger Interrupt source.
*                    TIM_IT_Break: TIM Break Interrupt source.
* Return         : bitstatus: SET or RESET.
*******************************************************************************/
ITStatus TIM_GetITStatus(TIM_TypeDef* TIMx, uint16_t TIM_IT)
{
     dd8:	7179                	addi	sp,sp,-48
     dda:	d622                	sw	s0,44(sp)
     ddc:	1800                	addi	s0,sp,48
     dde:	fca42e23          	sw	a0,-36(s0)
     de2:	87ae                	mv	a5,a1
     de4:	fcf41d23          	sh	a5,-38(s0)
D:\MounRiver\MounRiver_Studio\workspace\Seekfree_CH32V103R8T6_Opensource_Library\obj/../Libraries/wch_libraries/Peripheral/ch32v10x_tim.c:1854
  ITStatus bitstatus = RESET;  
     de8:	fe042623          	sw	zero,-20(s0)
D:\MounRiver\MounRiver_Studio\workspace\Seekfree_CH32V103R8T6_Opensource_Library\obj/../Libraries/wch_libraries/Peripheral/ch32v10x_tim.c:1855
  uint16_t itstatus = 0x0, itenable = 0x0;
     dec:	fe041523          	sh	zero,-22(s0)
     df0:	fe041423          	sh	zero,-24(s0)
D:\MounRiver\MounRiver_Studio\workspace\Seekfree_CH32V103R8T6_Opensource_Library\obj/../Libraries/wch_libraries/Peripheral/ch32v10x_tim.c:1857
   
  itstatus = TIMx->INTFR & TIM_IT;
     df4:	fdc42783          	lw	a5,-36(s0)
     df8:	0107d783          	lhu	a5,16(a5) # 40021010 <_eusrstack+0x2001c010>
     dfc:	01079713          	slli	a4,a5,0x10
     e00:	8341                	srli	a4,a4,0x10
     e02:	fda45783          	lhu	a5,-38(s0)
     e06:	8ff9                	and	a5,a5,a4
     e08:	fef41523          	sh	a5,-22(s0)
D:\MounRiver\MounRiver_Studio\workspace\Seekfree_CH32V103R8T6_Opensource_Library\obj/../Libraries/wch_libraries/Peripheral/ch32v10x_tim.c:1859
  
  itenable = TIMx->DMAINTENR & TIM_IT;
     e0c:	fdc42783          	lw	a5,-36(s0)
     e10:	00c7d783          	lhu	a5,12(a5)
     e14:	01079713          	slli	a4,a5,0x10
     e18:	8341                	srli	a4,a4,0x10
     e1a:	fda45783          	lhu	a5,-38(s0)
     e1e:	8ff9                	and	a5,a5,a4
     e20:	fef41423          	sh	a5,-24(s0)
D:\MounRiver\MounRiver_Studio\workspace\Seekfree_CH32V103R8T6_Opensource_Library\obj/../Libraries/wch_libraries/Peripheral/ch32v10x_tim.c:1860
  if ((itstatus != (uint16_t)RESET) && (itenable != (uint16_t)RESET))
     e24:	fea45783          	lhu	a5,-22(s0)
     e28:	cb81                	beqz	a5,e38 <TIM_GetITStatus+0x60>
D:\MounRiver\MounRiver_Studio\workspace\Seekfree_CH32V103R8T6_Opensource_Library\obj/../Libraries/wch_libraries/Peripheral/ch32v10x_tim.c:1860 (discriminator 1)
     e2a:	fe845783          	lhu	a5,-24(s0)
     e2e:	c789                	beqz	a5,e38 <TIM_GetITStatus+0x60>
D:\MounRiver\MounRiver_Studio\workspace\Seekfree_CH32V103R8T6_Opensource_Library\obj/../Libraries/wch_libraries/Peripheral/ch32v10x_tim.c:1862
  {
    bitstatus = SET;
     e30:	4785                	li	a5,1
     e32:	fef42623          	sw	a5,-20(s0)
     e36:	a019                	j	e3c <TIM_GetITStatus+0x64>
D:\MounRiver\MounRiver_Studio\workspace\Seekfree_CH32V103R8T6_Opensource_Library\obj/../Libraries/wch_libraries/Peripheral/ch32v10x_tim.c:1866
  }
  else
  {
    bitstatus = RESET;
     e38:	fe042623          	sw	zero,-20(s0)
D:\MounRiver\MounRiver_Studio\workspace\Seekfree_CH32V103R8T6_Opensource_Library\obj/../Libraries/wch_libraries/Peripheral/ch32v10x_tim.c:1869
  }
	
  return bitstatus;
     e3c:	fec42783          	lw	a5,-20(s0)
D:\MounRiver\MounRiver_Studio\workspace\Seekfree_CH32V103R8T6_Opensource_Library\obj/../Libraries/wch_libraries/Peripheral/ch32v10x_tim.c:1870
}
     e40:	853e                	mv	a0,a5
     e42:	5432                	lw	s0,44(sp)
     e44:	6145                	addi	sp,sp,48
     e46:	8082                	ret

00000e48 <TIM_ClearITPendingBit>:
TIM_ClearITPendingBit():
D:\MounRiver\MounRiver_Studio\workspace\Seekfree_CH32V103R8T6_Opensource_Library\obj/../Libraries/wch_libraries/Peripheral/ch32v10x_tim.c:1888
*                    TIM_IT_Trigger: TIM Trigger Interrupt source.
*                    TIM_IT_Break: TIM Break Interrupt source.
* Return         : None
*******************************************************************************/
void TIM_ClearITPendingBit(TIM_TypeDef* TIMx, uint16_t TIM_IT)
{
     e48:	1101                	addi	sp,sp,-32
     e4a:	ce22                	sw	s0,28(sp)
     e4c:	1000                	addi	s0,sp,32
     e4e:	fea42623          	sw	a0,-20(s0)
     e52:	87ae                	mv	a5,a1
     e54:	fef41523          	sh	a5,-22(s0)
D:\MounRiver\MounRiver_Studio\workspace\Seekfree_CH32V103R8T6_Opensource_Library\obj/../Libraries/wch_libraries/Peripheral/ch32v10x_tim.c:1889
  TIMx->INTFR = (uint16_t)~TIM_IT;
     e58:	fea45783          	lhu	a5,-22(s0)
     e5c:	fff7c793          	not	a5,a5
     e60:	01079713          	slli	a4,a5,0x10
     e64:	8341                	srli	a4,a4,0x10
     e66:	fec42783          	lw	a5,-20(s0)
     e6a:	00e79823          	sh	a4,16(a5)
D:\MounRiver\MounRiver_Studio\workspace\Seekfree_CH32V103R8T6_Opensource_Library\obj/../Libraries/wch_libraries/Peripheral/ch32v10x_tim.c:1890
}
     e6e:	0001                	nop
     e70:	4472                	lw	s0,28(sp)
     e72:	6105                	addi	sp,sp,32
     e74:	8082                	ret

00000e76 <USART_Init>:
USART_Init():
D:\MounRiver\MounRiver_Studio\workspace\Seekfree_CH32V103R8T6_Opensource_Library\obj/../Libraries/wch_libraries/Peripheral/ch32v10x_usart.c:105
*                  USART_InitStruct: pointer to a USART_InitTypeDef structure
*      that contains the configuration information for the specified USART peripheral. 
* Return         : None
*******************************************************************************/
void USART_Init(USART_TypeDef* USARTx, USART_InitTypeDef* USART_InitStruct)
{
     e76:	715d                	addi	sp,sp,-80
     e78:	c686                	sw	ra,76(sp)
     e7a:	c4a2                	sw	s0,72(sp)
     e7c:	0880                	addi	s0,sp,80
     e7e:	faa42e23          	sw	a0,-68(s0)
     e82:	fab42c23          	sw	a1,-72(s0)
D:\MounRiver\MounRiver_Studio\workspace\Seekfree_CH32V103R8T6_Opensource_Library\obj/../Libraries/wch_libraries/Peripheral/ch32v10x_usart.c:106
  uint32_t tmpreg = 0x00, apbclock = 0x00;
     e86:	fe042623          	sw	zero,-20(s0)
     e8a:	fe042423          	sw	zero,-24(s0)
D:\MounRiver\MounRiver_Studio\workspace\Seekfree_CH32V103R8T6_Opensource_Library\obj/../Libraries/wch_libraries/Peripheral/ch32v10x_usart.c:107
  uint32_t integerdivider = 0x00;
     e8e:	fe042223          	sw	zero,-28(s0)
D:\MounRiver\MounRiver_Studio\workspace\Seekfree_CH32V103R8T6_Opensource_Library\obj/../Libraries/wch_libraries/Peripheral/ch32v10x_usart.c:108
  uint32_t fractionaldivider = 0x00;
     e92:	fe042023          	sw	zero,-32(s0)
D:\MounRiver\MounRiver_Studio\workspace\Seekfree_CH32V103R8T6_Opensource_Library\obj/../Libraries/wch_libraries/Peripheral/ch32v10x_usart.c:109
  uint32_t usartxbase = 0;
     e96:	fc042e23          	sw	zero,-36(s0)
D:\MounRiver\MounRiver_Studio\workspace\Seekfree_CH32V103R8T6_Opensource_Library\obj/../Libraries/wch_libraries/Peripheral/ch32v10x_usart.c:116

  if (USART_InitStruct->USART_HardwareFlowControl != USART_HardwareFlowControl_None)
  {
  }

  usartxbase = (uint32_t)USARTx;
     e9a:	fbc42783          	lw	a5,-68(s0)
     e9e:	fcf42e23          	sw	a5,-36(s0)
D:\MounRiver\MounRiver_Studio\workspace\Seekfree_CH32V103R8T6_Opensource_Library\obj/../Libraries/wch_libraries/Peripheral/ch32v10x_usart.c:117
  tmpreg = USARTx->CTLR2;
     ea2:	fbc42783          	lw	a5,-68(s0)
     ea6:	0107d783          	lhu	a5,16(a5)
     eaa:	07c2                	slli	a5,a5,0x10
     eac:	83c1                	srli	a5,a5,0x10
     eae:	fef42623          	sw	a5,-20(s0)
D:\MounRiver\MounRiver_Studio\workspace\Seekfree_CH32V103R8T6_Opensource_Library\obj/../Libraries/wch_libraries/Peripheral/ch32v10x_usart.c:118
  tmpreg &= CTLR2_STOP_CLEAR_Mask;
     eb2:	fec42703          	lw	a4,-20(s0)
     eb6:	67b5                	lui	a5,0xd
     eb8:	17fd                	addi	a5,a5,-1
     eba:	8ff9                	and	a5,a5,a4
     ebc:	fef42623          	sw	a5,-20(s0)
D:\MounRiver\MounRiver_Studio\workspace\Seekfree_CH32V103R8T6_Opensource_Library\obj/../Libraries/wch_libraries/Peripheral/ch32v10x_usart.c:119
  tmpreg |= (uint32_t)USART_InitStruct->USART_StopBits;  
     ec0:	fb842783          	lw	a5,-72(s0)
     ec4:	0067d783          	lhu	a5,6(a5) # d006 <_data_lma+0xaf1e>
     ec8:	873e                	mv	a4,a5
     eca:	fec42783          	lw	a5,-20(s0)
     ece:	8fd9                	or	a5,a5,a4
     ed0:	fef42623          	sw	a5,-20(s0)
D:\MounRiver\MounRiver_Studio\workspace\Seekfree_CH32V103R8T6_Opensource_Library\obj/../Libraries/wch_libraries/Peripheral/ch32v10x_usart.c:121
	
  USARTx->CTLR2 = (uint16_t)tmpreg;
     ed4:	fec42783          	lw	a5,-20(s0)
     ed8:	01079713          	slli	a4,a5,0x10
     edc:	8341                	srli	a4,a4,0x10
     ede:	fbc42783          	lw	a5,-68(s0)
     ee2:	00e79823          	sh	a4,16(a5)
D:\MounRiver\MounRiver_Studio\workspace\Seekfree_CH32V103R8T6_Opensource_Library\obj/../Libraries/wch_libraries/Peripheral/ch32v10x_usart.c:122
  tmpreg = USARTx->CTLR1;
     ee6:	fbc42783          	lw	a5,-68(s0)
     eea:	00c7d783          	lhu	a5,12(a5)
     eee:	07c2                	slli	a5,a5,0x10
     ef0:	83c1                	srli	a5,a5,0x10
     ef2:	fef42623          	sw	a5,-20(s0)
D:\MounRiver\MounRiver_Studio\workspace\Seekfree_CH32V103R8T6_Opensource_Library\obj/../Libraries/wch_libraries/Peripheral/ch32v10x_usart.c:123
  tmpreg &= CTLR1_CLEAR_Mask;
     ef6:	fec42703          	lw	a4,-20(s0)
     efa:	67bd                	lui	a5,0xf
     efc:	9f378793          	addi	a5,a5,-1549 # e9f3 <_data_lma+0xc90b>
     f00:	8ff9                	and	a5,a5,a4
     f02:	fef42623          	sw	a5,-20(s0)
D:\MounRiver\MounRiver_Studio\workspace\Seekfree_CH32V103R8T6_Opensource_Library\obj/../Libraries/wch_libraries/Peripheral/ch32v10x_usart.c:124
  tmpreg |= (uint32_t)USART_InitStruct->USART_WordLength | USART_InitStruct->USART_Parity |
     f06:	fb842783          	lw	a5,-72(s0)
     f0a:	0047d703          	lhu	a4,4(a5)
     f0e:	fb842783          	lw	a5,-72(s0)
     f12:	0087d783          	lhu	a5,8(a5)
     f16:	8fd9                	or	a5,a5,a4
     f18:	01079713          	slli	a4,a5,0x10
     f1c:	8341                	srli	a4,a4,0x10
D:\MounRiver\MounRiver_Studio\workspace\Seekfree_CH32V103R8T6_Opensource_Library\obj/../Libraries/wch_libraries/Peripheral/ch32v10x_usart.c:125
            USART_InitStruct->USART_Mode;
     f1e:	fb842783          	lw	a5,-72(s0)
     f22:	00a7d783          	lhu	a5,10(a5)
D:\MounRiver\MounRiver_Studio\workspace\Seekfree_CH32V103R8T6_Opensource_Library\obj/../Libraries/wch_libraries/Peripheral/ch32v10x_usart.c:124
  tmpreg |= (uint32_t)USART_InitStruct->USART_WordLength | USART_InitStruct->USART_Parity |
     f26:	8fd9                	or	a5,a5,a4
     f28:	07c2                	slli	a5,a5,0x10
     f2a:	83c1                	srli	a5,a5,0x10
     f2c:	873e                	mv	a4,a5
     f2e:	fec42783          	lw	a5,-20(s0)
     f32:	8fd9                	or	a5,a5,a4
     f34:	fef42623          	sw	a5,-20(s0)
D:\MounRiver\MounRiver_Studio\workspace\Seekfree_CH32V103R8T6_Opensource_Library\obj/../Libraries/wch_libraries/Peripheral/ch32v10x_usart.c:126
  USARTx->CTLR1 = (uint16_t)tmpreg;
     f38:	fec42783          	lw	a5,-20(s0)
     f3c:	01079713          	slli	a4,a5,0x10
     f40:	8341                	srli	a4,a4,0x10
     f42:	fbc42783          	lw	a5,-68(s0)
     f46:	00e79623          	sh	a4,12(a5)
D:\MounRiver\MounRiver_Studio\workspace\Seekfree_CH32V103R8T6_Opensource_Library\obj/../Libraries/wch_libraries/Peripheral/ch32v10x_usart.c:128
 
  tmpreg = USARTx->CTLR3;
     f4a:	fbc42783          	lw	a5,-68(s0)
     f4e:	0147d783          	lhu	a5,20(a5)
     f52:	07c2                	slli	a5,a5,0x10
     f54:	83c1                	srli	a5,a5,0x10
     f56:	fef42623          	sw	a5,-20(s0)
D:\MounRiver\MounRiver_Studio\workspace\Seekfree_CH32V103R8T6_Opensource_Library\obj/../Libraries/wch_libraries/Peripheral/ch32v10x_usart.c:129
  tmpreg &= CTLR3_CLEAR_Mask;
     f5a:	fec42703          	lw	a4,-20(s0)
     f5e:	67c1                	lui	a5,0x10
     f60:	cff78793          	addi	a5,a5,-769 # fcff <_data_lma+0xdc17>
     f64:	8ff9                	and	a5,a5,a4
     f66:	fef42623          	sw	a5,-20(s0)
D:\MounRiver\MounRiver_Studio\workspace\Seekfree_CH32V103R8T6_Opensource_Library\obj/../Libraries/wch_libraries/Peripheral/ch32v10x_usart.c:130
  tmpreg |= USART_InitStruct->USART_HardwareFlowControl;
     f6a:	fb842783          	lw	a5,-72(s0)
     f6e:	00c7d783          	lhu	a5,12(a5)
     f72:	873e                	mv	a4,a5
     f74:	fec42783          	lw	a5,-20(s0)
     f78:	8fd9                	or	a5,a5,a4
     f7a:	fef42623          	sw	a5,-20(s0)
D:\MounRiver\MounRiver_Studio\workspace\Seekfree_CH32V103R8T6_Opensource_Library\obj/../Libraries/wch_libraries/Peripheral/ch32v10x_usart.c:131
  USARTx->CTLR3 = (uint16_t)tmpreg;
     f7e:	fec42783          	lw	a5,-20(s0)
     f82:	01079713          	slli	a4,a5,0x10
     f86:	8341                	srli	a4,a4,0x10
     f88:	fbc42783          	lw	a5,-68(s0)
     f8c:	00e79a23          	sh	a4,20(a5)
D:\MounRiver\MounRiver_Studio\workspace\Seekfree_CH32V103R8T6_Opensource_Library\obj/../Libraries/wch_libraries/Peripheral/ch32v10x_usart.c:133

  RCC_GetClocksFreq(&RCC_ClocksStatus);
     f90:	fc840793          	addi	a5,s0,-56
     f94:	853e                	mv	a0,a5
     f96:	3e71                	jal	b32 <RCC_GetClocksFreq>
D:\MounRiver\MounRiver_Studio\workspace\Seekfree_CH32V103R8T6_Opensource_Library\obj/../Libraries/wch_libraries/Peripheral/ch32v10x_usart.c:135
	
  if (usartxbase == USART1_BASE)
     f98:	fdc42703          	lw	a4,-36(s0)
     f9c:	400147b7          	lui	a5,0x40014
     fa0:	80078793          	addi	a5,a5,-2048 # 40013800 <_eusrstack+0x2000e800>
     fa4:	00f71763          	bne	a4,a5,fb2 <USART_Init+0x13c>
D:\MounRiver\MounRiver_Studio\workspace\Seekfree_CH32V103R8T6_Opensource_Library\obj/../Libraries/wch_libraries/Peripheral/ch32v10x_usart.c:137
  {
    apbclock = RCC_ClocksStatus.PCLK2_Frequency;
     fa8:	fd442783          	lw	a5,-44(s0)
     fac:	fef42423          	sw	a5,-24(s0)
     fb0:	a029                	j	fba <USART_Init+0x144>
D:\MounRiver\MounRiver_Studio\workspace\Seekfree_CH32V103R8T6_Opensource_Library\obj/../Libraries/wch_libraries/Peripheral/ch32v10x_usart.c:141
  }
  else
  {
    apbclock = RCC_ClocksStatus.PCLK1_Frequency;
     fb2:	fd042783          	lw	a5,-48(s0)
     fb6:	fef42423          	sw	a5,-24(s0)
D:\MounRiver\MounRiver_Studio\workspace\Seekfree_CH32V103R8T6_Opensource_Library\obj/../Libraries/wch_libraries/Peripheral/ch32v10x_usart.c:144
  }
  
  if ((USARTx->CTLR1 & CTLR1_OVER8_Set) != 0)
     fba:	fbc42783          	lw	a5,-68(s0)
     fbe:	00c7d783          	lhu	a5,12(a5)
     fc2:	07c2                	slli	a5,a5,0x10
     fc4:	83c1                	srli	a5,a5,0x10
     fc6:	07c2                	slli	a5,a5,0x10
     fc8:	87c1                	srai	a5,a5,0x10
     fca:	0207d263          	bgez	a5,fee <USART_Init+0x178>
D:\MounRiver\MounRiver_Studio\workspace\Seekfree_CH32V103R8T6_Opensource_Library\obj/../Libraries/wch_libraries/Peripheral/ch32v10x_usart.c:146
  {
    integerdivider = ((25 * apbclock) / (2 * (USART_InitStruct->USART_BaudRate)));    
     fce:	fe842703          	lw	a4,-24(s0)
     fd2:	87ba                	mv	a5,a4
     fd4:	0786                	slli	a5,a5,0x1
     fd6:	97ba                	add	a5,a5,a4
     fd8:	078e                	slli	a5,a5,0x3
     fda:	973e                	add	a4,a4,a5
     fdc:	fb842783          	lw	a5,-72(s0)
     fe0:	439c                	lw	a5,0(a5)
     fe2:	0786                	slli	a5,a5,0x1
     fe4:	02f757b3          	divu	a5,a4,a5
     fe8:	fef42223          	sw	a5,-28(s0)
     fec:	a005                	j	100c <USART_Init+0x196>
D:\MounRiver\MounRiver_Studio\workspace\Seekfree_CH32V103R8T6_Opensource_Library\obj/../Libraries/wch_libraries/Peripheral/ch32v10x_usart.c:150
  }
  else 
  {
    integerdivider = ((25 * apbclock) / (4 * (USART_InitStruct->USART_BaudRate)));    
     fee:	fe842703          	lw	a4,-24(s0)
     ff2:	87ba                	mv	a5,a4
     ff4:	0786                	slli	a5,a5,0x1
     ff6:	97ba                	add	a5,a5,a4
     ff8:	078e                	slli	a5,a5,0x3
     ffa:	973e                	add	a4,a4,a5
     ffc:	fb842783          	lw	a5,-72(s0)
    1000:	439c                	lw	a5,0(a5)
    1002:	078a                	slli	a5,a5,0x2
    1004:	02f757b3          	divu	a5,a4,a5
    1008:	fef42223          	sw	a5,-28(s0)
D:\MounRiver\MounRiver_Studio\workspace\Seekfree_CH32V103R8T6_Opensource_Library\obj/../Libraries/wch_libraries/Peripheral/ch32v10x_usart.c:152
  }
  tmpreg = (integerdivider / 100) << 4;
    100c:	fe442703          	lw	a4,-28(s0)
    1010:	06400793          	li	a5,100
    1014:	02f757b3          	divu	a5,a4,a5
    1018:	0792                	slli	a5,a5,0x4
    101a:	fef42623          	sw	a5,-20(s0)
D:\MounRiver\MounRiver_Studio\workspace\Seekfree_CH32V103R8T6_Opensource_Library\obj/../Libraries/wch_libraries/Peripheral/ch32v10x_usart.c:154

  fractionaldivider = integerdivider - (100 * (tmpreg >> 4));
    101e:	fec42783          	lw	a5,-20(s0)
    1022:	0047d713          	srli	a4,a5,0x4
    1026:	06400793          	li	a5,100
    102a:	02f707b3          	mul	a5,a4,a5
    102e:	fe442703          	lw	a4,-28(s0)
    1032:	40f707b3          	sub	a5,a4,a5
    1036:	fef42023          	sw	a5,-32(s0)
D:\MounRiver\MounRiver_Studio\workspace\Seekfree_CH32V103R8T6_Opensource_Library\obj/../Libraries/wch_libraries/Peripheral/ch32v10x_usart.c:156

  if ((USARTx->CTLR1 & CTLR1_OVER8_Set) != 0)
    103a:	fbc42783          	lw	a5,-68(s0)
    103e:	00c7d783          	lhu	a5,12(a5)
    1042:	07c2                	slli	a5,a5,0x10
    1044:	83c1                	srli	a5,a5,0x10
    1046:	07c2                	slli	a5,a5,0x10
    1048:	87c1                	srai	a5,a5,0x10
    104a:	0207d263          	bgez	a5,106e <USART_Init+0x1f8>
D:\MounRiver\MounRiver_Studio\workspace\Seekfree_CH32V103R8T6_Opensource_Library\obj/../Libraries/wch_libraries/Peripheral/ch32v10x_usart.c:158
  {
    tmpreg |= ((((fractionaldivider * 8) + 50) / 100)) & ((uint8_t)0x07);
    104e:	fe042783          	lw	a5,-32(s0)
    1052:	078e                	slli	a5,a5,0x3
    1054:	03278713          	addi	a4,a5,50
    1058:	06400793          	li	a5,100
    105c:	02f757b3          	divu	a5,a4,a5
    1060:	8b9d                	andi	a5,a5,7
    1062:	fec42703          	lw	a4,-20(s0)
    1066:	8fd9                	or	a5,a5,a4
    1068:	fef42623          	sw	a5,-20(s0)
    106c:	a005                	j	108c <USART_Init+0x216>
D:\MounRiver\MounRiver_Studio\workspace\Seekfree_CH32V103R8T6_Opensource_Library\obj/../Libraries/wch_libraries/Peripheral/ch32v10x_usart.c:162
  }
  else 
  {
    tmpreg |= ((((fractionaldivider * 16) + 50) / 100)) & ((uint8_t)0x0F);
    106e:	fe042783          	lw	a5,-32(s0)
    1072:	0792                	slli	a5,a5,0x4
    1074:	03278713          	addi	a4,a5,50
    1078:	06400793          	li	a5,100
    107c:	02f757b3          	divu	a5,a4,a5
    1080:	8bbd                	andi	a5,a5,15
    1082:	fec42703          	lw	a4,-20(s0)
    1086:	8fd9                	or	a5,a5,a4
    1088:	fef42623          	sw	a5,-20(s0)
D:\MounRiver\MounRiver_Studio\workspace\Seekfree_CH32V103R8T6_Opensource_Library\obj/../Libraries/wch_libraries/Peripheral/ch32v10x_usart.c:165
  }
  
  USARTx->BRR = (uint16_t)tmpreg;
    108c:	fec42783          	lw	a5,-20(s0)
    1090:	01079713          	slli	a4,a5,0x10
    1094:	8341                	srli	a4,a4,0x10
    1096:	fbc42783          	lw	a5,-68(s0)
    109a:	00e79423          	sh	a4,8(a5)
D:\MounRiver\MounRiver_Studio\workspace\Seekfree_CH32V103R8T6_Opensource_Library\obj/../Libraries/wch_libraries/Peripheral/ch32v10x_usart.c:166
}
    109e:	0001                	nop
    10a0:	40b6                	lw	ra,76(sp)
    10a2:	4426                	lw	s0,72(sp)
    10a4:	6161                	addi	sp,sp,80
    10a6:	8082                	ret

000010a8 <USART_Cmd>:
USART_Cmd():
D:\MounRiver\MounRiver_Studio\workspace\Seekfree_CH32V103R8T6_Opensource_Library\obj/../Libraries/wch_libraries/Peripheral/ch32v10x_usart.c:229
* Input          : USARTx: where x can be 1, 2, 3 to select the USART peripheral.
*                  NewState: ENABLE or DISABLE.
* Return         : None
*******************************************************************************/
void USART_Cmd(USART_TypeDef* USARTx, FunctionalState NewState)
{
    10a8:	1101                	addi	sp,sp,-32
    10aa:	ce22                	sw	s0,28(sp)
    10ac:	1000                	addi	s0,sp,32
    10ae:	fea42623          	sw	a0,-20(s0)
    10b2:	feb42423          	sw	a1,-24(s0)
D:\MounRiver\MounRiver_Studio\workspace\Seekfree_CH32V103R8T6_Opensource_Library\obj/../Libraries/wch_libraries/Peripheral/ch32v10x_usart.c:230
  if (NewState != DISABLE)
    10b6:	fe842783          	lw	a5,-24(s0)
    10ba:	c395                	beqz	a5,10de <USART_Cmd+0x36>
D:\MounRiver\MounRiver_Studio\workspace\Seekfree_CH32V103R8T6_Opensource_Library\obj/../Libraries/wch_libraries/Peripheral/ch32v10x_usart.c:232
  {
    USARTx->CTLR1 |= CTLR1_UE_Set;
    10bc:	fec42783          	lw	a5,-20(s0)
    10c0:	00c7d783          	lhu	a5,12(a5)
    10c4:	01079713          	slli	a4,a5,0x10
    10c8:	8341                	srli	a4,a4,0x10
    10ca:	6789                	lui	a5,0x2
    10cc:	8fd9                	or	a5,a5,a4
    10ce:	01079713          	slli	a4,a5,0x10
    10d2:	8341                	srli	a4,a4,0x10
    10d4:	fec42783          	lw	a5,-20(s0)
    10d8:	00e79623          	sh	a4,12(a5) # 200c <USART1_IRQHandler+0x92>
D:\MounRiver\MounRiver_Studio\workspace\Seekfree_CH32V103R8T6_Opensource_Library\obj/../Libraries/wch_libraries/Peripheral/ch32v10x_usart.c:238
  }
  else
  {
    USARTx->CTLR1 &= CTLR1_UE_Reset;
  }
}
    10dc:	a015                	j	1100 <USART_Cmd+0x58>
D:\MounRiver\MounRiver_Studio\workspace\Seekfree_CH32V103R8T6_Opensource_Library\obj/../Libraries/wch_libraries/Peripheral/ch32v10x_usart.c:236
    USARTx->CTLR1 &= CTLR1_UE_Reset;
    10de:	fec42783          	lw	a5,-20(s0)
    10e2:	00c7d783          	lhu	a5,12(a5)
    10e6:	01079713          	slli	a4,a5,0x10
    10ea:	8341                	srli	a4,a4,0x10
    10ec:	77f9                	lui	a5,0xffffe
    10ee:	17fd                	addi	a5,a5,-1
    10f0:	8ff9                	and	a5,a5,a4
    10f2:	01079713          	slli	a4,a5,0x10
    10f6:	8341                	srli	a4,a4,0x10
    10f8:	fec42783          	lw	a5,-20(s0)
    10fc:	00e79623          	sh	a4,12(a5) # ffffe00c <_eusrstack+0xdfff900c>
D:\MounRiver\MounRiver_Studio\workspace\Seekfree_CH32V103R8T6_Opensource_Library\obj/../Libraries/wch_libraries/Peripheral/ch32v10x_usart.c:238
}
    1100:	0001                	nop
    1102:	4472                	lw	s0,28(sp)
    1104:	6105                	addi	sp,sp,32
    1106:	8082                	ret

00001108 <USART_ITConfig>:
USART_ITConfig():
D:\MounRiver\MounRiver_Studio\workspace\Seekfree_CH32V103R8T6_Opensource_Library\obj/../Libraries/wch_libraries/Peripheral/ch32v10x_usart.c:257
*                    USART_IT_ERR:  Error interrupt.
*                  NewState: ENABLE or DISABLE.
* Return         : None
*******************************************************************************/
void USART_ITConfig(USART_TypeDef* USARTx, uint16_t USART_IT, FunctionalState NewState)
{
    1108:	7179                	addi	sp,sp,-48
    110a:	d622                	sw	s0,44(sp)
    110c:	1800                	addi	s0,sp,48
    110e:	fca42e23          	sw	a0,-36(s0)
    1112:	87ae                	mv	a5,a1
    1114:	fcc42a23          	sw	a2,-44(s0)
    1118:	fcf41d23          	sh	a5,-38(s0)
D:\MounRiver\MounRiver_Studio\workspace\Seekfree_CH32V103R8T6_Opensource_Library\obj/../Libraries/wch_libraries/Peripheral/ch32v10x_usart.c:258
  uint32_t usartreg = 0x00, itpos = 0x00, itmask = 0x00;
    111c:	fe042423          	sw	zero,-24(s0)
    1120:	fe042223          	sw	zero,-28(s0)
    1124:	fe042023          	sw	zero,-32(s0)
D:\MounRiver\MounRiver_Studio\workspace\Seekfree_CH32V103R8T6_Opensource_Library\obj/../Libraries/wch_libraries/Peripheral/ch32v10x_usart.c:259
  uint32_t usartxbase = 0x00;
    1128:	fe042623          	sw	zero,-20(s0)
D:\MounRiver\MounRiver_Studio\workspace\Seekfree_CH32V103R8T6_Opensource_Library\obj/../Libraries/wch_libraries/Peripheral/ch32v10x_usart.c:265

  if (USART_IT == USART_IT_CTS)
  {
  }   
  
  usartxbase = (uint32_t)USARTx;
    112c:	fdc42783          	lw	a5,-36(s0)
    1130:	fef42623          	sw	a5,-20(s0)
D:\MounRiver\MounRiver_Studio\workspace\Seekfree_CH32V103R8T6_Opensource_Library\obj/../Libraries/wch_libraries/Peripheral/ch32v10x_usart.c:266
  usartreg = (((uint8_t)USART_IT) >> 0x05);
    1134:	fda45783          	lhu	a5,-38(s0)
    1138:	0ff7f793          	andi	a5,a5,255
    113c:	8395                	srli	a5,a5,0x5
    113e:	0ff7f793          	andi	a5,a5,255
    1142:	fef42423          	sw	a5,-24(s0)
D:\MounRiver\MounRiver_Studio\workspace\Seekfree_CH32V103R8T6_Opensource_Library\obj/../Libraries/wch_libraries/Peripheral/ch32v10x_usart.c:267
  itpos = USART_IT & IT_Mask;
    1146:	fda45783          	lhu	a5,-38(s0)
    114a:	8bfd                	andi	a5,a5,31
    114c:	fef42223          	sw	a5,-28(s0)
D:\MounRiver\MounRiver_Studio\workspace\Seekfree_CH32V103R8T6_Opensource_Library\obj/../Libraries/wch_libraries/Peripheral/ch32v10x_usart.c:268
  itmask = (((uint32_t)0x01) << itpos);
    1150:	fe442783          	lw	a5,-28(s0)
    1154:	4705                	li	a4,1
    1156:	00f717b3          	sll	a5,a4,a5
    115a:	fef42023          	sw	a5,-32(s0)
D:\MounRiver\MounRiver_Studio\workspace\Seekfree_CH32V103R8T6_Opensource_Library\obj/../Libraries/wch_libraries/Peripheral/ch32v10x_usart.c:270
    
  if (usartreg == 0x01) 
    115e:	fe842703          	lw	a4,-24(s0)
    1162:	4785                	li	a5,1
    1164:	00f71863          	bne	a4,a5,1174 <USART_ITConfig+0x6c>
D:\MounRiver\MounRiver_Studio\workspace\Seekfree_CH32V103R8T6_Opensource_Library\obj/../Libraries/wch_libraries/Peripheral/ch32v10x_usart.c:272
  {
    usartxbase += 0x0C;
    1168:	fec42783          	lw	a5,-20(s0)
    116c:	07b1                	addi	a5,a5,12
    116e:	fef42623          	sw	a5,-20(s0)
    1172:	a00d                	j	1194 <USART_ITConfig+0x8c>
D:\MounRiver\MounRiver_Studio\workspace\Seekfree_CH32V103R8T6_Opensource_Library\obj/../Libraries/wch_libraries/Peripheral/ch32v10x_usart.c:274
  }
  else if (usartreg == 0x02) 
    1174:	fe842703          	lw	a4,-24(s0)
    1178:	4789                	li	a5,2
    117a:	00f71863          	bne	a4,a5,118a <USART_ITConfig+0x82>
D:\MounRiver\MounRiver_Studio\workspace\Seekfree_CH32V103R8T6_Opensource_Library\obj/../Libraries/wch_libraries/Peripheral/ch32v10x_usart.c:276
  {
    usartxbase += 0x10;
    117e:	fec42783          	lw	a5,-20(s0)
    1182:	07c1                	addi	a5,a5,16
    1184:	fef42623          	sw	a5,-20(s0)
    1188:	a031                	j	1194 <USART_ITConfig+0x8c>
D:\MounRiver\MounRiver_Studio\workspace\Seekfree_CH32V103R8T6_Opensource_Library\obj/../Libraries/wch_libraries/Peripheral/ch32v10x_usart.c:280
  }
  else 
  {
    usartxbase += 0x14; 
    118a:	fec42783          	lw	a5,-20(s0)
    118e:	07d1                	addi	a5,a5,20
    1190:	fef42623          	sw	a5,-20(s0)
D:\MounRiver\MounRiver_Studio\workspace\Seekfree_CH32V103R8T6_Opensource_Library\obj/../Libraries/wch_libraries/Peripheral/ch32v10x_usart.c:283
  }
	
  if (NewState != DISABLE)
    1194:	fd442783          	lw	a5,-44(s0)
    1198:	cb99                	beqz	a5,11ae <USART_ITConfig+0xa6>
D:\MounRiver\MounRiver_Studio\workspace\Seekfree_CH32V103R8T6_Opensource_Library\obj/../Libraries/wch_libraries/Peripheral/ch32v10x_usart.c:285
  {
    *(__IO uint32_t*)usartxbase  |= itmask;
    119a:	fec42783          	lw	a5,-20(s0)
    119e:	4394                	lw	a3,0(a5)
    11a0:	fec42783          	lw	a5,-20(s0)
    11a4:	fe042703          	lw	a4,-32(s0)
    11a8:	8f55                	or	a4,a4,a3
    11aa:	c398                	sw	a4,0(a5)
D:\MounRiver\MounRiver_Studio\workspace\Seekfree_CH32V103R8T6_Opensource_Library\obj/../Libraries/wch_libraries/Peripheral/ch32v10x_usart.c:291
  }
  else
  {
    *(__IO uint32_t*)usartxbase &= ~itmask;
  }
}
    11ac:	a821                	j	11c4 <USART_ITConfig+0xbc>
D:\MounRiver\MounRiver_Studio\workspace\Seekfree_CH32V103R8T6_Opensource_Library\obj/../Libraries/wch_libraries/Peripheral/ch32v10x_usart.c:289
    *(__IO uint32_t*)usartxbase &= ~itmask;
    11ae:	fec42783          	lw	a5,-20(s0)
    11b2:	4394                	lw	a3,0(a5)
    11b4:	fe042783          	lw	a5,-32(s0)
    11b8:	fff7c713          	not	a4,a5
    11bc:	fec42783          	lw	a5,-20(s0)
    11c0:	8f75                	and	a4,a4,a3
    11c2:	c398                	sw	a4,0(a5)
D:\MounRiver\MounRiver_Studio\workspace\Seekfree_CH32V103R8T6_Opensource_Library\obj/../Libraries/wch_libraries/Peripheral/ch32v10x_usart.c:291
}
    11c4:	0001                	nop
    11c6:	5432                	lw	s0,44(sp)
    11c8:	6145                	addi	sp,sp,48
    11ca:	8082                	ret

000011cc <USART_ReceiveData>:
USART_ReceiveData():
D:\MounRiver\MounRiver_Studio\workspace\Seekfree_CH32V103R8T6_Opensource_Library\obj/../Libraries/wch_libraries/Peripheral/ch32v10x_usart.c:415
* Description    : Returns the most recent received data by the USARTx peripheral.
* Input          : USARTx: where x can be 1, 2, 3 to select the USART peripheral.
* Return         : The received data.
*******************************************************************************/
uint16_t USART_ReceiveData(USART_TypeDef* USARTx)
{
    11cc:	1101                	addi	sp,sp,-32
    11ce:	ce22                	sw	s0,28(sp)
    11d0:	1000                	addi	s0,sp,32
    11d2:	fea42623          	sw	a0,-20(s0)
D:\MounRiver\MounRiver_Studio\workspace\Seekfree_CH32V103R8T6_Opensource_Library\obj/../Libraries/wch_libraries/Peripheral/ch32v10x_usart.c:416
  return (uint16_t)(USARTx->DATAR & (uint16_t)0x01FF);
    11d6:	fec42783          	lw	a5,-20(s0)
    11da:	0047d783          	lhu	a5,4(a5)
    11de:	07c2                	slli	a5,a5,0x10
    11e0:	83c1                	srli	a5,a5,0x10
    11e2:	1ff7f793          	andi	a5,a5,511
    11e6:	07c2                	slli	a5,a5,0x10
    11e8:	83c1                	srli	a5,a5,0x10
D:\MounRiver\MounRiver_Studio\workspace\Seekfree_CH32V103R8T6_Opensource_Library\obj/../Libraries/wch_libraries/Peripheral/ch32v10x_usart.c:417
}
    11ea:	853e                	mv	a0,a5
    11ec:	4472                	lw	s0,28(sp)
    11ee:	6105                	addi	sp,sp,32
    11f0:	8082                	ret

000011f2 <USART_GetITStatus>:
USART_GetITStatus():
D:\MounRiver\MounRiver_Studio\workspace\Seekfree_CH32V103R8T6_Opensource_Library\obj/../Libraries/wch_libraries/Peripheral/ch32v10x_usart.c:660
*                    USART_IT_FE: Framing Error interrupt.
*                    USART_IT_PE: Parity Error interrupt.
* Return         : bitstatus: SET or RESET.
*******************************************************************************/
ITStatus USART_GetITStatus(USART_TypeDef* USARTx, uint16_t USART_IT)
{
    11f2:	7179                	addi	sp,sp,-48
    11f4:	d622                	sw	s0,44(sp)
    11f6:	1800                	addi	s0,sp,48
    11f8:	fca42e23          	sw	a0,-36(s0)
    11fc:	87ae                	mv	a5,a1
    11fe:	fcf41d23          	sh	a5,-38(s0)
D:\MounRiver\MounRiver_Studio\workspace\Seekfree_CH32V103R8T6_Opensource_Library\obj/../Libraries/wch_libraries/Peripheral/ch32v10x_usart.c:661
  uint32_t bitpos = 0x00, itmask = 0x00, usartreg = 0x00;
    1202:	fe042223          	sw	zero,-28(s0)
    1206:	fe042623          	sw	zero,-20(s0)
    120a:	fe042023          	sw	zero,-32(s0)
D:\MounRiver\MounRiver_Studio\workspace\Seekfree_CH32V103R8T6_Opensource_Library\obj/../Libraries/wch_libraries/Peripheral/ch32v10x_usart.c:662
  ITStatus bitstatus = RESET;
    120e:	fe042423          	sw	zero,-24(s0)
D:\MounRiver\MounRiver_Studio\workspace\Seekfree_CH32V103R8T6_Opensource_Library\obj/../Libraries/wch_libraries/Peripheral/ch32v10x_usart.c:668

  if (USART_IT == USART_IT_CTS)
  {
  }   
  
  usartreg = (((uint8_t)USART_IT) >> 0x05);
    1212:	fda45783          	lhu	a5,-38(s0)
    1216:	0ff7f793          	andi	a5,a5,255
    121a:	8395                	srli	a5,a5,0x5
    121c:	0ff7f793          	andi	a5,a5,255
    1220:	fef42023          	sw	a5,-32(s0)
D:\MounRiver\MounRiver_Studio\workspace\Seekfree_CH32V103R8T6_Opensource_Library\obj/../Libraries/wch_libraries/Peripheral/ch32v10x_usart.c:669
  itmask = USART_IT & IT_Mask;
    1224:	fda45783          	lhu	a5,-38(s0)
    1228:	8bfd                	andi	a5,a5,31
    122a:	fef42623          	sw	a5,-20(s0)
D:\MounRiver\MounRiver_Studio\workspace\Seekfree_CH32V103R8T6_Opensource_Library\obj/../Libraries/wch_libraries/Peripheral/ch32v10x_usart.c:670
  itmask = (uint32_t)0x01 << itmask;
    122e:	fec42783          	lw	a5,-20(s0)
    1232:	4705                	li	a4,1
    1234:	00f717b3          	sll	a5,a4,a5
    1238:	fef42623          	sw	a5,-20(s0)
D:\MounRiver\MounRiver_Studio\workspace\Seekfree_CH32V103R8T6_Opensource_Library\obj/../Libraries/wch_libraries/Peripheral/ch32v10x_usart.c:672
  
  if (usartreg == 0x01) 
    123c:	fe042703          	lw	a4,-32(s0)
    1240:	4785                	li	a5,1
    1242:	00f71f63          	bne	a4,a5,1260 <USART_GetITStatus+0x6e>
D:\MounRiver\MounRiver_Studio\workspace\Seekfree_CH32V103R8T6_Opensource_Library\obj/../Libraries/wch_libraries/Peripheral/ch32v10x_usart.c:674
  {
    itmask &= USARTx->CTLR1;
    1246:	fdc42783          	lw	a5,-36(s0)
    124a:	00c7d783          	lhu	a5,12(a5)
    124e:	07c2                	slli	a5,a5,0x10
    1250:	83c1                	srli	a5,a5,0x10
    1252:	873e                	mv	a4,a5
    1254:	fec42783          	lw	a5,-20(s0)
    1258:	8ff9                	and	a5,a5,a4
    125a:	fef42623          	sw	a5,-20(s0)
    125e:	a83d                	j	129c <USART_GetITStatus+0xaa>
D:\MounRiver\MounRiver_Studio\workspace\Seekfree_CH32V103R8T6_Opensource_Library\obj/../Libraries/wch_libraries/Peripheral/ch32v10x_usart.c:676
  }
  else if (usartreg == 0x02) 
    1260:	fe042703          	lw	a4,-32(s0)
    1264:	4789                	li	a5,2
    1266:	00f71f63          	bne	a4,a5,1284 <USART_GetITStatus+0x92>
D:\MounRiver\MounRiver_Studio\workspace\Seekfree_CH32V103R8T6_Opensource_Library\obj/../Libraries/wch_libraries/Peripheral/ch32v10x_usart.c:678
  {
    itmask &= USARTx->CTLR2;
    126a:	fdc42783          	lw	a5,-36(s0)
    126e:	0107d783          	lhu	a5,16(a5)
    1272:	07c2                	slli	a5,a5,0x10
    1274:	83c1                	srli	a5,a5,0x10
    1276:	873e                	mv	a4,a5
    1278:	fec42783          	lw	a5,-20(s0)
    127c:	8ff9                	and	a5,a5,a4
    127e:	fef42623          	sw	a5,-20(s0)
    1282:	a829                	j	129c <USART_GetITStatus+0xaa>
D:\MounRiver\MounRiver_Studio\workspace\Seekfree_CH32V103R8T6_Opensource_Library\obj/../Libraries/wch_libraries/Peripheral/ch32v10x_usart.c:682
  }
  else 
  {
    itmask &= USARTx->CTLR3;
    1284:	fdc42783          	lw	a5,-36(s0)
    1288:	0147d783          	lhu	a5,20(a5)
    128c:	07c2                	slli	a5,a5,0x10
    128e:	83c1                	srli	a5,a5,0x10
    1290:	873e                	mv	a4,a5
    1292:	fec42783          	lw	a5,-20(s0)
    1296:	8ff9                	and	a5,a5,a4
    1298:	fef42623          	sw	a5,-20(s0)
D:\MounRiver\MounRiver_Studio\workspace\Seekfree_CH32V103R8T6_Opensource_Library\obj/../Libraries/wch_libraries/Peripheral/ch32v10x_usart.c:685
  }
  
  bitpos = USART_IT >> 0x08;
    129c:	fda45783          	lhu	a5,-38(s0)
    12a0:	83a1                	srli	a5,a5,0x8
    12a2:	07c2                	slli	a5,a5,0x10
    12a4:	83c1                	srli	a5,a5,0x10
    12a6:	fef42223          	sw	a5,-28(s0)
D:\MounRiver\MounRiver_Studio\workspace\Seekfree_CH32V103R8T6_Opensource_Library\obj/../Libraries/wch_libraries/Peripheral/ch32v10x_usart.c:686
  bitpos = (uint32_t)0x01 << bitpos;
    12aa:	fe442783          	lw	a5,-28(s0)
    12ae:	4705                	li	a4,1
    12b0:	00f717b3          	sll	a5,a4,a5
    12b4:	fef42223          	sw	a5,-28(s0)
D:\MounRiver\MounRiver_Studio\workspace\Seekfree_CH32V103R8T6_Opensource_Library\obj/../Libraries/wch_libraries/Peripheral/ch32v10x_usart.c:687
  bitpos &= USARTx->STATR;
    12b8:	fdc42783          	lw	a5,-36(s0)
    12bc:	0007d783          	lhu	a5,0(a5)
    12c0:	07c2                	slli	a5,a5,0x10
    12c2:	83c1                	srli	a5,a5,0x10
    12c4:	873e                	mv	a4,a5
    12c6:	fe442783          	lw	a5,-28(s0)
    12ca:	8ff9                	and	a5,a5,a4
    12cc:	fef42223          	sw	a5,-28(s0)
D:\MounRiver\MounRiver_Studio\workspace\Seekfree_CH32V103R8T6_Opensource_Library\obj/../Libraries/wch_libraries/Peripheral/ch32v10x_usart.c:689
	
  if ((itmask != (uint16_t)RESET)&&(bitpos != (uint16_t)RESET))
    12d0:	fec42783          	lw	a5,-20(s0)
    12d4:	cb81                	beqz	a5,12e4 <USART_GetITStatus+0xf2>
D:\MounRiver\MounRiver_Studio\workspace\Seekfree_CH32V103R8T6_Opensource_Library\obj/../Libraries/wch_libraries/Peripheral/ch32v10x_usart.c:689 (discriminator 1)
    12d6:	fe442783          	lw	a5,-28(s0)
    12da:	c789                	beqz	a5,12e4 <USART_GetITStatus+0xf2>
D:\MounRiver\MounRiver_Studio\workspace\Seekfree_CH32V103R8T6_Opensource_Library\obj/../Libraries/wch_libraries/Peripheral/ch32v10x_usart.c:691
  {
    bitstatus = SET;
    12dc:	4785                	li	a5,1
    12de:	fef42423          	sw	a5,-24(s0)
    12e2:	a019                	j	12e8 <USART_GetITStatus+0xf6>
D:\MounRiver\MounRiver_Studio\workspace\Seekfree_CH32V103R8T6_Opensource_Library\obj/../Libraries/wch_libraries/Peripheral/ch32v10x_usart.c:695
  }
  else
  {
    bitstatus = RESET;
    12e4:	fe042423          	sw	zero,-24(s0)
D:\MounRiver\MounRiver_Studio\workspace\Seekfree_CH32V103R8T6_Opensource_Library\obj/../Libraries/wch_libraries/Peripheral/ch32v10x_usart.c:698
  }
  
  return bitstatus;  
    12e8:	fe842783          	lw	a5,-24(s0)
D:\MounRiver\MounRiver_Studio\workspace\Seekfree_CH32V103R8T6_Opensource_Library\obj/../Libraries/wch_libraries/Peripheral/ch32v10x_usart.c:699
}
    12ec:	853e                	mv	a0,a5
    12ee:	5432                	lw	s0,44(sp)
    12f0:	6145                	addi	sp,sp,48
    12f2:	8082                	ret

000012f4 <USART_ClearITPendingBit>:
USART_ClearITPendingBit():
D:\MounRiver\MounRiver_Studio\workspace\Seekfree_CH32V103R8T6_Opensource_Library\obj/../Libraries/wch_libraries/Peripheral/ch32v10x_usart.c:713
*                    USART_IT_TC:   Transmission complete interrupt.
*                    USART_IT_RXNE: Receive Data register not empty interrupt.
* Return         : None
*******************************************************************************/
void USART_ClearITPendingBit(USART_TypeDef* USARTx, uint16_t USART_IT)
{
    12f4:	7179                	addi	sp,sp,-48
    12f6:	d622                	sw	s0,44(sp)
    12f8:	1800                	addi	s0,sp,48
    12fa:	fca42e23          	sw	a0,-36(s0)
    12fe:	87ae                	mv	a5,a1
    1300:	fcf41d23          	sh	a5,-38(s0)
D:\MounRiver\MounRiver_Studio\workspace\Seekfree_CH32V103R8T6_Opensource_Library\obj/../Libraries/wch_libraries/Peripheral/ch32v10x_usart.c:714
  uint16_t bitpos = 0x00, itmask = 0x00;
    1304:	fe041723          	sh	zero,-18(s0)
    1308:	fe041623          	sh	zero,-20(s0)
D:\MounRiver\MounRiver_Studio\workspace\Seekfree_CH32V103R8T6_Opensource_Library\obj/../Libraries/wch_libraries/Peripheral/ch32v10x_usart.c:720

  if (USART_IT == USART_IT_CTS)
  {
  }   
  
  bitpos = USART_IT >> 0x08;
    130c:	fda45783          	lhu	a5,-38(s0)
    1310:	83a1                	srli	a5,a5,0x8
    1312:	fef41723          	sh	a5,-18(s0)
D:\MounRiver\MounRiver_Studio\workspace\Seekfree_CH32V103R8T6_Opensource_Library\obj/../Libraries/wch_libraries/Peripheral/ch32v10x_usart.c:721
  itmask = ((uint16_t)0x01 << (uint16_t)bitpos);
    1316:	fee45783          	lhu	a5,-18(s0)
    131a:	4705                	li	a4,1
    131c:	00f717b3          	sll	a5,a4,a5
    1320:	fef41623          	sh	a5,-20(s0)
D:\MounRiver\MounRiver_Studio\workspace\Seekfree_CH32V103R8T6_Opensource_Library\obj/../Libraries/wch_libraries/Peripheral/ch32v10x_usart.c:722
  USARTx->STATR = (uint16_t)~itmask;
    1324:	fec45783          	lhu	a5,-20(s0)
    1328:	fff7c793          	not	a5,a5
    132c:	01079713          	slli	a4,a5,0x10
    1330:	8341                	srli	a4,a4,0x10
    1332:	fdc42783          	lw	a5,-36(s0)
    1336:	00e79023          	sh	a4,0(a5)
D:\MounRiver\MounRiver_Studio\workspace\Seekfree_CH32V103R8T6_Opensource_Library\obj/../Libraries/wch_libraries/Peripheral/ch32v10x_usart.c:723
}
    133a:	0001                	nop
    133c:	5432                	lw	s0,44(sp)
    133e:	6145                	addi	sp,sp,48
    1340:	8082                	ret

00001342 <mt9v03x_uart_callback>:
mt9v03x_uart_callback():
D:\MounRiver\MounRiver_Studio\workspace\Seekfree_CH32V103R8T6_Opensource_Library\obj/../Libraries/seekfree_peripheral/SEEKFREE_MT9V03X.c:90
//  @since      v1.0
//  Sample usage:
//  @note       
//-------------------------------------------------------------------------------------------------------------------
void mt9v03x_uart_callback(void)
{
    1342:	1141                	addi	sp,sp,-16
    1344:	c622                	sw	s0,12(sp)
    1346:	0800                	addi	s0,sp,16
D:\MounRiver\MounRiver_Studio\workspace\Seekfree_CH32V103R8T6_Opensource_Library\obj/../Libraries/seekfree_peripheral/SEEKFREE_MT9V03X.c:91
    receive[receive_num] = ((USART_TypeDef*)UARTN[MT9V03X_COF_UART])->DATAR & 0x01FF;;
    1348:	6789                	lui	a5,0x2
    134a:	0d878793          	addi	a5,a5,216 # 20d8 <UARTN>
    134e:	43dc                	lw	a5,4(a5)
    1350:	0047d783          	lhu	a5,4(a5)
    1354:	01079713          	slli	a4,a5,0x10
    1358:	8341                	srli	a4,a4,0x10
    135a:	8131c783          	lbu	a5,-2029(gp) # 2000007b <receive_num>
    135e:	86be                	mv	a3,a5
    1360:	0ff77713          	andi	a4,a4,255
    1364:	81018793          	addi	a5,gp,-2032 # 20000078 <_edata>
    1368:	97b6                	add	a5,a5,a3
    136a:	00e78023          	sb	a4,0(a5)
D:\MounRiver\MounRiver_Studio\workspace\Seekfree_CH32V103R8T6_Opensource_Library\obj/../Libraries/seekfree_peripheral/SEEKFREE_MT9V03X.c:92
    receive_num++;
    136e:	8131c783          	lbu	a5,-2029(gp) # 2000007b <receive_num>
    1372:	0785                	addi	a5,a5,1
    1374:	0ff7f713          	andi	a4,a5,255
    1378:	80e189a3          	sb	a4,-2029(gp) # 2000007b <receive_num>
D:\MounRiver\MounRiver_Studio\workspace\Seekfree_CH32V103R8T6_Opensource_Library\obj/../Libraries/seekfree_peripheral/SEEKFREE_MT9V03X.c:94

    if(1==receive_num && 0XA5!=receive[0])  receive_num = 0;
    137c:	8131c703          	lbu	a4,-2029(gp) # 2000007b <receive_num>
    1380:	4785                	li	a5,1
    1382:	00f71a63          	bne	a4,a5,1396 <mt9v03x_uart_callback+0x54>
D:\MounRiver\MounRiver_Studio\workspace\Seekfree_CH32V103R8T6_Opensource_Library\obj/../Libraries/seekfree_peripheral/SEEKFREE_MT9V03X.c:94 (discriminator 1)
    1386:	8101c703          	lbu	a4,-2032(gp) # 20000078 <_edata>
    138a:	0a500793          	li	a5,165
    138e:	00f70463          	beq	a4,a5,1396 <mt9v03x_uart_callback+0x54>
D:\MounRiver\MounRiver_Studio\workspace\Seekfree_CH32V103R8T6_Opensource_Library\obj/../Libraries/seekfree_peripheral/SEEKFREE_MT9V03X.c:94 (discriminator 2)
    1392:	800189a3          	sb	zero,-2029(gp) # 2000007b <receive_num>
D:\MounRiver\MounRiver_Studio\workspace\Seekfree_CH32V103R8T6_Opensource_Library\obj/../Libraries/seekfree_peripheral/SEEKFREE_MT9V03X.c:95
    if(3 == receive_num)
    1396:	8131c703          	lbu	a4,-2029(gp) # 2000007b <receive_num>
    139a:	478d                	li	a5,3
    139c:	00f71763          	bne	a4,a5,13aa <mt9v03x_uart_callback+0x68>
D:\MounRiver\MounRiver_Studio\workspace\Seekfree_CH32V103R8T6_Opensource_Library\obj/../Libraries/seekfree_peripheral/SEEKFREE_MT9V03X.c:97
    {
        receive_num = 0;
    13a0:	800189a3          	sb	zero,-2029(gp) # 2000007b <receive_num>
D:\MounRiver\MounRiver_Studio\workspace\Seekfree_CH32V103R8T6_Opensource_Library\obj/../Libraries/seekfree_peripheral/SEEKFREE_MT9V03X.c:98
        uart_receive_flag = 1;
    13a4:	4705                	li	a4,1
    13a6:	80e18a23          	sb	a4,-2028(gp) # 2000007c <uart_receive_flag>
D:\MounRiver\MounRiver_Studio\workspace\Seekfree_CH32V103R8T6_Opensource_Library\obj/../Libraries/seekfree_peripheral/SEEKFREE_MT9V03X.c:101
    }
    
}
    13aa:	0001                	nop
    13ac:	4432                	lw	s0,12(sp)
    13ae:	0141                	addi	sp,sp,16
    13b0:	8082                	ret

000013b2 <mt9v03x_vsync>:
mt9v03x_vsync():
D:\MounRiver\MounRiver_Studio\workspace\Seekfree_CH32V103R8T6_Opensource_Library\obj/../Libraries/seekfree_peripheral/SEEKFREE_MT9V03X.c:376
//  @return     void
//  @since      v1.0
//  Sample usage:               在isr.c里面先创建对应的中断函数，然后调用该函数(之后别忘记清除中断标志位)
//-------------------------------------------------------------------------------------------------------------------
void mt9v03x_vsync(void)
{
    13b2:	1141                	addi	sp,sp,-16
    13b4:	c622                	sw	s0,12(sp)
    13b6:	0800                	addi	s0,sp,16
D:\MounRiver\MounRiver_Studio\workspace\Seekfree_CH32V103R8T6_Opensource_Library\obj/../Libraries/seekfree_peripheral/SEEKFREE_MT9V03X.c:377
    MT9V03X_DMA_CH->CNTR = MT9V03X_H*MT9V03X_W;             //设置当前DMA传输的剩余数量，向下递减，该寄存器只能在DMA不工作时更改。
    13b8:	400207b7          	lui	a5,0x40020
    13bc:	04478793          	addi	a5,a5,68 # 40020044 <_eusrstack+0x2001b044>
    13c0:	6709                	lui	a4,0x2
    13c2:	4b870713          	addi	a4,a4,1208 # 24b8 <_data_lma+0x3d0>
    13c6:	c3d8                	sw	a4,4(a5)
D:\MounRiver\MounRiver_Studio\workspace\Seekfree_CH32V103R8T6_Opensource_Library\obj/../Libraries/seekfree_peripheral/SEEKFREE_MT9V03X.c:378
    MT9V03X_DMA_CH->CFGR |= DMA_CFGR1_EN;
    13c8:	400207b7          	lui	a5,0x40020
    13cc:	04478793          	addi	a5,a5,68 # 40020044 <_eusrstack+0x2001b044>
    13d0:	4398                	lw	a4,0(a5)
    13d2:	400207b7          	lui	a5,0x40020
    13d6:	04478793          	addi	a5,a5,68 # 40020044 <_eusrstack+0x2001b044>
    13da:	00176713          	ori	a4,a4,1
    13de:	c398                	sw	a4,0(a5)
D:\MounRiver\MounRiver_Studio\workspace\Seekfree_CH32V103R8T6_Opensource_Library\obj/../Libraries/seekfree_peripheral/SEEKFREE_MT9V03X.c:379
}
    13e0:	0001                	nop
    13e2:	4432                	lw	s0,12(sp)
    13e4:	0141                	addi	sp,sp,16
    13e6:	8082                	ret

000013e8 <mt9v03x_dma>:
mt9v03x_dma():
D:\MounRiver\MounRiver_Studio\workspace\Seekfree_CH32V103R8T6_Opensource_Library\obj/../Libraries/seekfree_peripheral/SEEKFREE_MT9V03X.c:389
//  @return     void
//  @since      v1.0
//  Sample usage:
//-------------------------------------------------------------------------------------------------------------------
void mt9v03x_dma(void)
{
    13e8:	1141                	addi	sp,sp,-16
    13ea:	c622                	sw	s0,12(sp)
    13ec:	0800                	addi	s0,sp,16
D:\MounRiver\MounRiver_Studio\workspace\Seekfree_CH32V103R8T6_Opensource_Library\obj/../Libraries/seekfree_peripheral/SEEKFREE_MT9V03X.c:390
    mt9v03x_finish_flag = 1;//一副图像从采集开始到采集结束耗时3.8MS左右(50FPS、188*120分辨率)
    13ee:	4705                	li	a4,1
    13f0:	80e18aa3          	sb	a4,-2027(gp) # 2000007d <mt9v03x_finish_flag>
D:\MounRiver\MounRiver_Studio\workspace\Seekfree_CH32V103R8T6_Opensource_Library\obj/../Libraries/seekfree_peripheral/SEEKFREE_MT9V03X.c:391
    MT9V03X_DMA_CH->CFGR &= (uint16)(~DMA_CFGR1_EN);   //关闭DMA1
    13f4:	400207b7          	lui	a5,0x40020
    13f8:	04478793          	addi	a5,a5,68 # 40020044 <_eusrstack+0x2001b044>
    13fc:	4394                	lw	a3,0(a5)
    13fe:	400207b7          	lui	a5,0x40020
    1402:	04478793          	addi	a5,a5,68 # 40020044 <_eusrstack+0x2001b044>
    1406:	6741                	lui	a4,0x10
    1408:	1779                	addi	a4,a4,-2
    140a:	8f75                	and	a4,a4,a3
    140c:	c398                	sw	a4,0(a5)
D:\MounRiver\MounRiver_Studio\workspace\Seekfree_CH32V103R8T6_Opensource_Library\obj/../Libraries/seekfree_peripheral/SEEKFREE_MT9V03X.c:392
}
    140e:	0001                	nop
    1410:	4432                	lw	s0,12(sp)
    1412:	0141                	addi	sp,sp,16
    1414:	8082                	ret

00001416 <ov7725_cof_uart_interrupt>:
ov7725_cof_uart_interrupt():
D:\MounRiver\MounRiver_Studio\workspace\Seekfree_CH32V103R8T6_Opensource_Library\obj/../Libraries/seekfree_peripheral/SEEKFREE_UART_7725.c:81
//  Sample usage:
//  @note       该函数在ISR文件 串口3中断程序被调用
//-------------------------------------------------------------------------------------------------------------------

void ov7725_cof_uart_interrupt(void)
{
    1416:	1141                	addi	sp,sp,-16
    1418:	c622                	sw	s0,12(sp)
    141a:	0800                	addi	s0,sp,16
D:\MounRiver\MounRiver_Studio\workspace\Seekfree_CH32V103R8T6_Opensource_Library\obj/../Libraries/seekfree_peripheral/SEEKFREE_UART_7725.c:83

    ov7725_uart_receive[ov7725_uart_receive_num] = ((USART_TypeDef*)UARTN[OV7725_UART_COF_UART])->DATAR & 0x01FF;
    141c:	6789                	lui	a5,0x2
    141e:	0d878793          	addi	a5,a5,216 # 20d8 <UARTN>
    1422:	43dc                	lw	a5,4(a5)
    1424:	0047d783          	lhu	a5,4(a5)
    1428:	01079713          	slli	a4,a5,0x10
    142c:	8341                	srli	a4,a4,0x10
    142e:	81b1c783          	lbu	a5,-2021(gp) # 20000083 <ov7725_uart_receive_num>
    1432:	86be                	mv	a3,a5
    1434:	0ff77713          	andi	a4,a4,255
    1438:	81818793          	addi	a5,gp,-2024 # 20000080 <ov7725_uart_receive>
    143c:	97b6                	add	a5,a5,a3
    143e:	00e78023          	sb	a4,0(a5)
D:\MounRiver\MounRiver_Studio\workspace\Seekfree_CH32V103R8T6_Opensource_Library\obj/../Libraries/seekfree_peripheral/SEEKFREE_UART_7725.c:84
    ov7725_uart_receive_num++;
    1442:	81b1c783          	lbu	a5,-2021(gp) # 20000083 <ov7725_uart_receive_num>
    1446:	0785                	addi	a5,a5,1
    1448:	0ff7f713          	andi	a4,a5,255
    144c:	80e18da3          	sb	a4,-2021(gp) # 20000083 <ov7725_uart_receive_num>
D:\MounRiver\MounRiver_Studio\workspace\Seekfree_CH32V103R8T6_Opensource_Library\obj/../Libraries/seekfree_peripheral/SEEKFREE_UART_7725.c:86

    if(1==ov7725_uart_receive_num && 0XA5!=ov7725_uart_receive[0])  ov7725_uart_receive_num = 0;
    1450:	81b1c703          	lbu	a4,-2021(gp) # 20000083 <ov7725_uart_receive_num>
    1454:	4785                	li	a5,1
    1456:	00f71a63          	bne	a4,a5,146a <ov7725_cof_uart_interrupt+0x54>
D:\MounRiver\MounRiver_Studio\workspace\Seekfree_CH32V103R8T6_Opensource_Library\obj/../Libraries/seekfree_peripheral/SEEKFREE_UART_7725.c:86 (discriminator 1)
    145a:	8181c703          	lbu	a4,-2024(gp) # 20000080 <ov7725_uart_receive>
    145e:	0a500793          	li	a5,165
    1462:	00f70463          	beq	a4,a5,146a <ov7725_cof_uart_interrupt+0x54>
D:\MounRiver\MounRiver_Studio\workspace\Seekfree_CH32V103R8T6_Opensource_Library\obj/../Libraries/seekfree_peripheral/SEEKFREE_UART_7725.c:86 (discriminator 2)
    1466:	80018da3          	sb	zero,-2021(gp) # 20000083 <ov7725_uart_receive_num>
D:\MounRiver\MounRiver_Studio\workspace\Seekfree_CH32V103R8T6_Opensource_Library\obj/../Libraries/seekfree_peripheral/SEEKFREE_UART_7725.c:87
    if(3 == ov7725_uart_receive_num)
    146a:	81b1c703          	lbu	a4,-2021(gp) # 20000083 <ov7725_uart_receive_num>
    146e:	478d                	li	a5,3
    1470:	00f71763          	bne	a4,a5,147e <ov7725_cof_uart_interrupt+0x68>
D:\MounRiver\MounRiver_Studio\workspace\Seekfree_CH32V103R8T6_Opensource_Library\obj/../Libraries/seekfree_peripheral/SEEKFREE_UART_7725.c:89
    {
        ov7725_uart_receive_num = 0;
    1474:	80018da3          	sb	zero,-2021(gp) # 20000083 <ov7725_uart_receive_num>
D:\MounRiver\MounRiver_Studio\workspace\Seekfree_CH32V103R8T6_Opensource_Library\obj/../Libraries/seekfree_peripheral/SEEKFREE_UART_7725.c:90
        ov7725_uart_receive_flag = 1;
    1478:	4705                	li	a4,1
    147a:	80e18e23          	sb	a4,-2020(gp) # 20000084 <ov7725_uart_receive_flag>
D:\MounRiver\MounRiver_Studio\workspace\Seekfree_CH32V103R8T6_Opensource_Library\obj/../Libraries/seekfree_peripheral/SEEKFREE_UART_7725.c:92
    }
}
    147e:	0001                	nop
    1480:	4432                	lw	s0,12(sp)
    1482:	0141                	addi	sp,sp,16
    1484:	8082                	ret

00001486 <ov7725_uart_vsync>:
ov7725_uart_vsync():
D:\MounRiver\MounRiver_Studio\workspace\Seekfree_CH32V103R8T6_Opensource_Library\obj/../Libraries/seekfree_peripheral/SEEKFREE_UART_7725.c:103
//  @since      v1.0
//  Sample usage:                   在isr.c里面先创建对应的中断函数，然后调用该函数(之后别忘记清除中断标志位)
//-------------------------------------------------------------------------------------------------------------------

void ov7725_uart_vsync(void)
{
    1486:	1141                	addi	sp,sp,-16
    1488:	c622                	sw	s0,12(sp)
    148a:	0800                	addi	s0,sp,16
D:\MounRiver\MounRiver_Studio\workspace\Seekfree_CH32V103R8T6_Opensource_Library\obj/../Libraries/seekfree_peripheral/SEEKFREE_UART_7725.c:104
    OV7725_UART_DMA_CH->CNTR = OV7725_UART_SIZE;             //设置当前DMA传输的剩余数量，向下递减，该寄存器只能在DMA不工作时更改。
    148c:	400207b7          	lui	a5,0x40020
    1490:	04478793          	addi	a5,a5,68 # 40020044 <_eusrstack+0x2001b044>
    1494:	6705                	lui	a4,0x1
    1496:	96070713          	addi	a4,a4,-1696 # 960 <GPIO_PinRemapConfig+0xbc>
    149a:	c3d8                	sw	a4,4(a5)
D:\MounRiver\MounRiver_Studio\workspace\Seekfree_CH32V103R8T6_Opensource_Library\obj/../Libraries/seekfree_peripheral/SEEKFREE_UART_7725.c:105
    OV7725_UART_DMA_CH->CFGR |= DMA_CFGR1_EN;                //开启DMA1
    149c:	400207b7          	lui	a5,0x40020
    14a0:	04478793          	addi	a5,a5,68 # 40020044 <_eusrstack+0x2001b044>
    14a4:	4398                	lw	a4,0(a5)
    14a6:	400207b7          	lui	a5,0x40020
    14aa:	04478793          	addi	a5,a5,68 # 40020044 <_eusrstack+0x2001b044>
    14ae:	00176713          	ori	a4,a4,1
    14b2:	c398                	sw	a4,0(a5)
D:\MounRiver\MounRiver_Studio\workspace\Seekfree_CH32V103R8T6_Opensource_Library\obj/../Libraries/seekfree_peripheral/SEEKFREE_UART_7725.c:106
}
    14b4:	0001                	nop
    14b6:	4432                	lw	s0,12(sp)
    14b8:	0141                	addi	sp,sp,16
    14ba:	8082                	ret

000014bc <ov7725_uart_dma>:
ov7725_uart_dma():
D:\MounRiver\MounRiver_Studio\workspace\Seekfree_CH32V103R8T6_Opensource_Library\obj/../Libraries/seekfree_peripheral/SEEKFREE_UART_7725.c:117
//  @return     void
//  @since      v1.0
//  Sample usage:                   在isr.c里面先创建对应的中断函数，然后调用该函数(之后别忘记清除中断标志位)
//-------------------------------------------------------------------------------------------------------------------
void ov7725_uart_dma(void)
{
    14bc:	1141                	addi	sp,sp,-16
    14be:	c622                	sw	s0,12(sp)
    14c0:	0800                	addi	s0,sp,16
D:\MounRiver\MounRiver_Studio\workspace\Seekfree_CH32V103R8T6_Opensource_Library\obj/../Libraries/seekfree_peripheral/SEEKFREE_UART_7725.c:118
    ov7725_uart_finish_flag = 1;                             //摄像头数据采集置1
    14c2:	4705                	li	a4,1
    14c4:	80e18ea3          	sb	a4,-2019(gp) # 20000085 <ov7725_uart_finish_flag>
D:\MounRiver\MounRiver_Studio\workspace\Seekfree_CH32V103R8T6_Opensource_Library\obj/../Libraries/seekfree_peripheral/SEEKFREE_UART_7725.c:119
    OV7725_UART_DMA_CH->CFGR &= (uint16)(~DMA_CFGR1_EN);     //关闭DMA1
    14c8:	400207b7          	lui	a5,0x40020
    14cc:	04478793          	addi	a5,a5,68 # 40020044 <_eusrstack+0x2001b044>
    14d0:	4394                	lw	a3,0(a5)
    14d2:	400207b7          	lui	a5,0x40020
    14d6:	04478793          	addi	a5,a5,68 # 40020044 <_eusrstack+0x2001b044>
    14da:	6741                	lui	a4,0x10
    14dc:	1779                	addi	a4,a4,-2
    14de:	8f75                	and	a4,a4,a3
    14e0:	c398                	sw	a4,0(a5)
D:\MounRiver\MounRiver_Studio\workspace\Seekfree_CH32V103R8T6_Opensource_Library\obj/../Libraries/seekfree_peripheral/SEEKFREE_UART_7725.c:120
}
    14e2:	0001                	nop
    14e4:	4432                	lw	s0,12(sp)
    14e6:	0141                	addi	sp,sp,16
    14e8:	8082                	ret

000014ea <gpio_init>:
gpio_init():
D:\MounRiver\MounRiver_Studio\workspace\Seekfree_CH32V103R8T6_Opensource_Library\obj/../Libraries/seekfree_libraries/zf_gpio.c:40
//  @param      pinconf     引脚配置（可设置参数由zf_gpio.h文件内GPIOSPEED_enum与GPIOMODE_enum枚举值确定，多个条件使用 | 相或）
//  @return     void
//  Sample usage:           gpio_init(D0, GPO, 1, GPIO_PIN_CONFIG);//D0初始化为GPIO功能、输出模式、输出高电平、速度100MHZ 推挽输出
//-------------------------------------------------------------------------------------------------------------------
void gpio_init(PIN_enum pin, GPIODIR_enum dir, uint8 dat, uint32 pinconf)
{
    14ea:	7179                	addi	sp,sp,-48
    14ec:	d606                	sw	ra,44(sp)
    14ee:	d422                	sw	s0,40(sp)
    14f0:	1800                	addi	s0,sp,48
    14f2:	fca42e23          	sw	a0,-36(s0)
    14f6:	fcb42c23          	sw	a1,-40(s0)
    14fa:	87b2                	mv	a5,a2
    14fc:	fcd42823          	sw	a3,-48(s0)
    1500:	fcf40ba3          	sb	a5,-41(s0)
D:\MounRiver\MounRiver_Studio\workspace\Seekfree_CH32V103R8T6_Opensource_Library\obj/../Libraries/seekfree_libraries/zf_gpio.c:42
    GPIO_InitTypeDef GPIO_InitStructure;
    uint8 io_group = (pin & 0xE0) >> 5;
    1504:	fdc42783          	lw	a5,-36(s0)
    1508:	8395                	srli	a5,a5,0x5
    150a:	0ff7f793          	andi	a5,a5,255
    150e:	8b9d                	andi	a5,a5,7
    1510:	fef407a3          	sb	a5,-17(s0)
D:\MounRiver\MounRiver_Studio\workspace\Seekfree_CH32V103R8T6_Opensource_Library\obj/../Libraries/seekfree_libraries/zf_gpio.c:43
    uint8 io_pin = pin & 0x1F;
    1514:	fdc42783          	lw	a5,-36(s0)
    1518:	0ff7f793          	andi	a5,a5,255
    151c:	8bfd                	andi	a5,a5,31
    151e:	fef40723          	sb	a5,-18(s0)
D:\MounRiver\MounRiver_Studio\workspace\Seekfree_CH32V103R8T6_Opensource_Library\obj/../Libraries/seekfree_libraries/zf_gpio.c:46


    if(PIN_NULL == pin) return;
    1522:	fdc42703          	lw	a4,-36(s0)
    1526:	08000793          	li	a5,128
    152a:	14f70d63          	beq	a4,a5,1684 <gpio_init+0x19a>
D:\MounRiver\MounRiver_Studio\workspace\Seekfree_CH32V103R8T6_Opensource_Library\obj/../Libraries/seekfree_libraries/zf_gpio.c:48
    //GPIO总线使能
    if(0 == (pin >> 5))      RCC_APB2PeriphClockCmd(RCC_APB2Periph_GPIOA, ENABLE);
    152e:	fdc42783          	lw	a5,-36(s0)
    1532:	8395                	srli	a5,a5,0x5
    1534:	e791                	bnez	a5,1540 <gpio_init+0x56>
D:\MounRiver\MounRiver_Studio\workspace\Seekfree_CH32V103R8T6_Opensource_Library\obj/../Libraries/seekfree_libraries/zf_gpio.c:48 (discriminator 1)
    1536:	4585                	li	a1,1
    1538:	4511                	li	a0,4
    153a:	813ff0ef          	jal	ra,d4c <RCC_APB2PeriphClockCmd>
    153e:	a861                	j	15d6 <gpio_init+0xec>
D:\MounRiver\MounRiver_Studio\workspace\Seekfree_CH32V103R8T6_Opensource_Library\obj/../Libraries/seekfree_libraries/zf_gpio.c:49
    else if(1 == (pin >> 5)) RCC_APB2PeriphClockCmd(RCC_APB2Periph_GPIOB, ENABLE);
    1540:	fdc42783          	lw	a5,-36(s0)
    1544:	0057d713          	srli	a4,a5,0x5
    1548:	4785                	li	a5,1
    154a:	00f71763          	bne	a4,a5,1558 <gpio_init+0x6e>
D:\MounRiver\MounRiver_Studio\workspace\Seekfree_CH32V103R8T6_Opensource_Library\obj/../Libraries/seekfree_libraries/zf_gpio.c:49 (discriminator 1)
    154e:	4585                	li	a1,1
    1550:	4521                	li	a0,8
    1552:	ffaff0ef          	jal	ra,d4c <RCC_APB2PeriphClockCmd>
    1556:	a041                	j	15d6 <gpio_init+0xec>
D:\MounRiver\MounRiver_Studio\workspace\Seekfree_CH32V103R8T6_Opensource_Library\obj/../Libraries/seekfree_libraries/zf_gpio.c:50
    else if(2 == (pin >> 5)) RCC_APB2PeriphClockCmd(RCC_APB2Periph_GPIOC, ENABLE);
    1558:	fdc42783          	lw	a5,-36(s0)
    155c:	0057d713          	srli	a4,a5,0x5
    1560:	4789                	li	a5,2
    1562:	00f71763          	bne	a4,a5,1570 <gpio_init+0x86>
D:\MounRiver\MounRiver_Studio\workspace\Seekfree_CH32V103R8T6_Opensource_Library\obj/../Libraries/seekfree_libraries/zf_gpio.c:50 (discriminator 1)
    1566:	4585                	li	a1,1
    1568:	4541                	li	a0,16
    156a:	fe2ff0ef          	jal	ra,d4c <RCC_APB2PeriphClockCmd>
    156e:	a0a5                	j	15d6 <gpio_init+0xec>
D:\MounRiver\MounRiver_Studio\workspace\Seekfree_CH32V103R8T6_Opensource_Library\obj/../Libraries/seekfree_libraries/zf_gpio.c:51
    else if(3 == (pin >> 5)) RCC_APB2PeriphClockCmd(RCC_APB2Periph_GPIOD, ENABLE);
    1570:	fdc42783          	lw	a5,-36(s0)
    1574:	0057d713          	srli	a4,a5,0x5
    1578:	478d                	li	a5,3
    157a:	00f71863          	bne	a4,a5,158a <gpio_init+0xa0>
D:\MounRiver\MounRiver_Studio\workspace\Seekfree_CH32V103R8T6_Opensource_Library\obj/../Libraries/seekfree_libraries/zf_gpio.c:51 (discriminator 1)
    157e:	4585                	li	a1,1
    1580:	02000513          	li	a0,32
    1584:	fc8ff0ef          	jal	ra,d4c <RCC_APB2PeriphClockCmd>
    1588:	a0b9                	j	15d6 <gpio_init+0xec>
D:\MounRiver\MounRiver_Studio\workspace\Seekfree_CH32V103R8T6_Opensource_Library\obj/../Libraries/seekfree_libraries/zf_gpio.c:52
    else if(4 == (pin >> 5)) RCC_APB2PeriphClockCmd(RCC_APB2Periph_GPIOE, ENABLE);
    158a:	fdc42783          	lw	a5,-36(s0)
    158e:	0057d713          	srli	a4,a5,0x5
    1592:	4791                	li	a5,4
    1594:	00f71863          	bne	a4,a5,15a4 <gpio_init+0xba>
D:\MounRiver\MounRiver_Studio\workspace\Seekfree_CH32V103R8T6_Opensource_Library\obj/../Libraries/seekfree_libraries/zf_gpio.c:52 (discriminator 1)
    1598:	4585                	li	a1,1
    159a:	04000513          	li	a0,64
    159e:	faeff0ef          	jal	ra,d4c <RCC_APB2PeriphClockCmd>
    15a2:	a815                	j	15d6 <gpio_init+0xec>
D:\MounRiver\MounRiver_Studio\workspace\Seekfree_CH32V103R8T6_Opensource_Library\obj/../Libraries/seekfree_libraries/zf_gpio.c:53
    else if(5 == (pin >> 5)) RCC_APB2PeriphClockCmd(RCC_APB2Periph_GPIOF, ENABLE);
    15a4:	fdc42783          	lw	a5,-36(s0)
    15a8:	0057d713          	srli	a4,a5,0x5
    15ac:	4795                	li	a5,5
    15ae:	00f71863          	bne	a4,a5,15be <gpio_init+0xd4>
D:\MounRiver\MounRiver_Studio\workspace\Seekfree_CH32V103R8T6_Opensource_Library\obj/../Libraries/seekfree_libraries/zf_gpio.c:53 (discriminator 1)
    15b2:	4585                	li	a1,1
    15b4:	08000513          	li	a0,128
    15b8:	f94ff0ef          	jal	ra,d4c <RCC_APB2PeriphClockCmd>
    15bc:	a829                	j	15d6 <gpio_init+0xec>
D:\MounRiver\MounRiver_Studio\workspace\Seekfree_CH32V103R8T6_Opensource_Library\obj/../Libraries/seekfree_libraries/zf_gpio.c:54
    else if(6 == (pin >> 5)) RCC_APB2PeriphClockCmd(RCC_APB2Periph_GPIOG, ENABLE);
    15be:	fdc42783          	lw	a5,-36(s0)
    15c2:	0057d713          	srli	a4,a5,0x5
    15c6:	4799                	li	a5,6
    15c8:	00f71763          	bne	a4,a5,15d6 <gpio_init+0xec>
D:\MounRiver\MounRiver_Studio\workspace\Seekfree_CH32V103R8T6_Opensource_Library\obj/../Libraries/seekfree_libraries/zf_gpio.c:54 (discriminator 1)
    15cc:	4585                	li	a1,1
    15ce:	10000513          	li	a0,256
    15d2:	f7aff0ef          	jal	ra,d4c <RCC_APB2PeriphClockCmd>
D:\MounRiver\MounRiver_Studio\workspace\Seekfree_CH32V103R8T6_Opensource_Library\obj/../Libraries/seekfree_libraries/zf_gpio.c:58


    //设置引脚号
    GPIO_InitStructure.GPIO_Pin = (uint16)(1 << io_pin);
    15d6:	fee44783          	lbu	a5,-18(s0)
    15da:	4705                	li	a4,1
    15dc:	00f717b3          	sll	a5,a4,a5
    15e0:	07c2                	slli	a5,a5,0x10
    15e2:	83c1                	srli	a5,a5,0x10
    15e4:	fef41023          	sh	a5,-32(s0)
D:\MounRiver\MounRiver_Studio\workspace\Seekfree_CH32V103R8T6_Opensource_Library\obj/../Libraries/seekfree_libraries/zf_gpio.c:60

    if(GPO == dir)
    15e8:	fd842703          	lw	a4,-40(s0)
    15ec:	4785                	li	a5,1
    15ee:	02f71763          	bne	a4,a5,161c <gpio_init+0x132>
D:\MounRiver\MounRiver_Studio\workspace\Seekfree_CH32V103R8T6_Opensource_Library\obj/../Libraries/seekfree_libraries/zf_gpio.c:63
    {
        //只有输出需要设置速度
        if((uint16)pinconf >> 8 == 0) GPIO_InitStructure.GPIO_Speed = (GPIOSpeed_TypeDef)(GPIO_Speed_50MHz);  //防止没有填写这个参数,默认设置50Mhz
    15f2:	fd042783          	lw	a5,-48(s0)
    15f6:	07c2                	slli	a5,a5,0x10
    15f8:	83c1                	srli	a5,a5,0x10
    15fa:	83a1                	srli	a5,a5,0x8
    15fc:	07c2                	slli	a5,a5,0x10
    15fe:	83c1                	srli	a5,a5,0x10
    1600:	e789                	bnez	a5,160a <gpio_init+0x120>
D:\MounRiver\MounRiver_Studio\workspace\Seekfree_CH32V103R8T6_Opensource_Library\obj/../Libraries/seekfree_libraries/zf_gpio.c:63 (discriminator 1)
    1602:	478d                	li	a5,3
    1604:	fef42223          	sw	a5,-28(s0)
    1608:	a811                	j	161c <gpio_init+0x132>
D:\MounRiver\MounRiver_Studio\workspace\Seekfree_CH32V103R8T6_Opensource_Library\obj/../Libraries/seekfree_libraries/zf_gpio.c:64
        else GPIO_InitStructure.GPIO_Speed = (GPIOSpeed_TypeDef)((uint16)pinconf >> 8);                       //已经填写了该参数。根据值来设置
    160a:	fd042783          	lw	a5,-48(s0)
    160e:	07c2                	slli	a5,a5,0x10
    1610:	83c1                	srli	a5,a5,0x10
    1612:	83a1                	srli	a5,a5,0x8
    1614:	07c2                	slli	a5,a5,0x10
    1616:	83c1                	srli	a5,a5,0x10
    1618:	fef42223          	sw	a5,-28(s0)
D:\MounRiver\MounRiver_Studio\workspace\Seekfree_CH32V103R8T6_Opensource_Library\obj/../Libraries/seekfree_libraries/zf_gpio.c:68
    }

    //设置模式
    GPIO_InitStructure.GPIO_Mode = (GPIOMode_TypeDef)((uint16)pinconf & 0xff);
    161c:	fd042783          	lw	a5,-48(s0)
    1620:	07c2                	slli	a5,a5,0x10
    1622:	83c1                	srli	a5,a5,0x10
    1624:	0ff7f793          	andi	a5,a5,255
    1628:	fef42423          	sw	a5,-24(s0)
D:\MounRiver\MounRiver_Studio\workspace\Seekfree_CH32V103R8T6_Opensource_Library\obj/../Libraries/seekfree_libraries/zf_gpio.c:69
    GPIO_Init((GPIO_TypeDef *)(GPION[io_group]), &GPIO_InitStructure);
    162c:	fef44703          	lbu	a4,-17(s0)
    1630:	6789                	lui	a5,0x2
    1632:	070a                	slli	a4,a4,0x2
    1634:	0c878793          	addi	a5,a5,200 # 20c8 <GPION>
    1638:	97ba                	add	a5,a5,a4
    163a:	439c                	lw	a5,0(a5)
    163c:	873e                	mv	a4,a5
    163e:	fe040793          	addi	a5,s0,-32
    1642:	85be                	mv	a1,a5
    1644:	853a                	mv	a0,a4
    1646:	ffdfe0ef          	jal	ra,642 <GPIO_Init>
D:\MounRiver\MounRiver_Studio\workspace\Seekfree_CH32V103R8T6_Opensource_Library\obj/../Libraries/seekfree_libraries/zf_gpio.c:71

    if(GPO == dir)
    164a:	fd842703          	lw	a4,-40(s0)
    164e:	4785                	li	a5,1
    1650:	02f71b63          	bne	a4,a5,1686 <gpio_init+0x19c>
D:\MounRiver\MounRiver_Studio\workspace\Seekfree_CH32V103R8T6_Opensource_Library\obj/../Libraries/seekfree_libraries/zf_gpio.c:74
    {
        //只有输出需要设置引脚状态
        GPIO_WriteBit((GPIO_TypeDef *)(GPION[io_group]), (uint16)(1 << io_pin), dat);
    1654:	fef44703          	lbu	a4,-17(s0)
    1658:	6789                	lui	a5,0x2
    165a:	070a                	slli	a4,a4,0x2
    165c:	0c878793          	addi	a5,a5,200 # 20c8 <GPION>
    1660:	97ba                	add	a5,a5,a4
    1662:	439c                	lw	a5,0(a5)
    1664:	86be                	mv	a3,a5
    1666:	fee44783          	lbu	a5,-18(s0)
    166a:	4705                	li	a4,1
    166c:	00f717b3          	sll	a5,a4,a5
    1670:	07c2                	slli	a5,a5,0x10
    1672:	83c1                	srli	a5,a5,0x10
    1674:	fd744703          	lbu	a4,-41(s0)
    1678:	863a                	mv	a2,a4
    167a:	85be                	mv	a1,a5
    167c:	8536                	mv	a0,a3
    167e:	9eeff0ef          	jal	ra,86c <GPIO_WriteBit>
    1682:	a011                	j	1686 <gpio_init+0x19c>
D:\MounRiver\MounRiver_Studio\workspace\Seekfree_CH32V103R8T6_Opensource_Library\obj/../Libraries/seekfree_libraries/zf_gpio.c:46
    if(PIN_NULL == pin) return;
    1684:	0001                	nop
D:\MounRiver\MounRiver_Studio\workspace\Seekfree_CH32V103R8T6_Opensource_Library\obj/../Libraries/seekfree_libraries/zf_gpio.c:76
    }
}
    1686:	50b2                	lw	ra,44(sp)
    1688:	5422                	lw	s0,40(sp)
    168a:	6145                	addi	sp,sp,48
    168c:	8082                	ret

0000168e <nvic_init>:
nvic_init():
D:\MounRiver\MounRiver_Studio\workspace\Seekfree_CH32V103R8T6_Opensource_Library\obj/../Libraries/seekfree_libraries/zf_nvic.c:38
//  @param      status                      使能或者失能
//  @return     void
//  Sample usage:                           nvic_init(EXTI0_IRQn,0, 0, ENABLE); //外部中断0使能,抢占优先级最高，次优先级最高。
//-------------------------------------------------------------------------------------------------------------------
void nvic_init(IRQn_Type irqn,uint8 preemption_priority, uint8 sub_priority,uint8 status)
{
    168e:	7179                	addi	sp,sp,-48
    1690:	d606                	sw	ra,44(sp)
    1692:	d422                	sw	s0,40(sp)
    1694:	1800                	addi	s0,sp,48
    1696:	fca42e23          	sw	a0,-36(s0)
    169a:	87ae                	mv	a5,a1
    169c:	8736                	mv	a4,a3
    169e:	fcf40da3          	sb	a5,-37(s0)
    16a2:	87b2                	mv	a5,a2
    16a4:	fcf40d23          	sb	a5,-38(s0)
    16a8:	87ba                	mv	a5,a4
    16aa:	fcf40ca3          	sb	a5,-39(s0)
D:\MounRiver\MounRiver_Studio\workspace\Seekfree_CH32V103R8T6_Opensource_Library\obj/../Libraries/seekfree_libraries/zf_nvic.c:41
    NVIC_InitTypeDef NVIC_InitStructure;

    NVIC_InitStructure.NVIC_IRQChannel = irqn;                                  //中断号设置
    16ae:	fdc42783          	lw	a5,-36(s0)
    16b2:	0ff7f793          	andi	a5,a5,255
    16b6:	fef40423          	sb	a5,-24(s0)
D:\MounRiver\MounRiver_Studio\workspace\Seekfree_CH32V103R8T6_Opensource_Library\obj/../Libraries/seekfree_libraries/zf_nvic.c:42
    NVIC_InitStructure.NVIC_IRQChannelPreemptionPriority=preemption_priority;   //抢占优先级值越小，优先级越高
    16ba:	fdb44783          	lbu	a5,-37(s0)
    16be:	fef404a3          	sb	a5,-23(s0)
D:\MounRiver\MounRiver_Studio\workspace\Seekfree_CH32V103R8T6_Opensource_Library\obj/../Libraries/seekfree_libraries/zf_nvic.c:43
    NVIC_InitStructure.NVIC_IRQChannelSubPriority = sub_priority;               //次优先级值越小，优先级越高
    16c2:	fda44783          	lbu	a5,-38(s0)
    16c6:	fef40523          	sb	a5,-22(s0)
D:\MounRiver\MounRiver_Studio\workspace\Seekfree_CH32V103R8T6_Opensource_Library\obj/../Libraries/seekfree_libraries/zf_nvic.c:44
    NVIC_InitStructure.NVIC_IRQChannelCmd = status;                             //使能
    16ca:	fd944783          	lbu	a5,-39(s0)
    16ce:	fef42623          	sw	a5,-20(s0)
D:\MounRiver\MounRiver_Studio\workspace\Seekfree_CH32V103R8T6_Opensource_Library\obj/../Libraries/seekfree_libraries/zf_nvic.c:45
    NVIC_Init(&NVIC_InitStructure);
    16d2:	fe840793          	addi	a5,s0,-24
    16d6:	853e                	mv	a0,a5
    16d8:	b96ff0ef          	jal	ra,a6e <NVIC_Init>
D:\MounRiver\MounRiver_Studio\workspace\Seekfree_CH32V103R8T6_Opensource_Library\obj/../Libraries/seekfree_libraries/zf_nvic.c:48

    //保存状态值
    irq_status.ienr0 |= (PFIC->ISR[0] & 0xFFFFF000);    //[31:12]
    16dc:	e000e7b7          	lui	a5,0xe000e
    16e0:	4398                	lw	a4,0(a5)
    16e2:	77fd                	lui	a5,0xfffff
    16e4:	8f7d                	and	a4,a4,a5
    16e6:	8301a783          	lw	a5,-2000(gp) # 20000098 <irq_status>
    16ea:	8f5d                	or	a4,a4,a5
    16ec:	82e1a823          	sw	a4,-2000(gp) # 20000098 <irq_status>
D:\MounRiver\MounRiver_Studio\workspace\Seekfree_CH32V103R8T6_Opensource_Library\obj/../Libraries/seekfree_libraries/zf_nvic.c:49
    irq_status.ienr1 |= (PFIC->ISR[1] & 0x0FFFFFFF);    //[27:0]
    16f0:	e000e7b7          	lui	a5,0xe000e
    16f4:	43d8                	lw	a4,4(a5)
    16f6:	100007b7          	lui	a5,0x10000
    16fa:	17fd                	addi	a5,a5,-1
    16fc:	8f7d                	and	a4,a4,a5
    16fe:	83018793          	addi	a5,gp,-2000 # 20000098 <irq_status>
    1702:	43dc                	lw	a5,4(a5)
    1704:	8f5d                	or	a4,a4,a5
    1706:	83018793          	addi	a5,gp,-2000 # 20000098 <irq_status>
    170a:	c3d8                	sw	a4,4(a5)
D:\MounRiver\MounRiver_Studio\workspace\Seekfree_CH32V103R8T6_Opensource_Library\obj/../Libraries/seekfree_libraries/zf_nvic.c:50
    if(irq_status.flag == 1)
    170c:	83018793          	addi	a5,gp,-2000 # 20000098 <irq_status>
    1710:	0087c703          	lbu	a4,8(a5) # 10000008 <_data_lma+0xfffdf20>
    1714:	4785                	li	a5,1
    1716:	00f71363          	bne	a4,a5,171c <nvic_init+0x8e>
D:\MounRiver\MounRiver_Studio\workspace\Seekfree_CH32V103R8T6_Opensource_Library\obj/../Libraries/seekfree_libraries/zf_nvic.c:52
    {
        close_all_irq();
    171a:	2031                	jal	1726 <close_all_irq>
D:\MounRiver\MounRiver_Studio\workspace\Seekfree_CH32V103R8T6_Opensource_Library\obj/../Libraries/seekfree_libraries/zf_nvic.c:54
    }
}
    171c:	0001                	nop
    171e:	50b2                	lw	ra,44(sp)
    1720:	5422                	lw	s0,40(sp)
    1722:	6145                	addi	sp,sp,48
    1724:	8082                	ret

00001726 <close_all_irq>:
close_all_irq():
D:\MounRiver\MounRiver_Studio\workspace\Seekfree_CH32V103R8T6_Opensource_Library\obj/../Libraries/seekfree_libraries/zf_nvic.c:63
//  @return     void
//  @since      v1.0
//  Sample usage:
//-------------------------------------------------------------------------------------------------------------------
void close_all_irq(void)
{
    1726:	1141                	addi	sp,sp,-16
    1728:	c622                	sw	s0,12(sp)
    172a:	0800                	addi	s0,sp,16
D:\MounRiver\MounRiver_Studio\workspace\Seekfree_CH32V103R8T6_Opensource_Library\obj/../Libraries/seekfree_libraries/zf_nvic.c:65
    //写1，清空状态
    PFIC->IRER[0] = 0xffffffff;
    172c:	e000e7b7          	lui	a5,0xe000e
    1730:	577d                	li	a4,-1
    1732:	18e7a023          	sw	a4,384(a5) # e000e180 <_eusrstack+0xc0009180>
D:\MounRiver\MounRiver_Studio\workspace\Seekfree_CH32V103R8T6_Opensource_Library\obj/../Libraries/seekfree_libraries/zf_nvic.c:66
    PFIC->IRER[1] = 0xffffffff;
    1736:	e000e7b7          	lui	a5,0xe000e
    173a:	577d                	li	a4,-1
    173c:	18e7a223          	sw	a4,388(a5) # e000e184 <_eusrstack+0xc0009184>
D:\MounRiver\MounRiver_Studio\workspace\Seekfree_CH32V103R8T6_Opensource_Library\obj/../Libraries/seekfree_libraries/zf_nvic.c:67
}
    1740:	0001                	nop
    1742:	4432                	lw	s0,12(sp)
    1744:	0141                	addi	sp,sp,16
    1746:	8082                	ret

00001748 <sys_recover_irq>:
sys_recover_irq():
D:\MounRiver\MounRiver_Studio\workspace\Seekfree_CH32V103R8T6_Opensource_Library\obj/../Libraries/seekfree_libraries/zf_nvic.c:77
//  @return     void
//  @since      v1.0
//  Sample usage:
//-------------------------------------------------------------------------------------------------------------------
void sys_recover_irq(void)
{
    1748:	1141                	addi	sp,sp,-16
    174a:	c622                	sw	s0,12(sp)
    174c:	0800                	addi	s0,sp,16
D:\MounRiver\MounRiver_Studio\workspace\Seekfree_CH32V103R8T6_Opensource_Library\obj/../Libraries/seekfree_libraries/zf_nvic.c:78
    PFIC->IENR[0] = irq_status.ienr0;
    174e:	e000e7b7          	lui	a5,0xe000e
    1752:	8301a703          	lw	a4,-2000(gp) # 20000098 <irq_status>
    1756:	10e7a023          	sw	a4,256(a5) # e000e100 <_eusrstack+0xc0009100>
D:\MounRiver\MounRiver_Studio\workspace\Seekfree_CH32V103R8T6_Opensource_Library\obj/../Libraries/seekfree_libraries/zf_nvic.c:79
    PFIC->IENR[1] = irq_status.ienr1;
    175a:	e000e7b7          	lui	a5,0xe000e
    175e:	83018713          	addi	a4,gp,-2000 # 20000098 <irq_status>
    1762:	4358                	lw	a4,4(a4)
    1764:	10e7a223          	sw	a4,260(a5) # e000e104 <_eusrstack+0xc0009104>
D:\MounRiver\MounRiver_Studio\workspace\Seekfree_CH32V103R8T6_Opensource_Library\obj/../Libraries/seekfree_libraries/zf_nvic.c:80
}
    1768:	0001                	nop
    176a:	4432                	lw	s0,12(sp)
    176c:	0141                	addi	sp,sp,16
    176e:	8082                	ret

00001770 <DisableGlobalIRQ>:
DisableGlobalIRQ():
D:\MounRiver\MounRiver_Studio\workspace\Seekfree_CH32V103R8T6_Opensource_Library\obj/../Libraries/seekfree_libraries/zf_nvic.c:90
//  @return     void
//  @since      v1.0
//  Sample usage:
//-------------------------------------------------------------------------------------------------------------------
uint8 DisableGlobalIRQ(void)
{
    1770:	1101                	addi	sp,sp,-32
    1772:	ce06                	sw	ra,28(sp)
    1774:	cc22                	sw	s0,24(sp)
    1776:	1000                	addi	s0,sp,32
D:\MounRiver\MounRiver_Studio\workspace\Seekfree_CH32V103R8T6_Opensource_Library\obj/../Libraries/seekfree_libraries/zf_nvic.c:92
    uint8 state;
    irq_status.flag = 1;
    1778:	83018793          	addi	a5,gp,-2000 # 20000098 <irq_status>
    177c:	4705                	li	a4,1
    177e:	00e78423          	sb	a4,8(a5)
D:\MounRiver\MounRiver_Studio\workspace\Seekfree_CH32V103R8T6_Opensource_Library\obj/../Libraries/seekfree_libraries/zf_nvic.c:93
    if((irq_status.ienr0 == 0) && (irq_status.ienr1 == 0))   state = 0;  //没有就返回0
    1782:	8301a783          	lw	a5,-2000(gp) # 20000098 <irq_status>
    1786:	eb81                	bnez	a5,1796 <DisableGlobalIRQ+0x26>
D:\MounRiver\MounRiver_Studio\workspace\Seekfree_CH32V103R8T6_Opensource_Library\obj/../Libraries/seekfree_libraries/zf_nvic.c:93 (discriminator 1)
    1788:	83018793          	addi	a5,gp,-2000 # 20000098 <irq_status>
    178c:	43dc                	lw	a5,4(a5)
    178e:	e781                	bnez	a5,1796 <DisableGlobalIRQ+0x26>
D:\MounRiver\MounRiver_Studio\workspace\Seekfree_CH32V103R8T6_Opensource_Library\obj/../Libraries/seekfree_libraries/zf_nvic.c:93 (discriminator 2)
    1790:	fe0407a3          	sb	zero,-17(s0)
    1794:	a021                	j	179c <DisableGlobalIRQ+0x2c>
D:\MounRiver\MounRiver_Studio\workspace\Seekfree_CH32V103R8T6_Opensource_Library\obj/../Libraries/seekfree_libraries/zf_nvic.c:94
    else state = 1;  //有中断就返回1
    1796:	4785                	li	a5,1
    1798:	fef407a3          	sb	a5,-17(s0)
D:\MounRiver\MounRiver_Studio\workspace\Seekfree_CH32V103R8T6_Opensource_Library\obj/../Libraries/seekfree_libraries/zf_nvic.c:95
    close_all_irq();
    179c:	3769                	jal	1726 <close_all_irq>
D:\MounRiver\MounRiver_Studio\workspace\Seekfree_CH32V103R8T6_Opensource_Library\obj/../Libraries/seekfree_libraries/zf_nvic.c:96
    return state;
    179e:	fef44783          	lbu	a5,-17(s0)
D:\MounRiver\MounRiver_Studio\workspace\Seekfree_CH32V103R8T6_Opensource_Library\obj/../Libraries/seekfree_libraries/zf_nvic.c:97
}
    17a2:	853e                	mv	a0,a5
    17a4:	40f2                	lw	ra,28(sp)
    17a6:	4462                	lw	s0,24(sp)
    17a8:	6105                	addi	sp,sp,32
    17aa:	8082                	ret

000017ac <EnableGlobalIRQ>:
EnableGlobalIRQ():
D:\MounRiver\MounRiver_Studio\workspace\Seekfree_CH32V103R8T6_Opensource_Library\obj/../Libraries/seekfree_libraries/zf_nvic.c:107
//  @return     void
//  @since      v1.0
//  Sample usage:
//-------------------------------------------------------------------------------------------------------------------
void EnableGlobalIRQ(uint8 state)
{
    17ac:	1101                	addi	sp,sp,-32
    17ae:	ce06                	sw	ra,28(sp)
    17b0:	cc22                	sw	s0,24(sp)
    17b2:	1000                	addi	s0,sp,32
    17b4:	87aa                	mv	a5,a0
    17b6:	fef407a3          	sb	a5,-17(s0)
D:\MounRiver\MounRiver_Studio\workspace\Seekfree_CH32V103R8T6_Opensource_Library\obj/../Libraries/seekfree_libraries/zf_nvic.c:108
    if(state == 0)
    17ba:	fef44783          	lbu	a5,-17(s0)
    17be:	e791                	bnez	a5,17ca <EnableGlobalIRQ+0x1e>
D:\MounRiver\MounRiver_Studio\workspace\Seekfree_CH32V103R8T6_Opensource_Library\obj/../Libraries/seekfree_libraries/zf_nvic.c:110
    {
        irq_status.flag = 0;
    17c0:	83018793          	addi	a5,gp,-2000 # 20000098 <irq_status>
    17c4:	00078423          	sb	zero,8(a5)
D:\MounRiver\MounRiver_Studio\workspace\Seekfree_CH32V103R8T6_Opensource_Library\obj/../Libraries/seekfree_libraries/zf_nvic.c:111
        sys_recover_irq();
    17c8:	3741                	jal	1748 <sys_recover_irq>
D:\MounRiver\MounRiver_Studio\workspace\Seekfree_CH32V103R8T6_Opensource_Library\obj/../Libraries/seekfree_libraries/zf_nvic.c:113
    }
}
    17ca:	0001                	nop
    17cc:	40f2                	lw	ra,28(sp)
    17ce:	4462                	lw	s0,24(sp)
    17d0:	6105                	addi	sp,sp,32
    17d2:	8082                	ret

000017d4 <uart_gpio_init>:
uart_gpio_init():
D:\MounRiver\MounRiver_Studio\workspace\Seekfree_CH32V103R8T6_Opensource_Library\obj/../Libraries/seekfree_libraries/zf_uart.c:38
//  @param      rx_pin      串口接收引脚号
//  @return     void
//  Sample usage:           内部使用，用户无需关心
//-------------------------------------------------------------------------------------------------------------------
void uart_gpio_init(UARTPIN_enum tx_pin, UARTPIN_enum rx_pin)
{
    17d4:	1101                	addi	sp,sp,-32
    17d6:	ce06                	sw	ra,28(sp)
    17d8:	cc22                	sw	s0,24(sp)
    17da:	1000                	addi	s0,sp,32
    17dc:	fea42623          	sw	a0,-20(s0)
    17e0:	feb42423          	sw	a1,-24(s0)
D:\MounRiver\MounRiver_Studio\workspace\Seekfree_CH32V103R8T6_Opensource_Library\obj/../Libraries/seekfree_libraries/zf_uart.c:39
    if(tx_pin == UART1_TX_A9 && rx_pin == UART1_RX_A10)
    17e4:	fec42783          	lw	a5,-20(s0)
    17e8:	e395                	bnez	a5,180c <uart_gpio_init+0x38>
D:\MounRiver\MounRiver_Studio\workspace\Seekfree_CH32V103R8T6_Opensource_Library\obj/../Libraries/seekfree_libraries/zf_uart.c:39 (discriminator 1)
    17ea:	fe842703          	lw	a4,-24(s0)
    17ee:	4785                	li	a5,1
    17f0:	00f71e63          	bne	a4,a5,180c <uart_gpio_init+0x38>
D:\MounRiver\MounRiver_Studio\workspace\Seekfree_CH32V103R8T6_Opensource_Library\obj/../Libraries/seekfree_libraries/zf_uart.c:41
    {
        gpio_init(A9, GPO, 0, SPEED_50MHZ|OUT_AF_PP);
    17f4:	31800693          	li	a3,792
    17f8:	4601                	li	a2,0
    17fa:	4585                	li	a1,1
    17fc:	4525                	li	a0,9
    17fe:	31f5                	jal	14ea <gpio_init>
D:\MounRiver\MounRiver_Studio\workspace\Seekfree_CH32V103R8T6_Opensource_Library\obj/../Libraries/seekfree_libraries/zf_uart.c:42
        gpio_init(A10, GPI, 0, IN_FLOAT);
    1800:	4691                	li	a3,4
    1802:	4601                	li	a2,0
    1804:	4581                	li	a1,0
    1806:	4529                	li	a0,10
    1808:	31cd                	jal	14ea <gpio_init>
D:\MounRiver\MounRiver_Studio\workspace\Seekfree_CH32V103R8T6_Opensource_Library\obj/../Libraries/seekfree_libraries/zf_uart.c:67
    else if(tx_pin == UART3_TX_C10)
    {
        gpio_init(C10, GPO, 0, SPEED_50MHZ|OUT_AF_PP);
        gpio_init(C11, GPI, 0, IN_FLOAT);
    }
}
    180a:	a861                	j	18a2 <uart_gpio_init+0xce>
D:\MounRiver\MounRiver_Studio\workspace\Seekfree_CH32V103R8T6_Opensource_Library\obj/../Libraries/seekfree_libraries/zf_uart.c:44
    else if(tx_pin == UART1_TX_B6)
    180c:	fec42703          	lw	a4,-20(s0)
    1810:	4789                	li	a5,2
    1812:	02f71063          	bne	a4,a5,1832 <uart_gpio_init+0x5e>
D:\MounRiver\MounRiver_Studio\workspace\Seekfree_CH32V103R8T6_Opensource_Library\obj/../Libraries/seekfree_libraries/zf_uart.c:46
        gpio_init(B6, GPO, 0, SPEED_50MHZ|OUT_AF_PP);
    1816:	31800693          	li	a3,792
    181a:	4601                	li	a2,0
    181c:	4585                	li	a1,1
    181e:	02600513          	li	a0,38
    1822:	31e1                	jal	14ea <gpio_init>
D:\MounRiver\MounRiver_Studio\workspace\Seekfree_CH32V103R8T6_Opensource_Library\obj/../Libraries/seekfree_libraries/zf_uart.c:47
        gpio_init(B7, GPI, 0, IN_FLOAT);
    1824:	4691                	li	a3,4
    1826:	4601                	li	a2,0
    1828:	4581                	li	a1,0
    182a:	02700513          	li	a0,39
    182e:	3975                	jal	14ea <gpio_init>
D:\MounRiver\MounRiver_Studio\workspace\Seekfree_CH32V103R8T6_Opensource_Library\obj/../Libraries/seekfree_libraries/zf_uart.c:67
}
    1830:	a88d                	j	18a2 <uart_gpio_init+0xce>
D:\MounRiver\MounRiver_Studio\workspace\Seekfree_CH32V103R8T6_Opensource_Library\obj/../Libraries/seekfree_libraries/zf_uart.c:50
    else if(tx_pin == UART2_TX_A2)
    1832:	fec42703          	lw	a4,-20(s0)
    1836:	47c1                	li	a5,16
    1838:	00f71e63          	bne	a4,a5,1854 <uart_gpio_init+0x80>
D:\MounRiver\MounRiver_Studio\workspace\Seekfree_CH32V103R8T6_Opensource_Library\obj/../Libraries/seekfree_libraries/zf_uart.c:52
        gpio_init(A2, GPO, 0, SPEED_50MHZ|OUT_AF_PP);
    183c:	31800693          	li	a3,792
    1840:	4601                	li	a2,0
    1842:	4585                	li	a1,1
    1844:	4509                	li	a0,2
    1846:	3155                	jal	14ea <gpio_init>
D:\MounRiver\MounRiver_Studio\workspace\Seekfree_CH32V103R8T6_Opensource_Library\obj/../Libraries/seekfree_libraries/zf_uart.c:53
        gpio_init(A3, GPI, 0, IN_FLOAT);
    1848:	4691                	li	a3,4
    184a:	4601                	li	a2,0
    184c:	4581                	li	a1,0
    184e:	450d                	li	a0,3
    1850:	3969                	jal	14ea <gpio_init>
D:\MounRiver\MounRiver_Studio\workspace\Seekfree_CH32V103R8T6_Opensource_Library\obj/../Libraries/seekfree_libraries/zf_uart.c:67
}
    1852:	a881                	j	18a2 <uart_gpio_init+0xce>
D:\MounRiver\MounRiver_Studio\workspace\Seekfree_CH32V103R8T6_Opensource_Library\obj/../Libraries/seekfree_libraries/zf_uart.c:56
    else if(tx_pin == UART3_TX_B10)
    1854:	fec42703          	lw	a4,-20(s0)
    1858:	02000793          	li	a5,32
    185c:	02f71063          	bne	a4,a5,187c <uart_gpio_init+0xa8>
D:\MounRiver\MounRiver_Studio\workspace\Seekfree_CH32V103R8T6_Opensource_Library\obj/../Libraries/seekfree_libraries/zf_uart.c:58
        gpio_init(B10, GPO, 0, SPEED_50MHZ|OUT_AF_PP);
    1860:	31800693          	li	a3,792
    1864:	4601                	li	a2,0
    1866:	4585                	li	a1,1
    1868:	02a00513          	li	a0,42
    186c:	39bd                	jal	14ea <gpio_init>
D:\MounRiver\MounRiver_Studio\workspace\Seekfree_CH32V103R8T6_Opensource_Library\obj/../Libraries/seekfree_libraries/zf_uart.c:59
        gpio_init(B11, GPI, 0, IN_FLOAT);
    186e:	4691                	li	a3,4
    1870:	4601                	li	a2,0
    1872:	4581                	li	a1,0
    1874:	02b00513          	li	a0,43
    1878:	398d                	jal	14ea <gpio_init>
D:\MounRiver\MounRiver_Studio\workspace\Seekfree_CH32V103R8T6_Opensource_Library\obj/../Libraries/seekfree_libraries/zf_uart.c:67
}
    187a:	a025                	j	18a2 <uart_gpio_init+0xce>
D:\MounRiver\MounRiver_Studio\workspace\Seekfree_CH32V103R8T6_Opensource_Library\obj/../Libraries/seekfree_libraries/zf_uart.c:62
    else if(tx_pin == UART3_TX_C10)
    187c:	fec42703          	lw	a4,-20(s0)
    1880:	02200793          	li	a5,34
    1884:	00f71f63          	bne	a4,a5,18a2 <uart_gpio_init+0xce>
D:\MounRiver\MounRiver_Studio\workspace\Seekfree_CH32V103R8T6_Opensource_Library\obj/../Libraries/seekfree_libraries/zf_uart.c:64
        gpio_init(C10, GPO, 0, SPEED_50MHZ|OUT_AF_PP);
    1888:	31800693          	li	a3,792
    188c:	4601                	li	a2,0
    188e:	4585                	li	a1,1
    1890:	04a00513          	li	a0,74
    1894:	3999                	jal	14ea <gpio_init>
D:\MounRiver\MounRiver_Studio\workspace\Seekfree_CH32V103R8T6_Opensource_Library\obj/../Libraries/seekfree_libraries/zf_uart.c:65
        gpio_init(C11, GPI, 0, IN_FLOAT);
    1896:	4691                	li	a3,4
    1898:	4601                	li	a2,0
    189a:	4581                	li	a1,0
    189c:	04b00513          	li	a0,75
    18a0:	31a9                	jal	14ea <gpio_init>
D:\MounRiver\MounRiver_Studio\workspace\Seekfree_CH32V103R8T6_Opensource_Library\obj/../Libraries/seekfree_libraries/zf_uart.c:67
}
    18a2:	0001                	nop
    18a4:	40f2                	lw	ra,28(sp)
    18a6:	4462                	lw	s0,24(sp)
    18a8:	6105                	addi	sp,sp,32
    18aa:	8082                	ret

000018ac <uart_init>:
uart_init():
D:\MounRiver\MounRiver_Studio\workspace\Seekfree_CH32V103R8T6_Opensource_Library\obj/../Libraries/seekfree_libraries/zf_uart.c:79
//  @param      rx_pin      串口接收引脚号
//  @return     void
//  Sample usage:           uart_init(UART_1, 115200, UART1_TX_A9, UART1_RX_A10); //串口1初始化引脚号,TX为A9,RX为A10
//-------------------------------------------------------------------------------------------------------------------
void uart_init(UARTN_enum uartn, uint32 baud, UARTPIN_enum tx_pin, UARTPIN_enum rx_pin)
{
    18ac:	7179                	addi	sp,sp,-48
    18ae:	d606                	sw	ra,44(sp)
    18b0:	d422                	sw	s0,40(sp)
    18b2:	1800                	addi	s0,sp,48
    18b4:	fca42e23          	sw	a0,-36(s0)
    18b8:	fcb42c23          	sw	a1,-40(s0)
    18bc:	fcc42a23          	sw	a2,-44(s0)
    18c0:	fcd42823          	sw	a3,-48(s0)
D:\MounRiver\MounRiver_Studio\workspace\Seekfree_CH32V103R8T6_Opensource_Library\obj/../Libraries/seekfree_libraries/zf_uart.c:83
    USART_InitTypeDef USART_InitStructure;


    RCC_APB2PeriphClockCmd(RCC_APB2Periph_AFIO, ENABLE);
    18c4:	4585                	li	a1,1
    18c6:	4505                	li	a0,1
    18c8:	c84ff0ef          	jal	ra,d4c <RCC_APB2PeriphClockCmd>
D:\MounRiver\MounRiver_Studio\workspace\Seekfree_CH32V103R8T6_Opensource_Library\obj/../Libraries/seekfree_libraries/zf_uart.c:86

    //引脚初始化
    uart_gpio_init(tx_pin, rx_pin);
    18cc:	fd042583          	lw	a1,-48(s0)
    18d0:	fd442503          	lw	a0,-44(s0)
    18d4:	3701                	jal	17d4 <uart_gpio_init>
D:\MounRiver\MounRiver_Studio\workspace\Seekfree_CH32V103R8T6_Opensource_Library\obj/../Libraries/seekfree_libraries/zf_uart.c:88

    if(UART1_TX_B6 == tx_pin && UART1_RX_B7 == rx_pin)                         //引脚重映射
    18d6:	fd442703          	lw	a4,-44(s0)
    18da:	4789                	li	a5,2
    18dc:	00f71b63          	bne	a4,a5,18f2 <uart_init+0x46>
D:\MounRiver\MounRiver_Studio\workspace\Seekfree_CH32V103R8T6_Opensource_Library\obj/../Libraries/seekfree_libraries/zf_uart.c:88 (discriminator 1)
    18e0:	fd042703          	lw	a4,-48(s0)
    18e4:	478d                	li	a5,3
    18e6:	00f71663          	bne	a4,a5,18f2 <uart_init+0x46>
D:\MounRiver\MounRiver_Studio\workspace\Seekfree_CH32V103R8T6_Opensource_Library\obj/../Libraries/seekfree_libraries/zf_uart.c:89
        GPIO_PinRemapConfig(GPIO_Remap_USART1, ENABLE);
    18ea:	4585                	li	a1,1
    18ec:	4511                	li	a0,4
    18ee:	fb7fe0ef          	jal	ra,8a4 <GPIO_PinRemapConfig>
D:\MounRiver\MounRiver_Studio\workspace\Seekfree_CH32V103R8T6_Opensource_Library\obj/../Libraries/seekfree_libraries/zf_uart.c:90
    if(UART3_TX_C10 == tx_pin && UART3_RX_C11 == rx_pin)
    18f2:	fd442703          	lw	a4,-44(s0)
    18f6:	02200793          	li	a5,34
    18fa:	00f71f63          	bne	a4,a5,1918 <uart_init+0x6c>
D:\MounRiver\MounRiver_Studio\workspace\Seekfree_CH32V103R8T6_Opensource_Library\obj/../Libraries/seekfree_libraries/zf_uart.c:90 (discriminator 1)
    18fe:	fd042703          	lw	a4,-48(s0)
    1902:	02300793          	li	a5,35
    1906:	00f71963          	bne	a4,a5,1918 <uart_init+0x6c>
D:\MounRiver\MounRiver_Studio\workspace\Seekfree_CH32V103R8T6_Opensource_Library\obj/../Libraries/seekfree_libraries/zf_uart.c:91
        GPIO_PinRemapConfig(GPIO_PartialRemap_USART3, ENABLE);
    190a:	4585                	li	a1,1
    190c:	001407b7          	lui	a5,0x140
    1910:	01078513          	addi	a0,a5,16 # 140010 <_data_lma+0x13df28>
    1914:	f91fe0ef          	jal	ra,8a4 <GPIO_PinRemapConfig>
D:\MounRiver\MounRiver_Studio\workspace\Seekfree_CH32V103R8T6_Opensource_Library\obj/../Libraries/seekfree_libraries/zf_uart.c:94

    //串口总线使能
    if(UART_1 == uartn) RCC_APB2PeriphClockCmd(RCC_APB2Periph_USART1, ENABLE);
    1918:	fdc42783          	lw	a5,-36(s0)
    191c:	e791                	bnez	a5,1928 <uart_init+0x7c>
D:\MounRiver\MounRiver_Studio\workspace\Seekfree_CH32V103R8T6_Opensource_Library\obj/../Libraries/seekfree_libraries/zf_uart.c:94 (discriminator 1)
    191e:	4585                	li	a1,1
    1920:	6511                	lui	a0,0x4
    1922:	c2aff0ef          	jal	ra,d4c <RCC_APB2PeriphClockCmd>
    1926:	a035                	j	1952 <uart_init+0xa6>
D:\MounRiver\MounRiver_Studio\workspace\Seekfree_CH32V103R8T6_Opensource_Library\obj/../Libraries/seekfree_libraries/zf_uart.c:95
    else if(UART_2 == uartn) RCC_APB1PeriphClockCmd(RCC_APB1Periph_USART2, ENABLE);
    1928:	fdc42703          	lw	a4,-36(s0)
    192c:	4785                	li	a5,1
    192e:	00f71863          	bne	a4,a5,193e <uart_init+0x92>
D:\MounRiver\MounRiver_Studio\workspace\Seekfree_CH32V103R8T6_Opensource_Library\obj/../Libraries/seekfree_libraries/zf_uart.c:95 (discriminator 1)
    1932:	4585                	li	a1,1
    1934:	00020537          	lui	a0,0x20
    1938:	c5aff0ef          	jal	ra,d92 <RCC_APB1PeriphClockCmd>
    193c:	a819                	j	1952 <uart_init+0xa6>
D:\MounRiver\MounRiver_Studio\workspace\Seekfree_CH32V103R8T6_Opensource_Library\obj/../Libraries/seekfree_libraries/zf_uart.c:96
    else if(UART_3 == uartn) RCC_APB1PeriphClockCmd(RCC_APB1Periph_USART3, ENABLE);
    193e:	fdc42703          	lw	a4,-36(s0)
    1942:	4789                	li	a5,2
    1944:	00f71763          	bne	a4,a5,1952 <uart_init+0xa6>
D:\MounRiver\MounRiver_Studio\workspace\Seekfree_CH32V103R8T6_Opensource_Library\obj/../Libraries/seekfree_libraries/zf_uart.c:96 (discriminator 1)
    1948:	4585                	li	a1,1
    194a:	00040537          	lui	a0,0x40
    194e:	c44ff0ef          	jal	ra,d92 <RCC_APB1PeriphClockCmd>
D:\MounRiver\MounRiver_Studio\workspace\Seekfree_CH32V103R8T6_Opensource_Library\obj/../Libraries/seekfree_libraries/zf_uart.c:99

    //串口参数配置
    USART_InitStructure.USART_BaudRate = baud;
    1952:	fd842783          	lw	a5,-40(s0)
    1956:	fef42023          	sw	a5,-32(s0)
D:\MounRiver\MounRiver_Studio\workspace\Seekfree_CH32V103R8T6_Opensource_Library\obj/../Libraries/seekfree_libraries/zf_uart.c:100
    USART_InitStructure.USART_WordLength = USART_WordLength_8b;
    195a:	fe041223          	sh	zero,-28(s0)
D:\MounRiver\MounRiver_Studio\workspace\Seekfree_CH32V103R8T6_Opensource_Library\obj/../Libraries/seekfree_libraries/zf_uart.c:101
    USART_InitStructure.USART_StopBits = USART_StopBits_1;
    195e:	fe041323          	sh	zero,-26(s0)
D:\MounRiver\MounRiver_Studio\workspace\Seekfree_CH32V103R8T6_Opensource_Library\obj/../Libraries/seekfree_libraries/zf_uart.c:102
    USART_InitStructure.USART_Parity = USART_Parity_No;
    1962:	fe041423          	sh	zero,-24(s0)
D:\MounRiver\MounRiver_Studio\workspace\Seekfree_CH32V103R8T6_Opensource_Library\obj/../Libraries/seekfree_libraries/zf_uart.c:103
    USART_InitStructure.USART_HardwareFlowControl = USART_HardwareFlowControl_None;
    1966:	fe041623          	sh	zero,-20(s0)
D:\MounRiver\MounRiver_Studio\workspace\Seekfree_CH32V103R8T6_Opensource_Library\obj/../Libraries/seekfree_libraries/zf_uart.c:104
    USART_InitStructure.USART_Mode = USART_Mode_Tx | USART_Mode_Rx;
    196a:	47b1                	li	a5,12
    196c:	fef41523          	sh	a5,-22(s0)
D:\MounRiver\MounRiver_Studio\workspace\Seekfree_CH32V103R8T6_Opensource_Library\obj/../Libraries/seekfree_libraries/zf_uart.c:107

    //使能串口
    USART_Init((USART_TypeDef*)UARTN[uartn], &USART_InitStructure);
    1970:	6789                	lui	a5,0x2
    1972:	fdc42703          	lw	a4,-36(s0)
    1976:	070a                	slli	a4,a4,0x2
    1978:	0d878793          	addi	a5,a5,216 # 20d8 <UARTN>
    197c:	97ba                	add	a5,a5,a4
    197e:	439c                	lw	a5,0(a5)
    1980:	873e                	mv	a4,a5
    1982:	fe040793          	addi	a5,s0,-32
    1986:	85be                	mv	a1,a5
    1988:	853a                	mv	a0,a4
    198a:	cecff0ef          	jal	ra,e76 <USART_Init>
D:\MounRiver\MounRiver_Studio\workspace\Seekfree_CH32V103R8T6_Opensource_Library\obj/../Libraries/seekfree_libraries/zf_uart.c:108
    USART_Cmd((USART_TypeDef*)UARTN[uartn], ENABLE);
    198e:	6789                	lui	a5,0x2
    1990:	fdc42703          	lw	a4,-36(s0)
    1994:	070a                	slli	a4,a4,0x2
    1996:	0d878793          	addi	a5,a5,216 # 20d8 <UARTN>
    199a:	97ba                	add	a5,a5,a4
    199c:	439c                	lw	a5,0(a5)
    199e:	4585                	li	a1,1
    19a0:	853e                	mv	a0,a5
    19a2:	f06ff0ef          	jal	ra,10a8 <USART_Cmd>
D:\MounRiver\MounRiver_Studio\workspace\Seekfree_CH32V103R8T6_Opensource_Library\obj/../Libraries/seekfree_libraries/zf_uart.c:111


}
    19a6:	0001                	nop
    19a8:	50b2                	lw	ra,44(sp)
    19aa:	5422                	lw	s0,40(sp)
    19ac:	6145                	addi	sp,sp,48
    19ae:	8082                	ret

000019b0 <uart_putchar>:
uart_putchar():
D:\MounRiver\MounRiver_Studio\workspace\Seekfree_CH32V103R8T6_Opensource_Library\obj/../Libraries/seekfree_libraries/zf_uart.c:122
//  @param      dat         串口数据
//  @return     void
//  Sample usage:           uart_putchar(UART_1, 0x43);        //串口1发送0x43。
//-------------------------------------------------------------------------------------------------------------------
void uart_putchar(UARTN_enum uartn, uint8 dat)
{
    19b0:	1101                	addi	sp,sp,-32
    19b2:	ce22                	sw	s0,28(sp)
    19b4:	1000                	addi	s0,sp,32
    19b6:	fea42623          	sw	a0,-20(s0)
    19ba:	87ae                	mv	a5,a1
    19bc:	fef405a3          	sb	a5,-21(s0)
D:\MounRiver\MounRiver_Studio\workspace\Seekfree_CH32V103R8T6_Opensource_Library\obj/../Libraries/seekfree_libraries/zf_uart.c:123
    while((((USART_TypeDef*)UARTN[uartn])->STATR & USART_FLAG_TXE)==0);
    19c0:	0001                	nop
D:\MounRiver\MounRiver_Studio\workspace\Seekfree_CH32V103R8T6_Opensource_Library\obj/../Libraries/seekfree_libraries/zf_uart.c:123 (discriminator 1)
    19c2:	6789                	lui	a5,0x2
    19c4:	fec42703          	lw	a4,-20(s0)
    19c8:	070a                	slli	a4,a4,0x2
    19ca:	0d878793          	addi	a5,a5,216 # 20d8 <UARTN>
    19ce:	97ba                	add	a5,a5,a4
    19d0:	439c                	lw	a5,0(a5)
    19d2:	0007d783          	lhu	a5,0(a5)
    19d6:	07c2                	slli	a5,a5,0x10
    19d8:	83c1                	srli	a5,a5,0x10
    19da:	0807f793          	andi	a5,a5,128
    19de:	d3f5                	beqz	a5,19c2 <uart_putchar+0x12>
D:\MounRiver\MounRiver_Studio\workspace\Seekfree_CH32V103R8T6_Opensource_Library\obj/../Libraries/seekfree_libraries/zf_uart.c:124
    ((USART_TypeDef*)UARTN[uartn])->DATAR = dat;
    19e0:	6789                	lui	a5,0x2
    19e2:	fec42703          	lw	a4,-20(s0)
    19e6:	070a                	slli	a4,a4,0x2
    19e8:	0d878793          	addi	a5,a5,216 # 20d8 <UARTN>
    19ec:	97ba                	add	a5,a5,a4
    19ee:	439c                	lw	a5,0(a5)
    19f0:	873e                	mv	a4,a5
    19f2:	feb44783          	lbu	a5,-21(s0)
    19f6:	07c2                	slli	a5,a5,0x10
    19f8:	83c1                	srli	a5,a5,0x10
    19fa:	00f71223          	sh	a5,4(a4) # 10004 <_data_lma+0xdf1c>
D:\MounRiver\MounRiver_Studio\workspace\Seekfree_CH32V103R8T6_Opensource_Library\obj/../Libraries/seekfree_libraries/zf_uart.c:125
}
    19fe:	0001                	nop
    1a00:	4472                	lw	s0,28(sp)
    1a02:	6105                	addi	sp,sp,32
    1a04:	8082                	ret

00001a06 <uart_putbuff>:
uart_putbuff():
D:\MounRiver\MounRiver_Studio\workspace\Seekfree_CH32V103R8T6_Opensource_Library\obj/../Libraries/seekfree_libraries/zf_uart.c:136
//  @param      len         数据长度
//  @return     void
//  Sample usage:           uart_putbuff(UART_1, buff, 10);     //串口1发送10个buff数组。
//-------------------------------------------------------------------------------------------------------------------
void uart_putbuff(UARTN_enum uartn, uint8 *buff, uint32 len)
{
    1a06:	1101                	addi	sp,sp,-32
    1a08:	ce06                	sw	ra,28(sp)
    1a0a:	cc22                	sw	s0,24(sp)
    1a0c:	1000                	addi	s0,sp,32
    1a0e:	fea42623          	sw	a0,-20(s0)
    1a12:	feb42423          	sw	a1,-24(s0)
    1a16:	fec42223          	sw	a2,-28(s0)
D:\MounRiver\MounRiver_Studio\workspace\Seekfree_CH32V103R8T6_Opensource_Library\obj/../Libraries/seekfree_libraries/zf_uart.c:137
    while(len--)
    1a1a:	a829                	j	1a34 <uart_putbuff+0x2e>
D:\MounRiver\MounRiver_Studio\workspace\Seekfree_CH32V103R8T6_Opensource_Library\obj/../Libraries/seekfree_libraries/zf_uart.c:138
        uart_putchar(uartn, *buff++);
    1a1c:	fe842783          	lw	a5,-24(s0)
    1a20:	00178713          	addi	a4,a5,1
    1a24:	fee42423          	sw	a4,-24(s0)
    1a28:	0007c783          	lbu	a5,0(a5)
    1a2c:	85be                	mv	a1,a5
    1a2e:	fec42503          	lw	a0,-20(s0)
    1a32:	3fbd                	jal	19b0 <uart_putchar>
D:\MounRiver\MounRiver_Studio\workspace\Seekfree_CH32V103R8T6_Opensource_Library\obj/../Libraries/seekfree_libraries/zf_uart.c:137
    while(len--)
    1a34:	fe442783          	lw	a5,-28(s0)
    1a38:	fff78713          	addi	a4,a5,-1
    1a3c:	fee42223          	sw	a4,-28(s0)
    1a40:	fff1                	bnez	a5,1a1c <uart_putbuff+0x16>
D:\MounRiver\MounRiver_Studio\workspace\Seekfree_CH32V103R8T6_Opensource_Library\obj/../Libraries/seekfree_libraries/zf_uart.c:139
}
    1a42:	0001                	nop
    1a44:	40f2                	lw	ra,28(sp)
    1a46:	4462                	lw	s0,24(sp)
    1a48:	6105                	addi	sp,sp,32
    1a4a:	8082                	ret

00001a4c <uart_rx_irq>:
uart_rx_irq():
D:\MounRiver\MounRiver_Studio\workspace\Seekfree_CH32V103R8T6_Opensource_Library\obj/../Libraries/seekfree_libraries/zf_uart.c:165
//  @param      status      使能或者失能
//  @return     void
//  Sample usage:           uart_rx_irq(UART_1, ENABLE);        //打开串口1接收中断
//-------------------------------------------------------------------------------------------------------------------
void uart_rx_irq(UARTN_enum uartn,uint8 status)
{
    1a4c:	1101                	addi	sp,sp,-32
    1a4e:	ce06                	sw	ra,28(sp)
    1a50:	cc22                	sw	s0,24(sp)
    1a52:	1000                	addi	s0,sp,32
    1a54:	fea42623          	sw	a0,-20(s0)
    1a58:	87ae                	mv	a5,a1
    1a5a:	fef405a3          	sb	a5,-21(s0)
D:\MounRiver\MounRiver_Studio\workspace\Seekfree_CH32V103R8T6_Opensource_Library\obj/../Libraries/seekfree_libraries/zf_uart.c:166
    USART_ITConfig(((USART_TypeDef*)UARTN[uartn]), USART_IT_RXNE, ENABLE);
    1a5e:	6789                	lui	a5,0x2
    1a60:	fec42703          	lw	a4,-20(s0)
    1a64:	070a                	slli	a4,a4,0x2
    1a66:	0d878793          	addi	a5,a5,216 # 20d8 <UARTN>
    1a6a:	97ba                	add	a5,a5,a4
    1a6c:	439c                	lw	a5,0(a5)
    1a6e:	4605                	li	a2,1
    1a70:	52500593          	li	a1,1317
    1a74:	853e                	mv	a0,a5
    1a76:	e92ff0ef          	jal	ra,1108 <USART_ITConfig>
D:\MounRiver\MounRiver_Studio\workspace\Seekfree_CH32V103R8T6_Opensource_Library\obj/../Libraries/seekfree_libraries/zf_uart.c:167
    nvic_init(USART1_IRQn + uartn, 1, 0, status);
    1a7a:	fec42783          	lw	a5,-20(s0)
    1a7e:	03578793          	addi	a5,a5,53
    1a82:	feb44703          	lbu	a4,-21(s0)
    1a86:	86ba                	mv	a3,a4
    1a88:	4601                	li	a2,0
    1a8a:	4585                	li	a1,1
    1a8c:	853e                	mv	a0,a5
    1a8e:	3101                	jal	168e <nvic_init>
D:\MounRiver\MounRiver_Studio\workspace\Seekfree_CH32V103R8T6_Opensource_Library\obj/../Libraries/seekfree_libraries/zf_uart.c:168
}
    1a90:	0001                	nop
    1a92:	40f2                	lw	ra,28(sp)
    1a94:	4462                	lw	s0,24(sp)
    1a96:	6105                	addi	sp,sp,32
    1a98:	8082                	ret

00001a9a <board_init>:
board_init():
D:\MounRiver\MounRiver_Studio\workspace\Seekfree_CH32V103R8T6_Opensource_Library\obj/../Libraries/board/board.c:9




void board_init(void)
{
    1a9a:	1141                	addi	sp,sp,-16
    1a9c:	c622                	sw	s0,12(sp)
    1a9e:	0800                	addi	s0,sp,16
D:\MounRiver\MounRiver_Studio\workspace\Seekfree_CH32V103R8T6_Opensource_Library\obj/../Libraries/board/board.c:11
    //获取系统主频
    sys_clk = 8000000 * (((RCC->CFGR0 >> 18)&0x0F) + 2);
    1aa0:	400217b7          	lui	a5,0x40021
    1aa4:	43dc                	lw	a5,4(a5)
    1aa6:	83c9                	srli	a5,a5,0x12
    1aa8:	00f7f713          	andi	a4,a5,15
    1aac:	007a17b7          	lui	a5,0x7a1
    1ab0:	20078793          	addi	a5,a5,512 # 7a1200 <_data_lma+0x79f118>
    1ab4:	02f70733          	mul	a4,a4,a5
    1ab8:	00f427b7          	lui	a5,0xf42
    1abc:	40078793          	addi	a5,a5,1024 # f42400 <_data_lma+0xf40318>
    1ac0:	973e                	add	a4,a4,a5
    1ac2:	82e1a023          	sw	a4,-2016(gp) # 20000088 <sys_clk>
D:\MounRiver\MounRiver_Studio\workspace\Seekfree_CH32V103R8T6_Opensource_Library\obj/../Libraries/board/board.c:14
    //初始化DEBUG串口
//    uart_init(DEBUG_UART, DEBUG_UART_BAUD, DEBUG_UART_TX_PIN, DEBUG_UART_RX_PIN);
}
    1ac6:	0001                	nop
    1ac8:	4432                	lw	s0,12(sp)
    1aca:	0141                	addi	sp,sp,16
    1acc:	8082                	ret

00001ace <SetSysClock>:
SetSysClock():
D:\MounRiver\MounRiver_Studio\workspace\Seekfree_CH32V103R8T6_Opensource_Library\obj/../Libraries/board/clock_config.c:11
* Description    : Sets System clock frequency to 72MHz and configure HCLK, PCLK2 and PCLK1 prescalers.
* Input          : None
* Return         : None
*******************************************************************************************/
static void SetSysClock(void)
{
    1ace:	1101                	addi	sp,sp,-32
    1ad0:	ce22                	sw	s0,28(sp)
    1ad2:	1000                	addi	s0,sp,32
D:\MounRiver\MounRiver_Studio\workspace\Seekfree_CH32V103R8T6_Opensource_Library\obj/../Libraries/board/clock_config.c:12
    __IO uint32_t StartUpCounter = 0, HSEStatus = 0;
    1ad4:	fe042623          	sw	zero,-20(s0)
    1ad8:	fe042423          	sw	zero,-24(s0)
D:\MounRiver\MounRiver_Studio\workspace\Seekfree_CH32V103R8T6_Opensource_Library\obj/../Libraries/board/clock_config.c:14

    RCC->CTLR |= ((uint32_t)RCC_HSEON);
    1adc:	400217b7          	lui	a5,0x40021
    1ae0:	4394                	lw	a3,0(a5)
    1ae2:	400217b7          	lui	a5,0x40021
    1ae6:	6741                	lui	a4,0x10
    1ae8:	8f55                	or	a4,a4,a3
    1aea:	c398                	sw	a4,0(a5)
D:\MounRiver\MounRiver_Studio\workspace\Seekfree_CH32V103R8T6_Opensource_Library\obj/../Libraries/board/clock_config.c:19 (discriminator 2)

    /* Wait till HSE is ready and if Time out is reached exit */
    do
    {
        HSEStatus = RCC->CTLR & RCC_HSERDY;
    1aec:	400217b7          	lui	a5,0x40021
    1af0:	4398                	lw	a4,0(a5)
    1af2:	000207b7          	lui	a5,0x20
    1af6:	8ff9                	and	a5,a5,a4
    1af8:	fef42423          	sw	a5,-24(s0)
D:\MounRiver\MounRiver_Studio\workspace\Seekfree_CH32V103R8T6_Opensource_Library\obj/../Libraries/board/clock_config.c:20 (discriminator 2)
        StartUpCounter++;
    1afc:	fec42783          	lw	a5,-20(s0)
    1b00:	0785                	addi	a5,a5,1
    1b02:	fef42623          	sw	a5,-20(s0)
D:\MounRiver\MounRiver_Studio\workspace\Seekfree_CH32V103R8T6_Opensource_Library\obj/../Libraries/board/clock_config.c:21 (discriminator 2)
    } while((HSEStatus == 0) && (StartUpCounter != HSE_STARTUP_TIMEOUT));
    1b06:	fe842783          	lw	a5,-24(s0)
    1b0a:	e799                	bnez	a5,1b18 <SetSysClock+0x4a>
D:\MounRiver\MounRiver_Studio\workspace\Seekfree_CH32V103R8T6_Opensource_Library\obj/../Libraries/board/clock_config.c:21 (discriminator 1)
    1b0c:	fec42703          	lw	a4,-20(s0)
    1b10:	50000793          	li	a5,1280
    1b14:	fcf71ce3          	bne	a4,a5,1aec <SetSysClock+0x1e>
D:\MounRiver\MounRiver_Studio\workspace\Seekfree_CH32V103R8T6_Opensource_Library\obj/../Libraries/board/clock_config.c:23

    if ((RCC->CTLR & RCC_HSERDY) != RESET)
    1b18:	400217b7          	lui	a5,0x40021
    1b1c:	4398                	lw	a4,0(a5)
    1b1e:	000207b7          	lui	a5,0x20
    1b22:	8ff9                	and	a5,a5,a4
    1b24:	c789                	beqz	a5,1b2e <SetSysClock+0x60>
D:\MounRiver\MounRiver_Studio\workspace\Seekfree_CH32V103R8T6_Opensource_Library\obj/../Libraries/board/clock_config.c:25
    {
        HSEStatus = (uint32_t)0x01;
    1b26:	4785                	li	a5,1
    1b28:	fef42423          	sw	a5,-24(s0)
    1b2c:	a019                	j	1b32 <SetSysClock+0x64>
D:\MounRiver\MounRiver_Studio\workspace\Seekfree_CH32V103R8T6_Opensource_Library\obj/../Libraries/board/clock_config.c:29
    }
    else
    {
        HSEStatus = (uint32_t)0x00;
    1b2e:	fe042423          	sw	zero,-24(s0)
D:\MounRiver\MounRiver_Studio\workspace\Seekfree_CH32V103R8T6_Opensource_Library\obj/../Libraries/board/clock_config.c:32
    }

    if (HSEStatus == (uint32_t)0x01)
    1b32:	fe842703          	lw	a4,-24(s0)
    1b36:	4785                	li	a5,1
    1b38:	0cf71763          	bne	a4,a5,1c06 <SetSysClock+0x138>
D:\MounRiver\MounRiver_Studio\workspace\Seekfree_CH32V103R8T6_Opensource_Library\obj/../Libraries/board/clock_config.c:35
    {
        /* Enable Prefetch Buffer */
        FLASH->ACTLR |= FLASH_ACTLR_PRFTBE;
    1b3c:	400227b7          	lui	a5,0x40022
    1b40:	4398                	lw	a4,0(a5)
    1b42:	400227b7          	lui	a5,0x40022
    1b46:	01076713          	ori	a4,a4,16
    1b4a:	c398                	sw	a4,0(a5)
D:\MounRiver\MounRiver_Studio\workspace\Seekfree_CH32V103R8T6_Opensource_Library\obj/../Libraries/board/clock_config.c:38

        /* Flash 2 wait state */
        FLASH->ACTLR &= (uint32_t)((uint32_t)~FLASH_ACTLR_LATENCY);
    1b4c:	400227b7          	lui	a5,0x40022
    1b50:	4398                	lw	a4,0(a5)
    1b52:	400227b7          	lui	a5,0x40022
    1b56:	9b71                	andi	a4,a4,-4
    1b58:	c398                	sw	a4,0(a5)
D:\MounRiver\MounRiver_Studio\workspace\Seekfree_CH32V103R8T6_Opensource_Library\obj/../Libraries/board/clock_config.c:39
        FLASH->ACTLR |= (uint32_t)FLASH_ACTLR_LATENCY_2;
    1b5a:	400227b7          	lui	a5,0x40022
    1b5e:	4398                	lw	a4,0(a5)
    1b60:	400227b7          	lui	a5,0x40022
    1b64:	00276713          	ori	a4,a4,2
    1b68:	c398                	sw	a4,0(a5)
D:\MounRiver\MounRiver_Studio\workspace\Seekfree_CH32V103R8T6_Opensource_Library\obj/../Libraries/board/clock_config.c:42

        /* HCLK = SYSCLK */
        RCC->CFGR0 |= (uint32_t)RCC_HPRE_DIV1;
    1b6a:	40021737          	lui	a4,0x40021
    1b6e:	400217b7          	lui	a5,0x40021
    1b72:	4358                	lw	a4,4(a4)
    1b74:	c3d8                	sw	a4,4(a5)
D:\MounRiver\MounRiver_Studio\workspace\Seekfree_CH32V103R8T6_Opensource_Library\obj/../Libraries/board/clock_config.c:44
        /* PCLK2 = HCLK */
        RCC->CFGR0 |= (uint32_t)RCC_PPRE2_DIV1;
    1b76:	40021737          	lui	a4,0x40021
    1b7a:	400217b7          	lui	a5,0x40021
    1b7e:	4358                	lw	a4,4(a4)
    1b80:	c3d8                	sw	a4,4(a5)
D:\MounRiver\MounRiver_Studio\workspace\Seekfree_CH32V103R8T6_Opensource_Library\obj/../Libraries/board/clock_config.c:46
        /* PCLK1 = HCLK */
        RCC->CFGR0 |= (uint32_t)RCC_PPRE1_DIV1;
    1b82:	40021737          	lui	a4,0x40021
    1b86:	400217b7          	lui	a5,0x40021
    1b8a:	4358                	lw	a4,4(a4)
    1b8c:	c3d8                	sw	a4,4(a5)
D:\MounRiver\MounRiver_Studio\workspace\Seekfree_CH32V103R8T6_Opensource_Library\obj/../Libraries/board/clock_config.c:49


        RCC->CFGR0 &= (uint32_t)((uint32_t)~(RCC_PLLSRC | RCC_PLLXTPRE |
    1b8e:	400217b7          	lui	a5,0x40021
    1b92:	43d4                	lw	a3,4(a5)
    1b94:	400217b7          	lui	a5,0x40021
    1b98:	ffc10737          	lui	a4,0xffc10
    1b9c:	177d                	addi	a4,a4,-1
    1b9e:	8f75                	and	a4,a4,a3
    1ba0:	c3d8                	sw	a4,4(a5)
D:\MounRiver\MounRiver_Studio\workspace\Seekfree_CH32V103R8T6_Opensource_Library\obj/../Libraries/board/clock_config.c:52
                                            RCC_PLLMULL));
        /*  PLL configuration: PLLCLK = HSE * ?  */
        RCC->CFGR0 |= (uint32_t)(RCC_PLLSRC_HSE | RCC_PLLMULL11);
    1ba2:	400217b7          	lui	a5,0x40021
    1ba6:	43d4                	lw	a3,4(a5)
    1ba8:	400217b7          	lui	a5,0x40021
    1bac:	00250737          	lui	a4,0x250
    1bb0:	8f55                	or	a4,a4,a3
    1bb2:	c3d8                	sw	a4,4(a5)
D:\MounRiver\MounRiver_Studio\workspace\Seekfree_CH32V103R8T6_Opensource_Library\obj/../Libraries/board/clock_config.c:54
        /* Enable PLL */
        RCC->CTLR |= RCC_PLLON;
    1bb4:	400217b7          	lui	a5,0x40021
    1bb8:	4394                	lw	a3,0(a5)
    1bba:	400217b7          	lui	a5,0x40021
    1bbe:	01000737          	lui	a4,0x1000
    1bc2:	8f55                	or	a4,a4,a3
    1bc4:	c398                	sw	a4,0(a5)
D:\MounRiver\MounRiver_Studio\workspace\Seekfree_CH32V103R8T6_Opensource_Library\obj/../Libraries/board/clock_config.c:56
        /* Wait till PLL is ready */
        while((RCC->CTLR & RCC_PLLRDY) == 0)
    1bc6:	0001                	nop
D:\MounRiver\MounRiver_Studio\workspace\Seekfree_CH32V103R8T6_Opensource_Library\obj/../Libraries/board/clock_config.c:56 (discriminator 1)
    1bc8:	400217b7          	lui	a5,0x40021
    1bcc:	4398                	lw	a4,0(a5)
    1bce:	020007b7          	lui	a5,0x2000
    1bd2:	8ff9                	and	a5,a5,a4
    1bd4:	dbf5                	beqz	a5,1bc8 <SetSysClock+0xfa>
D:\MounRiver\MounRiver_Studio\workspace\Seekfree_CH32V103R8T6_Opensource_Library\obj/../Libraries/board/clock_config.c:60
        {
        }
        /* Select PLL as system clock source */
        RCC->CFGR0 &= (uint32_t)((uint32_t)~(RCC_SW));
    1bd6:	400217b7          	lui	a5,0x40021
    1bda:	43d8                	lw	a4,4(a5)
    1bdc:	400217b7          	lui	a5,0x40021
    1be0:	9b71                	andi	a4,a4,-4
    1be2:	c3d8                	sw	a4,4(a5)
D:\MounRiver\MounRiver_Studio\workspace\Seekfree_CH32V103R8T6_Opensource_Library\obj/../Libraries/board/clock_config.c:61
        RCC->CFGR0 |= (uint32_t)RCC_SW_PLL;
    1be4:	400217b7          	lui	a5,0x40021
    1be8:	43d8                	lw	a4,4(a5)
    1bea:	400217b7          	lui	a5,0x40021
    1bee:	00276713          	ori	a4,a4,2
    1bf2:	c3d8                	sw	a4,4(a5)
D:\MounRiver\MounRiver_Studio\workspace\Seekfree_CH32V103R8T6_Opensource_Library\obj/../Libraries/board/clock_config.c:63
        /* Wait till PLL is used as system clock source */
        while ((RCC->CFGR0 & (uint32_t)RCC_SWS) != (uint32_t)0x08)
    1bf4:	0001                	nop
D:\MounRiver\MounRiver_Studio\workspace\Seekfree_CH32V103R8T6_Opensource_Library\obj/../Libraries/board/clock_config.c:63 (discriminator 1)
    1bf6:	400217b7          	lui	a5,0x40021
    1bfa:	43dc                	lw	a5,4(a5)
    1bfc:	00c7f713          	andi	a4,a5,12
    1c00:	47a1                	li	a5,8
    1c02:	fef71ae3          	bne	a4,a5,1bf6 <SetSysClock+0x128>
D:\MounRiver\MounRiver_Studio\workspace\Seekfree_CH32V103R8T6_Opensource_Library\obj/../Libraries/board/clock_config.c:74
        /*
         * If HSE fails to start-up, the application will have wrong clock
     * configuration. User can add here some code to deal with this error
         */
    }
}
    1c06:	0001                	nop
    1c08:	4472                	lw	s0,28(sp)
    1c0a:	6105                	addi	sp,sp,32
    1c0c:	8082                	ret

00001c0e <SystemInit>:
SystemInit():
D:\MounRiver\MounRiver_Studio\workspace\Seekfree_CH32V103R8T6_Opensource_Library\obj/../Libraries/board/clock_config.c:84
*                  the PLL and update the SystemCoreClock variable.
* Input          : None
* Return         : None
*******************************************************************************************/
void SystemInit (void)
{
    1c0e:	1141                	addi	sp,sp,-16
    1c10:	c606                	sw	ra,12(sp)
    1c12:	c422                	sw	s0,8(sp)
    1c14:	0800                	addi	s0,sp,16
D:\MounRiver\MounRiver_Studio\workspace\Seekfree_CH32V103R8T6_Opensource_Library\obj/../Libraries/board/clock_config.c:85
    RCC->CTLR |= (uint32_t)0x00000001;
    1c16:	400217b7          	lui	a5,0x40021
    1c1a:	4398                	lw	a4,0(a5)
    1c1c:	400217b7          	lui	a5,0x40021
    1c20:	00176713          	ori	a4,a4,1
    1c24:	c398                	sw	a4,0(a5)
D:\MounRiver\MounRiver_Studio\workspace\Seekfree_CH32V103R8T6_Opensource_Library\obj/../Libraries/board/clock_config.c:86
    RCC->CFGR0 &= (uint32_t)0xF8FF0000;
    1c26:	400217b7          	lui	a5,0x40021
    1c2a:	43d4                	lw	a3,4(a5)
    1c2c:	400217b7          	lui	a5,0x40021
    1c30:	f8ff0737          	lui	a4,0xf8ff0
    1c34:	8f75                	and	a4,a4,a3
    1c36:	c3d8                	sw	a4,4(a5)
D:\MounRiver\MounRiver_Studio\workspace\Seekfree_CH32V103R8T6_Opensource_Library\obj/../Libraries/board/clock_config.c:87
    RCC->CTLR &= (uint32_t)0xFEF6FFFF;
    1c38:	400217b7          	lui	a5,0x40021
    1c3c:	4394                	lw	a3,0(a5)
    1c3e:	400217b7          	lui	a5,0x40021
    1c42:	fef70737          	lui	a4,0xfef70
    1c46:	177d                	addi	a4,a4,-1
    1c48:	8f75                	and	a4,a4,a3
    1c4a:	c398                	sw	a4,0(a5)
D:\MounRiver\MounRiver_Studio\workspace\Seekfree_CH32V103R8T6_Opensource_Library\obj/../Libraries/board/clock_config.c:88
    RCC->CTLR &= (uint32_t)0xFFFBFFFF;
    1c4c:	400217b7          	lui	a5,0x40021
    1c50:	4394                	lw	a3,0(a5)
    1c52:	400217b7          	lui	a5,0x40021
    1c56:	fffc0737          	lui	a4,0xfffc0
    1c5a:	177d                	addi	a4,a4,-1
    1c5c:	8f75                	and	a4,a4,a3
    1c5e:	c398                	sw	a4,0(a5)
D:\MounRiver\MounRiver_Studio\workspace\Seekfree_CH32V103R8T6_Opensource_Library\obj/../Libraries/board/clock_config.c:89
    RCC->CFGR0 &= (uint32_t)0xFF80FFFF;
    1c60:	400217b7          	lui	a5,0x40021
    1c64:	43d4                	lw	a3,4(a5)
    1c66:	400217b7          	lui	a5,0x40021
    1c6a:	ff810737          	lui	a4,0xff810
    1c6e:	177d                	addi	a4,a4,-1
    1c70:	8f75                	and	a4,a4,a3
    1c72:	c3d8                	sw	a4,4(a5)
D:\MounRiver\MounRiver_Studio\workspace\Seekfree_CH32V103R8T6_Opensource_Library\obj/../Libraries/board/clock_config.c:90
    RCC->INTR = 0x009F0000;
    1c74:	400217b7          	lui	a5,0x40021
    1c78:	009f0737          	lui	a4,0x9f0
    1c7c:	c798                	sw	a4,8(a5)
D:\MounRiver\MounRiver_Studio\workspace\Seekfree_CH32V103R8T6_Opensource_Library\obj/../Libraries/board/clock_config.c:91
    SetSysClock();
    1c7e:	3d81                	jal	1ace <SetSysClock>
D:\MounRiver\MounRiver_Studio\workspace\Seekfree_CH32V103R8T6_Opensource_Library\obj/../Libraries/board/clock_config.c:92
}
    1c80:	0001                	nop
    1c82:	40b2                	lw	ra,12(sp)
    1c84:	4422                	lw	s0,8(sp)
    1c86:	0141                	addi	sp,sp,16
    1c88:	8082                	ret

00001c8a <Robot_Communite_Init>:
Robot_Communite_Init():
D:\MounRiver\MounRiver_Studio\workspace\Robot_Master\obj/../CODE/Robot_Communite.c:20
//  @update             2021-8-23
//  @param              null
//  @return             null
//  Sample usage:       Robot_Communite_Init()
//-------------------------------------------------------------------------------------------------------------------
void Robot_Communite_Init(void){
    1c8a:	1141                	addi	sp,sp,-16
    1c8c:	c606                	sw	ra,12(sp)
    1c8e:	c422                	sw	s0,8(sp)
    1c90:	0800                	addi	s0,sp,16
D:\MounRiver\MounRiver_Studio\workspace\Robot_Master\obj/../CODE/Robot_Communite.c:21
    uart_init(UART_ROBOT, UART_ROBOT_BPS, UART_ROBOT_TX, UART_ROBOT_RX);    //配置串口中断号,波特率,TX,RX
    1c92:	4685                	li	a3,1
    1c94:	4601                	li	a2,0
    1c96:	67f1                	lui	a5,0x1c
    1c98:	20078593          	addi	a1,a5,512 # 1c200 <_data_lma+0x1a118>
    1c9c:	4501                	li	a0,0
    1c9e:	3139                	jal	18ac <uart_init>
D:\MounRiver\MounRiver_Studio\workspace\Robot_Master\obj/../CODE/Robot_Communite.c:22
    gpio_init(UART_ROBOT_RTS, GPI, 1, GPIO_PIN_CONFIG);
    1ca0:	31000693          	li	a3,784
    1ca4:	4605                	li	a2,1
    1ca6:	4581                	li	a1,0
    1ca8:	04c00513          	li	a0,76
    1cac:	83fff0ef          	jal	ra,14ea <gpio_init>
D:\MounRiver\MounRiver_Studio\workspace\Robot_Master\obj/../CODE/Robot_Communite.c:23
    uart_rx_irq(UART_ROBOT, ENABLE);                                        //使能串口中断
    1cb0:	4585                	li	a1,1
    1cb2:	4501                	li	a0,0
    1cb4:	3b61                	jal	1a4c <uart_rx_irq>
D:\MounRiver\MounRiver_Studio\workspace\Robot_Master\obj/../CODE/Robot_Communite.c:24
    nvic_init((IRQn_Type)(53 + UART_ROBOT), 0, 0, ENABLE);                  //将串口的抢占优先级设置为最高，次优先级设置为最高。
    1cb6:	4685                	li	a3,1
    1cb8:	4601                	li	a2,0
    1cba:	4581                	li	a1,0
    1cbc:	03500513          	li	a0,53
    1cc0:	9cfff0ef          	jal	ra,168e <nvic_init>
D:\MounRiver\MounRiver_Studio\workspace\Robot_Master\obj/../CODE/Robot_Communite.c:25
}
    1cc4:	0001                	nop
    1cc6:	40b2                	lw	ra,12(sp)
    1cc8:	4422                	lw	s0,8(sp)
    1cca:	0141                	addi	sp,sp,16
    1ccc:	8082                	ret

00001cce <Add_Checksum>:
Add_Checksum():
D:\MounRiver\MounRiver_Studio\workspace\Robot_Master\obj/../CODE/Robot_Communite.c:35
//  @update             2021-8-23
//  @param              sip_info：通信数组
//  @return             null
//  Sample usage:       Add_Checksum(sip_info)
//-------------------------------------------------------------------------------------------------------------------
uint8* Add_Checksum(uint8* sip_info){
    1cce:	7179                	addi	sp,sp,-48
    1cd0:	d606                	sw	ra,44(sp)
    1cd2:	d422                	sw	s0,40(sp)
    1cd4:	1800                	addi	s0,sp,48
    1cd6:	fca42e23          	sw	a0,-36(s0)
D:\MounRiver\MounRiver_Studio\workspace\Robot_Master\obj/../CODE/Robot_Communite.c:36
    int len = sip_info[2] + 3;
    1cda:	fdc42783          	lw	a5,-36(s0)
    1cde:	0789                	addi	a5,a5,2
    1ce0:	0007c783          	lbu	a5,0(a5)
    1ce4:	078d                	addi	a5,a5,3
    1ce6:	fef42623          	sw	a5,-20(s0)
D:\MounRiver\MounRiver_Studio\workspace\Robot_Master\obj/../CODE/Robot_Communite.c:37
    sip_info[len - 2] = 0;
    1cea:	fec42783          	lw	a5,-20(s0)
    1cee:	17f9                	addi	a5,a5,-2
    1cf0:	fdc42703          	lw	a4,-36(s0)
    1cf4:	97ba                	add	a5,a5,a4
    1cf6:	00078023          	sb	zero,0(a5)
D:\MounRiver\MounRiver_Studio\workspace\Robot_Master\obj/../CODE/Robot_Communite.c:38
    sip_info[len - 1] = 0;
    1cfa:	fec42783          	lw	a5,-20(s0)
    1cfe:	17fd                	addi	a5,a5,-1
    1d00:	fdc42703          	lw	a4,-36(s0)
    1d04:	97ba                	add	a5,a5,a4
    1d06:	00078023          	sb	zero,0(a5)
D:\MounRiver\MounRiver_Studio\workspace\Robot_Master\obj/../CODE/Robot_Communite.c:39
    int16 checksum = Calc_Check_Sum(sip_info);
    1d0a:	fdc42503          	lw	a0,-36(s0)
    1d0e:	2601                	jal	200e <Calc_Check_Sum>
    1d10:	87aa                	mv	a5,a0
    1d12:	fef41523          	sh	a5,-22(s0)
D:\MounRiver\MounRiver_Studio\workspace\Robot_Master\obj/../CODE/Robot_Communite.c:40
    sip_info[len - 2] = checksum >> 8;
    1d16:	fea41783          	lh	a5,-22(s0)
    1d1a:	87a1                	srai	a5,a5,0x8
    1d1c:	01079693          	slli	a3,a5,0x10
    1d20:	86c1                	srai	a3,a3,0x10
    1d22:	fec42783          	lw	a5,-20(s0)
    1d26:	17f9                	addi	a5,a5,-2
    1d28:	fdc42703          	lw	a4,-36(s0)
    1d2c:	97ba                	add	a5,a5,a4
    1d2e:	0ff6f713          	andi	a4,a3,255
    1d32:	00e78023          	sb	a4,0(a5)
D:\MounRiver\MounRiver_Studio\workspace\Robot_Master\obj/../CODE/Robot_Communite.c:41
    sip_info[len - 1] = checksum & 0xff;
    1d36:	fec42783          	lw	a5,-20(s0)
    1d3a:	17fd                	addi	a5,a5,-1
    1d3c:	fdc42703          	lw	a4,-36(s0)
    1d40:	97ba                	add	a5,a5,a4
    1d42:	fea45703          	lhu	a4,-22(s0)
    1d46:	0ff77713          	andi	a4,a4,255
    1d4a:	00e78023          	sb	a4,0(a5)
D:\MounRiver\MounRiver_Studio\workspace\Robot_Master\obj/../CODE/Robot_Communite.c:42
    return sip_info;
    1d4e:	fdc42783          	lw	a5,-36(s0)
D:\MounRiver\MounRiver_Studio\workspace\Robot_Master\obj/../CODE/Robot_Communite.c:43
}
    1d52:	853e                	mv	a0,a5
    1d54:	50b2                	lw	ra,44(sp)
    1d56:	5422                	lw	s0,40(sp)
    1d58:	6145                	addi	sp,sp,48
    1d5a:	8082                	ret

00001d5c <Receive_Sip>:
Receive_Sip():
D:\MounRiver\MounRiver_Studio\workspace\Robot_Master\obj/../CODE/Robot_Communite.c:53
//  @update             2021-8-23
//  @param              dat：字节数据
//  @return             null
//  Sample usage:       Receive_Sip(dat)
//-------------------------------------------------------------------------------------------------------------------
void Receive_Sip(uint8 dat){
    1d5c:	1101                	addi	sp,sp,-32
    1d5e:	ce22                	sw	s0,28(sp)
    1d60:	1000                	addi	s0,sp,32
    1d62:	87aa                	mv	a5,a0
    1d64:	fef407a3          	sb	a5,-17(s0)
D:\MounRiver\MounRiver_Studio\workspace\Robot_Master\obj/../CODE/Robot_Communite.c:58

    static uint8 cnt = 0;
    static uint8 start_receive_flag = -1;

    if(dat == FIRST_HEAD || (start_receive_flag == 0 && dat == SECOND_HEAD))
    1d68:	fef44703          	lbu	a4,-17(s0)
    1d6c:	0fa00793          	li	a5,250
    1d70:	00f70b63          	beq	a4,a5,1d86 <Receive_Sip+0x2a>
D:\MounRiver\MounRiver_Studio\workspace\Robot_Master\obj/../CODE/Robot_Communite.c:58 (discriminator 1)
    1d74:	8081c783          	lbu	a5,-2040(gp) # 20000070 <start_receive_flag.6007>
    1d78:	ef91                	bnez	a5,1d94 <Receive_Sip+0x38>
D:\MounRiver\MounRiver_Studio\workspace\Robot_Master\obj/../CODE/Robot_Communite.c:58 (discriminator 2)
    1d7a:	fef44703          	lbu	a4,-17(s0)
    1d7e:	0fb00793          	li	a5,251
    1d82:	00f71963          	bne	a4,a5,1d94 <Receive_Sip+0x38>
D:\MounRiver\MounRiver_Studio\workspace\Robot_Master\obj/../CODE/Robot_Communite.c:59
        start_receive_flag++;
    1d86:	8081c783          	lbu	a5,-2040(gp) # 20000070 <start_receive_flag.6007>
    1d8a:	0785                	addi	a5,a5,1
    1d8c:	0ff7f713          	andi	a4,a5,255
    1d90:	80e18423          	sb	a4,-2040(gp) # 20000070 <start_receive_flag.6007>
D:\MounRiver\MounRiver_Studio\workspace\Robot_Master\obj/../CODE/Robot_Communite.c:62

    if(start_receive_flag != -1)
        sip_receive_info[cnt++] = dat;
    1d94:	8251c783          	lbu	a5,-2011(gp) # 2000008d <cnt.6006>
    1d98:	00178713          	addi	a4,a5,1
    1d9c:	0ff77693          	andi	a3,a4,255
    1da0:	82d182a3          	sb	a3,-2011(gp) # 2000008d <cnt.6006>
    1da4:	873e                	mv	a4,a5
    1da6:	83c18793          	addi	a5,gp,-1988 # 200000a4 <sip_receive_info>
    1daa:	97ba                	add	a5,a5,a4
    1dac:	fef44703          	lbu	a4,-17(s0)
    1db0:	00e78023          	sb	a4,0(a5)
D:\MounRiver\MounRiver_Studio\workspace\Robot_Master\obj/../CODE/Robot_Communite.c:64

    if(cnt == sip_receive_info[2] + 3){
    1db4:	8251c783          	lbu	a5,-2011(gp) # 2000008d <cnt.6006>
    1db8:	873e                	mv	a4,a5
    1dba:	83c18793          	addi	a5,gp,-1988 # 200000a4 <sip_receive_info>
    1dbe:	0027c783          	lbu	a5,2(a5)
    1dc2:	078d                	addi	a5,a5,3
    1dc4:	00f71763          	bne	a4,a5,1dd2 <Receive_Sip+0x76>
D:\MounRiver\MounRiver_Studio\workspace\Robot_Master\obj/../CODE/Robot_Communite.c:65
        cnt = 0;
    1dc8:	820182a3          	sb	zero,-2011(gp) # 2000008d <cnt.6006>
D:\MounRiver\MounRiver_Studio\workspace\Robot_Master\obj/../CODE/Robot_Communite.c:66
        start_receive_flag = -1;
    1dcc:	577d                	li	a4,-1
    1dce:	80e18423          	sb	a4,-2040(gp) # 20000070 <start_receive_flag.6007>
D:\MounRiver\MounRiver_Studio\workspace\Robot_Master\obj/../CODE/Robot_Communite.c:69
    }

    if(cnt > RECEIVE_MAXLEN)
    1dd2:	8251c703          	lbu	a4,-2011(gp) # 2000008d <cnt.6006>
    1dd6:	47d1                	li	a5,20
    1dd8:	00e7f563          	bgeu	a5,a4,1de2 <Receive_Sip+0x86>
D:\MounRiver\MounRiver_Studio\workspace\Robot_Master\obj/../CODE/Robot_Communite.c:70
        uart_state = UART_LEN_ERROR;
    1ddc:	4709                	li	a4,2
    1dde:	82e18223          	sb	a4,-2012(gp) # 2000008c <uart_state>
D:\MounRiver\MounRiver_Studio\workspace\Robot_Master\obj/../CODE/Robot_Communite.c:71
}
    1de2:	0001                	nop
    1de4:	4472                	lw	s0,28(sp)
    1de6:	6105                	addi	sp,sp,32
    1de8:	8082                	ret

00001dea <Start_Robot_Connection_Sync>:
Start_Robot_Connection_Sync():
D:\MounRiver\MounRiver_Studio\workspace\Robot_Master\obj/../CODE/Robot_Communite.c:82
//  @update             2021-8-23
//  @param              null
//  @return             bool 是否完成建立通信
//  Sample usage:       Start_Robot_Connection_Sync()
//-------------------------------------------------------------------------------------------------------------------
bool Start_Robot_Connection_Sync(void){
    1dea:	1141                	addi	sp,sp,-16
    1dec:	c606                	sw	ra,12(sp)
    1dee:	c422                	sw	s0,8(sp)
    1df0:	0800                	addi	s0,sp,16
D:\MounRiver\MounRiver_Studio\workspace\Robot_Master\obj/../CODE/Robot_Communite.c:86
    static CMD_SYNC sync = CMD_SYNC0;
    static bool start_pulse = false;

    if(sync != CMD_SYNC_READY && sip_receive_info[2] != 0){
    1df2:	8281a703          	lw	a4,-2008(gp) # 20000090 <sync.6011>
    1df6:	478d                	li	a5,3
    1df8:	0af70363          	beq	a4,a5,1e9e <Start_Robot_Connection_Sync+0xb4>
D:\MounRiver\MounRiver_Studio\workspace\Robot_Master\obj/../CODE/Robot_Communite.c:86 (discriminator 1)
    1dfc:	83c18793          	addi	a5,gp,-1988 # 200000a4 <sip_receive_info>
    1e00:	0027c783          	lbu	a5,2(a5)
    1e04:	cfc9                	beqz	a5,1e9e <Start_Robot_Connection_Sync+0xb4>
D:\MounRiver\MounRiver_Studio\workspace\Robot_Master\obj/../CODE/Robot_Communite.c:87
        if(*(sip_receive_info + ARCOS_CMD_INDEX) == CMD_SYNC2 && sync == CMD_SYNC2){
    1e06:	83c18793          	addi	a5,gp,-1988 # 200000a4 <sip_receive_info>
    1e0a:	0037c703          	lbu	a4,3(a5)
    1e0e:	4789                	li	a5,2
    1e10:	02f71863          	bne	a4,a5,1e40 <Start_Robot_Connection_Sync+0x56>
D:\MounRiver\MounRiver_Studio\workspace\Robot_Master\obj/../CODE/Robot_Communite.c:87 (discriminator 1)
    1e14:	8281a703          	lw	a4,-2008(gp) # 20000090 <sync.6011>
    1e18:	4789                	li	a5,2
    1e1a:	02f71363          	bne	a4,a5,1e40 <Start_Robot_Connection_Sync+0x56>
D:\MounRiver\MounRiver_Studio\workspace\Robot_Master\obj/../CODE/Robot_Communite.c:88
            uart_putbuff(UART_1, sip_receive_info, sip_receive_info[2] + 3);
    1e1e:	83c18793          	addi	a5,gp,-1988 # 200000a4 <sip_receive_info>
    1e22:	0027c783          	lbu	a5,2(a5)
    1e26:	078d                	addi	a5,a5,3
    1e28:	863e                	mv	a2,a5
    1e2a:	83c18593          	addi	a1,gp,-1988 # 200000a4 <sip_receive_info>
    1e2e:	4501                	li	a0,0
    1e30:	3ed9                	jal	1a06 <uart_putbuff>
D:\MounRiver\MounRiver_Studio\workspace\Robot_Master\obj/../CODE/Robot_Communite.c:89
            sync = CMD_SYNC_READY;
    1e32:	470d                	li	a4,3
    1e34:	82e1a423          	sw	a4,-2008(gp) # 20000090 <sync.6011>
D:\MounRiver\MounRiver_Studio\workspace\Robot_Master\obj/../CODE/Robot_Communite.c:90
            start_pulse = true;
    1e38:	4705                	li	a4,1
    1e3a:	82e18623          	sb	a4,-2004(gp) # 20000094 <start_pulse.6012>
    1e3e:	a085                	j	1e9e <Start_Robot_Connection_Sync+0xb4>
D:\MounRiver\MounRiver_Studio\workspace\Robot_Master\obj/../CODE/Robot_Communite.c:92
        }
        else if(*(sip_receive_info + ARCOS_CMD_INDEX) == CMD_SYNC1 && sync == CMD_SYNC1){
    1e40:	83c18793          	addi	a5,gp,-1988 # 200000a4 <sip_receive_info>
    1e44:	0037c703          	lbu	a4,3(a5)
    1e48:	4785                	li	a5,1
    1e4a:	02f71563          	bne	a4,a5,1e74 <Start_Robot_Connection_Sync+0x8a>
D:\MounRiver\MounRiver_Studio\workspace\Robot_Master\obj/../CODE/Robot_Communite.c:92 (discriminator 1)
    1e4e:	8281a703          	lw	a4,-2008(gp) # 20000090 <sync.6011>
    1e52:	4785                	li	a5,1
    1e54:	02f71063          	bne	a4,a5,1e74 <Start_Robot_Connection_Sync+0x8a>
D:\MounRiver\MounRiver_Studio\workspace\Robot_Master\obj/../CODE/Robot_Communite.c:93
            uart_putbuff(UART_1, sip_receive_info, sip_receive_info[2] + 3);
    1e58:	83c18793          	addi	a5,gp,-1988 # 200000a4 <sip_receive_info>
    1e5c:	0027c783          	lbu	a5,2(a5)
    1e60:	078d                	addi	a5,a5,3
    1e62:	863e                	mv	a2,a5
    1e64:	83c18593          	addi	a1,gp,-1988 # 200000a4 <sip_receive_info>
    1e68:	4501                	li	a0,0
    1e6a:	3e71                	jal	1a06 <uart_putbuff>
D:\MounRiver\MounRiver_Studio\workspace\Robot_Master\obj/../CODE/Robot_Communite.c:94
            sync = CMD_SYNC2;
    1e6c:	4709                	li	a4,2
    1e6e:	82e1a423          	sw	a4,-2008(gp) # 20000090 <sync.6011>
    1e72:	a035                	j	1e9e <Start_Robot_Connection_Sync+0xb4>
D:\MounRiver\MounRiver_Studio\workspace\Robot_Master\obj/../CODE/Robot_Communite.c:96
        }
        else if(*(sip_receive_info + ARCOS_CMD_INDEX) == CMD_SYNC0 && sync == CMD_SYNC0){
    1e74:	83c18793          	addi	a5,gp,-1988 # 200000a4 <sip_receive_info>
    1e78:	0037c783          	lbu	a5,3(a5)
    1e7c:	e38d                	bnez	a5,1e9e <Start_Robot_Connection_Sync+0xb4>
D:\MounRiver\MounRiver_Studio\workspace\Robot_Master\obj/../CODE/Robot_Communite.c:96 (discriminator 1)
    1e7e:	8281a783          	lw	a5,-2008(gp) # 20000090 <sync.6011>
    1e82:	ef91                	bnez	a5,1e9e <Start_Robot_Connection_Sync+0xb4>
D:\MounRiver\MounRiver_Studio\workspace\Robot_Master\obj/../CODE/Robot_Communite.c:97
            uart_putbuff(UART_1, sip_receive_info, sip_receive_info[2] + 3);
    1e84:	83c18793          	addi	a5,gp,-1988 # 200000a4 <sip_receive_info>
    1e88:	0027c783          	lbu	a5,2(a5)
    1e8c:	078d                	addi	a5,a5,3
    1e8e:	863e                	mv	a2,a5
    1e90:	83c18593          	addi	a1,gp,-1988 # 200000a4 <sip_receive_info>
    1e94:	4501                	li	a0,0
    1e96:	3e85                	jal	1a06 <uart_putbuff>
D:\MounRiver\MounRiver_Studio\workspace\Robot_Master\obj/../CODE/Robot_Communite.c:98
            sync = CMD_SYNC1;
    1e98:	4705                	li	a4,1
    1e9a:	82e1a423          	sw	a4,-2008(gp) # 20000090 <sync.6011>
D:\MounRiver\MounRiver_Studio\workspace\Robot_Master\obj/../CODE/Robot_Communite.c:101
        }
    }
    if(start_pulse){
    1e9e:	82c1c783          	lbu	a5,-2004(gp) # 20000094 <start_pulse.6012>
    1ea2:	cfa1                	beqz	a5,1efa <Start_Robot_Connection_Sync+0x110>
D:\MounRiver\MounRiver_Studio\workspace\Robot_Master\obj/../CODE/Robot_Communite.c:102
        if(*(sip_receive_info + ARCOS_CMD_INDEX) == ROBOT_OPEN){
    1ea4:	83c18793          	addi	a5,gp,-1988 # 200000a4 <sip_receive_info>
    1ea8:	0037c703          	lbu	a4,3(a5)
    1eac:	4785                	li	a5,1
    1eae:	04f70663          	beq	a4,a5,1efa <Start_Robot_Connection_Sync+0x110>
D:\MounRiver\MounRiver_Studio\workspace\Robot_Master\obj/../CODE/Robot_Communite.c:105
            ;
        }
        else if(*(sip_receive_info + ARCOS_CMD_INDEX) == ROBOT_PULSE){
    1eb2:	83c18793          	addi	a5,gp,-1988 # 200000a4 <sip_receive_info>
    1eb6:	0037c783          	lbu	a5,3(a5)
    1eba:	e3a1                	bnez	a5,1efa <Start_Robot_Connection_Sync+0x110>
D:\MounRiver\MounRiver_Studio\workspace\Robot_Master\obj/../CODE/Robot_Communite.c:106
            uart_putbuff(UART_1, sip_receive_info, sip_receive_info[2] + 3);
    1ebc:	83c18793          	addi	a5,gp,-1988 # 200000a4 <sip_receive_info>
    1ec0:	0027c783          	lbu	a5,2(a5)
    1ec4:	078d                	addi	a5,a5,3
    1ec6:	863e                	mv	a2,a5
    1ec8:	83c18593          	addi	a1,gp,-1988 # 200000a4 <sip_receive_info>
    1ecc:	4501                	li	a0,0
    1ece:	3e25                	jal	1a06 <uart_putbuff>
D:\MounRiver\MounRiver_Studio\workspace\Robot_Master\obj/../CODE/Robot_Communite.c:107
            uart_putbuff(UART_1, Add_Checksum(standard_sip_info), standard_sip_info[2] + 3);
    1ed0:	200007b7          	lui	a5,0x20000
    1ed4:	01078513          	addi	a0,a5,16 # 20000010 <standard_sip_info>
    1ed8:	3bdd                	jal	1cce <Add_Checksum>
    1eda:	872a                	mv	a4,a0
    1edc:	200007b7          	lui	a5,0x20000
    1ee0:	01078793          	addi	a5,a5,16 # 20000010 <standard_sip_info>
    1ee4:	0027c783          	lbu	a5,2(a5)
    1ee8:	078d                	addi	a5,a5,3
    1eea:	863e                	mv	a2,a5
    1eec:	85ba                	mv	a1,a4
    1eee:	4501                	li	a0,0
    1ef0:	3e19                	jal	1a06 <uart_putbuff>
D:\MounRiver\MounRiver_Studio\workspace\Robot_Master\obj/../CODE/Robot_Communite.c:108
            start_pulse = false;
    1ef2:	82018623          	sb	zero,-2004(gp) # 20000094 <start_pulse.6012>
D:\MounRiver\MounRiver_Studio\workspace\Robot_Master\obj/../CODE/Robot_Communite.c:109
            return true;
    1ef6:	4785                	li	a5,1
    1ef8:	a011                	j	1efc <Start_Robot_Connection_Sync+0x112>
D:\MounRiver\MounRiver_Studio\workspace\Robot_Master\obj/../CODE/Robot_Communite.c:112
        }
    }
    return false;
    1efa:	4781                	li	a5,0
D:\MounRiver\MounRiver_Studio\workspace\Robot_Master\obj/../CODE/Robot_Communite.c:113
}
    1efc:	853e                	mv	a0,a5
    1efe:	40b2                	lw	ra,12(sp)
    1f00:	4422                	lw	s0,8(sp)
    1f02:	0141                	addi	sp,sp,16
    1f04:	8082                	ret

00001f06 <Keep_Robot_Communite>:
Keep_Robot_Communite():
D:\MounRiver\MounRiver_Studio\workspace\Robot_Master\obj/../CODE/Robot_Communite.c:123
//  @update             2021-8-23
//  @param              null
//  @return             null
//  Sample usage:       Keep_Robot_Communite()
//-------------------------------------------------------------------------------------------------------------------
void Keep_Robot_Communite(void){
    1f06:	1141                	addi	sp,sp,-16
    1f08:	c606                	sw	ra,12(sp)
    1f0a:	c422                	sw	s0,8(sp)
    1f0c:	0800                	addi	s0,sp,16
D:\MounRiver\MounRiver_Studio\workspace\Robot_Master\obj/../CODE/Robot_Communite.c:124
    if(*(sip_receive_info + ARCOS_CMD_INDEX) == ROBOT_VEL){
    1f0e:	83c18793          	addi	a5,gp,-1988 # 200000a4 <sip_receive_info>
    1f12:	0037c703          	lbu	a4,3(a5)
    1f16:	47ad                	li	a5,11
    1f18:	00f71363          	bne	a4,a5,1f1e <Keep_Robot_Communite+0x18>
    1f1c:	a031                	j	1f28 <Keep_Robot_Communite+0x22>
D:\MounRiver\MounRiver_Studio\workspace\Robot_Master\obj/../CODE/Robot_Communite.c:134
        else if(*(sip_receive_info + ARG_TYPE_INDEX) == ARGNINT){
            ;
        }

    }
    else if(*(sip_receive_info + ARCOS_CMD_INDEX) == ROBOT_RVEL){
    1f1e:	83c18793          	addi	a5,gp,-1988 # 200000a4 <sip_receive_info>
    1f22:	0037c703          	lbu	a4,3(a5)
    1f26:	47d5                	li	a5,21
D:\MounRiver\MounRiver_Studio\workspace\Robot_Master\obj/../CODE/Robot_Communite.c:147
    }
    else if(*(sip_receive_info + ARCOS_CMD_INDEX) == ROBOT_DIGOUT){
        //接受设置的电压信息
        ;
    }
    uart_putbuff(UART_1, Add_Checksum(standard_sip_info), standard_sip_info[2] + 3);
    1f28:	200007b7          	lui	a5,0x20000
    1f2c:	01078513          	addi	a0,a5,16 # 20000010 <standard_sip_info>
    1f30:	3b79                	jal	1cce <Add_Checksum>
    1f32:	872a                	mv	a4,a0
    1f34:	200007b7          	lui	a5,0x20000
    1f38:	01078793          	addi	a5,a5,16 # 20000010 <standard_sip_info>
    1f3c:	0027c783          	lbu	a5,2(a5)
    1f40:	078d                	addi	a5,a5,3
    1f42:	863e                	mv	a2,a5
    1f44:	85ba                	mv	a1,a4
    1f46:	4501                	li	a0,0
    1f48:	abfff0ef          	jal	ra,1a06 <uart_putbuff>
D:\MounRiver\MounRiver_Studio\workspace\Robot_Master\obj/../CODE/Robot_Communite.c:148
    uart_putbuff(UART_1, Add_Checksum(standard_io_info), standard_io_info[2] + 3);
    1f4c:	200007b7          	lui	a5,0x20000
    1f50:	04478513          	addi	a0,a5,68 # 20000044 <standard_io_info>
    1f54:	3bad                	jal	1cce <Add_Checksum>
    1f56:	872a                	mv	a4,a0
    1f58:	200007b7          	lui	a5,0x20000
    1f5c:	04478793          	addi	a5,a5,68 # 20000044 <standard_io_info>
    1f60:	0027c783          	lbu	a5,2(a5)
    1f64:	078d                	addi	a5,a5,3
    1f66:	863e                	mv	a2,a5
    1f68:	85ba                	mv	a1,a4
    1f6a:	4501                	li	a0,0
    1f6c:	a9bff0ef          	jal	ra,1a06 <uart_putbuff>
D:\MounRiver\MounRiver_Studio\workspace\Robot_Master\obj/../CODE/Robot_Communite.c:149
}
    1f70:	0001                	nop
    1f72:	40b2                	lw	ra,12(sp)
    1f74:	4422                	lw	s0,8(sp)
    1f76:	0141                	addi	sp,sp,16
    1f78:	8082                	ret

00001f7a <USART1_IRQHandler>:
USART1_IRQHandler():
D:\MounRiver\MounRiver_Studio\workspace\Robot_Master\obj/../CODE/Robot_Communite.c:161
//  @param              null
//  @return             null
//  Sample usage:       USART1_IRQHandler()
//-------------------------------------------------------------------------------------------------------------------
void USART1_IRQHandler(void)
{
    1f7a:	711d                	addi	sp,sp,-96
    1f7c:	ce86                	sw	ra,92(sp)
    1f7e:	cc96                	sw	t0,88(sp)
    1f80:	ca9a                	sw	t1,84(sp)
    1f82:	c89e                	sw	t2,80(sp)
    1f84:	c6a2                	sw	s0,76(sp)
    1f86:	c4aa                	sw	a0,72(sp)
    1f88:	c2ae                	sw	a1,68(sp)
    1f8a:	c0b2                	sw	a2,64(sp)
    1f8c:	de36                	sw	a3,60(sp)
    1f8e:	dc3a                	sw	a4,56(sp)
    1f90:	da3e                	sw	a5,52(sp)
    1f92:	d842                	sw	a6,48(sp)
    1f94:	d646                	sw	a7,44(sp)
    1f96:	d472                	sw	t3,40(sp)
    1f98:	d276                	sw	t4,36(sp)
    1f9a:	d07a                	sw	t5,32(sp)
    1f9c:	ce7e                	sw	t6,28(sp)
    1f9e:	1080                	addi	s0,sp,96
D:\MounRiver\MounRiver_Studio\workspace\Robot_Master\obj/../CODE/Robot_Communite.c:163
    uint8 dat;
    if(USART_GetITStatus(USART1, USART_IT_RXNE) != RESET){
    1fa0:	52500593          	li	a1,1317
    1fa4:	400147b7          	lui	a5,0x40014
    1fa8:	80078513          	addi	a0,a5,-2048 # 40013800 <_eusrstack+0x2000e800>
    1fac:	a46ff0ef          	jal	ra,11f2 <USART_GetITStatus>
    1fb0:	87aa                	mv	a5,a0
    1fb2:	cb8d                	beqz	a5,1fe4 <USART1_IRQHandler+0x6a>
D:\MounRiver\MounRiver_Studio\workspace\Robot_Master\obj/../CODE/Robot_Communite.c:164
        USART_ClearITPendingBit(USART1, USART_IT_RXNE);     //清除串口接收中断标志位
    1fb4:	52500593          	li	a1,1317
    1fb8:	400147b7          	lui	a5,0x40014
    1fbc:	80078513          	addi	a0,a5,-2048 # 40013800 <_eusrstack+0x2000e800>
    1fc0:	b34ff0ef          	jal	ra,12f4 <USART_ClearITPendingBit>
D:\MounRiver\MounRiver_Studio\workspace\Robot_Master\obj/../CODE/Robot_Communite.c:165
        if(uart_state == UART_OK){
    1fc4:	8241c783          	lbu	a5,-2012(gp) # 2000008c <uart_state>
    1fc8:	ef91                	bnez	a5,1fe4 <USART1_IRQHandler+0x6a>
D:\MounRiver\MounRiver_Studio\workspace\Robot_Master\obj/../CODE/Robot_Communite.c:166
            dat = USART_ReceiveData(USART1);
    1fca:	400147b7          	lui	a5,0x40014
    1fce:	80078513          	addi	a0,a5,-2048 # 40013800 <_eusrstack+0x2000e800>
    1fd2:	9faff0ef          	jal	ra,11cc <USART_ReceiveData>
    1fd6:	87aa                	mv	a5,a0
    1fd8:	faf407a3          	sb	a5,-81(s0)
D:\MounRiver\MounRiver_Studio\workspace\Robot_Master\obj/../CODE/Robot_Communite.c:167
            Receive_Sip(dat);
    1fdc:	faf44783          	lbu	a5,-81(s0)
    1fe0:	853e                	mv	a0,a5
    1fe2:	3bad                	jal	1d5c <Receive_Sip>
D:\MounRiver\MounRiver_Studio\workspace\Robot_Master\obj/../CODE/Robot_Communite.c:170
        }
    }
}
    1fe4:	0001                	nop
    1fe6:	40f6                	lw	ra,92(sp)
    1fe8:	42e6                	lw	t0,88(sp)
    1fea:	4356                	lw	t1,84(sp)
    1fec:	43c6                	lw	t2,80(sp)
    1fee:	4436                	lw	s0,76(sp)
    1ff0:	4526                	lw	a0,72(sp)
    1ff2:	4596                	lw	a1,68(sp)
    1ff4:	4606                	lw	a2,64(sp)
    1ff6:	56f2                	lw	a3,60(sp)
    1ff8:	5762                	lw	a4,56(sp)
    1ffa:	57d2                	lw	a5,52(sp)
    1ffc:	5842                	lw	a6,48(sp)
    1ffe:	58b2                	lw	a7,44(sp)
    2000:	5e22                	lw	t3,40(sp)
    2002:	5e92                	lw	t4,36(sp)
    2004:	5f02                	lw	t5,32(sp)
    2006:	4ff2                	lw	t6,28(sp)
    2008:	6125                	addi	sp,sp,96
    200a:	30200073          	mret

0000200e <Calc_Check_Sum>:
Calc_Check_Sum():
D:\MounRiver\MounRiver_Studio\workspace\Robot_Master\obj/../CODE/Util.c:18
//  @update             2021-8-23
//  @param              data  sip_info
//  @return             check 校验和
//  Sample usage:       Calc_Check_Sum(sip_info)
//-------------------------------------------------------------------------------------------------------------------
int16 Calc_Check_Sum(uint8* data){
    200e:	7179                	addi	sp,sp,-48
    2010:	d622                	sw	s0,44(sp)
    2012:	1800                	addi	s0,sp,48
    2014:	fca42e23          	sw	a0,-36(s0)
D:\MounRiver\MounRiver_Studio\workspace\Robot_Master\obj/../CODE/Util.c:19
    int16 check = 0;
    2018:	fe041723          	sh	zero,-18(s0)
D:\MounRiver\MounRiver_Studio\workspace\Robot_Master\obj/../CODE/Util.c:20
    int index = 3;
    201c:	478d                	li	a5,3
    201e:	fef42423          	sw	a5,-24(s0)
D:\MounRiver\MounRiver_Studio\workspace\Robot_Master\obj/../CODE/Util.c:21
    int n = *(data + 2) - 2;
    2022:	fdc42783          	lw	a5,-36(s0)
    2026:	0789                	addi	a5,a5,2
    2028:	0007c783          	lbu	a5,0(a5)
    202c:	17f9                	addi	a5,a5,-2
    202e:	fef42223          	sw	a5,-28(s0)
D:\MounRiver\MounRiver_Studio\workspace\Robot_Master\obj/../CODE/Util.c:22
    while(n > 1){
    2032:	a8a9                	j	208c <Calc_Check_Sum+0x7e>
D:\MounRiver\MounRiver_Studio\workspace\Robot_Master\obj/../CODE/Util.c:23
        check += (*(data + index) << 8) | *(data + index + 1);
    2034:	fe842783          	lw	a5,-24(s0)
    2038:	fdc42703          	lw	a4,-36(s0)
    203c:	97ba                	add	a5,a5,a4
    203e:	0007c783          	lbu	a5,0(a5)
    2042:	07a2                	slli	a5,a5,0x8
    2044:	01079713          	slli	a4,a5,0x10
    2048:	8741                	srai	a4,a4,0x10
    204a:	fe842783          	lw	a5,-24(s0)
    204e:	0785                	addi	a5,a5,1
    2050:	fdc42683          	lw	a3,-36(s0)
    2054:	97b6                	add	a5,a5,a3
    2056:	0007c783          	lbu	a5,0(a5)
    205a:	07c2                	slli	a5,a5,0x10
    205c:	87c1                	srai	a5,a5,0x10
    205e:	8fd9                	or	a5,a5,a4
    2060:	07c2                	slli	a5,a5,0x10
    2062:	87c1                	srai	a5,a5,0x10
    2064:	01079713          	slli	a4,a5,0x10
    2068:	8341                	srli	a4,a4,0x10
    206a:	fee45783          	lhu	a5,-18(s0)
    206e:	97ba                	add	a5,a5,a4
    2070:	07c2                	slli	a5,a5,0x10
    2072:	83c1                	srli	a5,a5,0x10
    2074:	fef41723          	sh	a5,-18(s0)
D:\MounRiver\MounRiver_Studio\workspace\Robot_Master\obj/../CODE/Util.c:25
        check &= 0xffff;
        n -= 2;
    2078:	fe442783          	lw	a5,-28(s0)
    207c:	17f9                	addi	a5,a5,-2
    207e:	fef42223          	sw	a5,-28(s0)
D:\MounRiver\MounRiver_Studio\workspace\Robot_Master\obj/../CODE/Util.c:26
        index += 2;
    2082:	fe842783          	lw	a5,-24(s0)
    2086:	0789                	addi	a5,a5,2
    2088:	fef42423          	sw	a5,-24(s0)
D:\MounRiver\MounRiver_Studio\workspace\Robot_Master\obj/../CODE/Util.c:22
    while(n > 1){
    208c:	fe442703          	lw	a4,-28(s0)
    2090:	4785                	li	a5,1
    2092:	fae7c1e3          	blt	a5,a4,2034 <Calc_Check_Sum+0x26>
D:\MounRiver\MounRiver_Studio\workspace\Robot_Master\obj/../CODE/Util.c:28
    }
    if(n > 0)
    2096:	fe442783          	lw	a5,-28(s0)
    209a:	02f05163          	blez	a5,20bc <Calc_Check_Sum+0xae>
D:\MounRiver\MounRiver_Studio\workspace\Robot_Master\obj/../CODE/Util.c:29
        check ^= *(data + index);
    209e:	fe842783          	lw	a5,-24(s0)
    20a2:	fdc42703          	lw	a4,-36(s0)
    20a6:	97ba                	add	a5,a5,a4
    20a8:	0007c783          	lbu	a5,0(a5)
    20ac:	01079713          	slli	a4,a5,0x10
    20b0:	8741                	srai	a4,a4,0x10
    20b2:	fee45783          	lhu	a5,-18(s0)
    20b6:	8fb9                	xor	a5,a5,a4
    20b8:	fef41723          	sh	a5,-18(s0)
D:\MounRiver\MounRiver_Studio\workspace\Robot_Master\obj/../CODE/Util.c:30
    return check;
    20bc:	fee41783          	lh	a5,-18(s0)
D:\MounRiver\MounRiver_Studio\workspace\Robot_Master\obj/../CODE/Util.c:31
}
    20c0:	853e                	mv	a0,a5
    20c2:	5432                	lw	s0,44(sp)
    20c4:	6145                	addi	sp,sp,48
    20c6:	8082                	ret

000020c8 <GPION>:
    20c8:	0800 4001 0c00 4001 1000 4001 1400 4001     ...@...@...@...@

000020d8 <UARTN>:
    20d8:	3800 4001 4400 4000 4800 4000 4c00 4000     .8.@.D.@.H.@.L.@
